
Optional file vector_offset_init.o not found
Archive member included to satisfy reference by file (symbol)

/opt/microchip/xc32/v4.21/bin/bin/../../lib/gcc/pic32mx/8.3.1/fpu64/libgcc.a(_divdi3.o)
                              build/default/production/_ext/991344331/frequencyCounter.o (__divdi3)
/opt/microchip/xc32/v4.21/bin/bin/../../lib/gcc/pic32mx/8.3.1/../../../../pic32mx/lib/fpu64/libpic32.a(memcpy.o)
                              build/default/production/_ext/383772639/buffer.o (memcpy)
/opt/microchip/xc32/v4.21/bin/bin/../../lib/gcc/pic32mx/8.3.1/../../../../pic32mx/lib/fpu64/libpic32.a(strlen.o)
                              build/default/production/_ext/383772639/buffer.o (strlen)
/opt/microchip/xc32/v4.21/bin/bin/../../lib/gcc/pic32mx/8.3.1/../../../../pic32mx/lib/fpu64/libpic32.a(default-on-reset.o)
                              /tmp/cc2DRTQz.o (_on_reset)
/opt/microchip/xc32/v4.21/bin/bin/../../lib/gcc/pic32mx/8.3.1/../../../../pic32mx/lib/fpu64/libpic32.a(default-on-bootstrap.o)
                              /tmp/cc2DRTQz.o (_on_bootstrap)
/opt/microchip/xc32/v4.21/bin/bin/../../lib/gcc/pic32mx/8.3.1/../../../../pic32mx/lib/fpu64/libpic32.a(default-nmi-handler.o)
                              /tmp/cc2DRTQz.o (_nmi_handler)
/opt/microchip/xc32/v4.21/bin/bin/../../lib/gcc/pic32mx/8.3.1/../../../../pic32mx/lib/fpu64/libpic32.a(pic32_data_init_wrapper.o)
                              /tmp/cc2DRTQz.o (__pic32_data_init)
/opt/microchip/xc32/v4.21/bin/bin/../../lib/gcc/pic32mx/8.3.1/../../../../pic32mx/lib/fpu64/libpic32.a(pic32_data_init_0_1.o)
                              (__copy_needed)
/opt/microchip/xc32/v4.21/bin/bin/../../lib/gcc/pic32mx/8.3.1/../../../../pic32mx/lib/fpu64/libpic32.a(pic32_init_cache.o)
                              /tmp/cc2DRTQz.o (__pic32_init_cache)
/opt/microchip/xc32/v4.21/bin/bin/../../lib/gcc/pic32mx/8.3.1/../../../../pic32mx/lib/fpu64/libpic32.a(pic32_init_tlb_ebi_sqi.o)
                              /tmp/cc2DRTQz.o (__pic32_tlb_init_ebi_sqi)
/opt/microchip/xc32/v4.21/bin/bin/../../lib/gcc/pic32mx/8.3.1/../../../../pic32mx/lib/fpu64/libpic32.a(general-exception.o)
                              /tmp/cc2DRTQz.o (_general_exception_context)
/opt/microchip/xc32/v4.21/bin/bin/../../lib/gcc/pic32mx/8.3.1/../../../../pic32mx/lib/fpu64/libpic32.a(cache-err-exception.o)
                              /tmp/cc2DRTQz.o (_cache_err_exception_context)
/opt/microchip/xc32/v4.21/bin/bin/../../lib/gcc/pic32mx/8.3.1/../../../../pic32mx/lib/fpu64/libpic32.a(simple-tlb-refill-exception.o)
                              /tmp/cc2DRTQz.o (_simple_tlb_refill_exception_context)
/opt/microchip/xc32/v4.21/bin/bin/../../lib/gcc/pic32mx/8.3.1/../../../../pic32mx/lib/fpu64/libpic32.a(defaultinterrupt.o)
                              /tmp/cccIVjSB.o (_DefaultInterrupt)
/opt/microchip/xc32/v4.21/bin/bin/../../lib/gcc/pic32mx/8.3.1/../../../../pic32mx/lib/fpu64/libc-musl.a(__sio_sprintf_doux.o)
                              build/default/production/_ext/1505855908/clock.o (_sprintf_cdnopuxX)
/opt/microchip/xc32/v4.21/bin/bin/../../lib/gcc/pic32mx/8.3.1/../../../../pic32mx/lib/fpu64/libc-musl.a(__fmt_d.o)
                              /opt/microchip/xc32/v4.21/bin/bin/../../lib/gcc/pic32mx/8.3.1/../../../../pic32mx/lib/fpu64/libc-musl.a(__sio_sprintf_doux.o) (__fmt_d_needed)
/opt/microchip/xc32/v4.21/bin/bin/../../lib/gcc/pic32mx/8.3.1/../../../../pic32mx/lib/fpu64/libc-musl.a(__fmt_o.o)
                              /opt/microchip/xc32/v4.21/bin/bin/../../lib/gcc/pic32mx/8.3.1/../../../../pic32mx/lib/fpu64/libc-musl.a(__sio_sprintf_doux.o) (__fmt_o_needed)
/opt/microchip/xc32/v4.21/bin/bin/../../lib/gcc/pic32mx/8.3.1/../../../../pic32mx/lib/fpu64/libc-musl.a(__fmt_s.o)
                              /opt/microchip/xc32/v4.21/bin/bin/../../lib/gcc/pic32mx/8.3.1/../../../../pic32mx/lib/fpu64/libc-musl.a(__sio_sprintf_doux.o) (__fmt_s_needed)
/opt/microchip/xc32/v4.21/bin/bin/../../lib/gcc/pic32mx/8.3.1/../../../../pic32mx/lib/fpu64/libc-musl.a(__fmt_u.o)
                              /opt/microchip/xc32/v4.21/bin/bin/../../lib/gcc/pic32mx/8.3.1/../../../../pic32mx/lib/fpu64/libc-musl.a(__fmt_d.o) (__cvt_u)
/opt/microchip/xc32/v4.21/bin/bin/../../lib/gcc/pic32mx/8.3.1/../../../../pic32mx/lib/fpu64/libc-musl.a(__fmt_x.o)
                              /opt/microchip/xc32/v4.21/bin/bin/../../lib/gcc/pic32mx/8.3.1/../../../../pic32mx/lib/fpu64/libc-musl.a(__sio_sprintf_doux.o) (__fmt_x_needed)
/opt/microchip/xc32/v4.21/bin/bin/../../lib/gcc/pic32mx/8.3.1/../../../../pic32mx/lib/fpu64/libc-musl.a(__pop_int.o)
                              /opt/microchip/xc32/v4.21/bin/bin/../../lib/gcc/pic32mx/8.3.1/../../../../pic32mx/lib/fpu64/libc-musl.a(__sio_sprintf_doux.o) (__pop_int_needed)
/opt/microchip/xc32/v4.21/bin/bin/../../lib/gcc/pic32mx/8.3.1/../../../../pic32mx/lib/fpu64/libc-musl.a(__pop_ptr.o)
                              /opt/microchip/xc32/v4.21/bin/bin/../../lib/gcc/pic32mx/8.3.1/../../../../pic32mx/lib/fpu64/libc-musl.a(__sio_sprintf_doux.o) (__pop_ptr_needed)
/opt/microchip/xc32/v4.21/bin/bin/../../lib/gcc/pic32mx/8.3.1/../../../../pic32mx/lib/fpu64/libc-musl.a(__printf_core.o)
                              /opt/microchip/xc32/v4.21/bin/bin/../../lib/gcc/pic32mx/8.3.1/../../../../pic32mx/lib/fpu64/libc-musl.a(__fmt_d.o) (__pad)
/opt/microchip/xc32/v4.21/bin/bin/../../lib/gcc/pic32mx/8.3.1/../../../../pic32mx/lib/fpu64/libc-musl.a(atoi.o)
                              /opt/microchip/xc32/v4.21/bin/bin/../../lib/gcc/pic32mx/8.3.1/../../../../pic32mx/lib/fpu64/libc-musl.a(__printf_core.o) (atoi)
/opt/microchip/xc32/v4.21/bin/bin/../../lib/gcc/pic32mx/8.3.1/../../../../pic32mx/lib/fpu64/libc-musl.a(memset.o)
                              /opt/microchip/xc32/v4.21/bin/bin/../../lib/gcc/pic32mx/8.3.1/../../../../pic32mx/lib/fpu64/libc-musl.a(__printf_core.o) (memset)
/opt/microchip/xc32/v4.21/bin/bin/../../lib/gcc/pic32mx/8.3.1/../../../../pic32mx/lib/fpu64/libc-musl.a(tolower.o)
                              /opt/microchip/xc32/v4.21/bin/bin/../../lib/gcc/pic32mx/8.3.1/../../../../pic32mx/lib/fpu64/libc-musl.a(__printf_core.o) (tolower)
/opt/microchip/xc32/v4.21/bin/bin/../../lib/gcc/pic32mx/8.3.1/../../../../pic32mx/lib/fpu64/libc-musl.a(toupper.o)
                              /opt/microchip/xc32/v4.21/bin/bin/../../lib/gcc/pic32mx/8.3.1/../../../../pic32mx/lib/fpu64/libc-musl.a(__fmt_x.o) (toupper)
/opt/microchip/xc32/v4.21/bin/bin/../../lib/gcc/pic32mx/8.3.1/../../../../pic32mx/lib/fpu64/libc-musl.a(__int_vsprintf.o)
                              /opt/microchip/xc32/v4.21/bin/bin/../../lib/gcc/pic32mx/8.3.1/../../../../pic32mx/lib/fpu64/libc-musl.a(__sio_sprintf_doux.o) (__vsprintf)
/opt/microchip/xc32/v4.21/bin/bin/../../lib/gcc/pic32mx/8.3.1/../../../../pic32mx/lib/fpu64/libc-musl.a(__pop_float.o)
                              /opt/microchip/xc32/v4.21/bin/bin/../../lib/gcc/pic32mx/8.3.1/../../../../pic32mx/lib/fpu64/libc-musl.a(__printf_core.o) (__pop_float)
/opt/microchip/xc32/v4.21/bin/bin/../../lib/gcc/pic32mx/8.3.1/../../../../pic32mx/lib/fpu64/libc-musl.a(__int_vsnprintf.o)
                              /opt/microchip/xc32/v4.21/bin/bin/../../lib/gcc/pic32mx/8.3.1/../../../../pic32mx/lib/fpu64/libc-musl.a(__int_vsprintf.o) (__vsnprintf)
/opt/microchip/xc32/v4.21/bin/bin/../../lib/gcc/pic32mx/8.3.1/../../../../pic32mx/lib/fpu64/libc-musl.a(__int_vfprintf.o)
                              /opt/microchip/xc32/v4.21/bin/bin/../../lib/gcc/pic32mx/8.3.1/../../../../pic32mx/lib/fpu64/libc-musl.a(__int_vsnprintf.o) (__vfprintf)
/opt/microchip/xc32/v4.21/bin/bin/../../lib/gcc/pic32mx/8.3.1/fpu64/libgcc.a(_udivdi3.o)
                              /opt/microchip/xc32/v4.21/bin/bin/../../lib/gcc/pic32mx/8.3.1/../../../../pic32mx/lib/fpu64/libc-musl.a(__fmt_u.o) (__udivdi3)
/opt/microchip/xc32/v4.21/bin/bin/../../lib/gcc/pic32mx/8.3.1/fpu64/libgcc.a(_umoddi3.o)
                              /opt/microchip/xc32/v4.21/bin/bin/../../lib/gcc/pic32mx/8.3.1/../../../../pic32mx/lib/fpu64/libc-musl.a(__fmt_u.o) (__umoddi3)
/opt/microchip/xc32/v4.21/bin/bin/../../lib/gcc/pic32mx/8.3.1/../../../../pic32mx/lib/fpu64/libpic32.a(errno.o)
                              /opt/microchip/xc32/v4.21/bin/bin/../../lib/gcc/pic32mx/8.3.1/../../../../pic32mx/lib/fpu64/libc-musl.a(__printf_core.o) (errno)

Allocating common symbols
Common symbol       size              file

uart5Obj            0x44              build/default/production/_ext/1865657120/plib_uart5.o
uart2Obj            0x34              build/default/production/_ext/1865657120/plib_uart2.o
txBuffer            0x32              build/default/production/_ext/1019397905/mainCubeMeteo.o
rxBuffer            0xa               build/default/production/_ext/1019397905/mainCubeMeteo.o

Microchip PIC32 Memory-Usage Report

kseg0 Program-Memory Usage
section                    address  length [bytes]      (dec)  Description
-------                 ----------  -------------------------  -----------
.simple_tlb_refill_excp 0x9d000000           0x10          16   
.text.__pop_ptr         0x9d000010           0xe4         228   
.rodata.str1.4          0x9d0000f4            0xc          12   
.cache_err_excpt        0x9d000100           0x10          16   
.text.internalAppendHex 0x9d000110           0x70         112   
.app_excpt              0x9d000180           0x10          16  General-Exception 
.text.printTimeTo7Seg   0x9d000190           0x6c         108   
.rodata.str1.4          0x9d0001fc            0x4           4   
.vectors                0x9d000200           0x98         152   
.dinit                  0x9d000298          0x5f0        1520   
.text.__printf_core     0x9d000888          0x580        1408   
.text.I2C1_MASTER_Inter 0x9d000e08          0x4b4        1204   
.text                   0x9d0012bc          0x800        2048  App's exec code 
.text                   0x9d001abc          0x3b8         952  App's exec code 
.text.mainCube          0x9d001e74          0x34c         844   
.text.appendDecf        0x9d0021c0          0x208         520   
.text.__fmt_x           0x9d0023c8          0x208         520   
.text.initMainCube      0x9d0025d0          0x1e8         488   
.text.TIMER_1_Handler   0x9d0027b8          0x1d0         464   
.text.TIMER_5_Handler   0x9d002988          0x1d0         464   
.text.I2C1_BUS_Handler  0x9d002b58          0x1d0         464   
.text.I2C1_MASTER_Handl 0x9d002d28          0x1d0         464   
.text.UART2_FAULT_Handl 0x9d002ef8          0x1d0         464   
.text.UART2_RX_Handler  0x9d0030c8          0x1d0         464   
.text.UART2_TX_Handler  0x9d003298          0x1d0         464   
.text.UART5_FAULT_Handl 0x9d003468          0x1d0         464   
.text.UART5_RX_Handler  0x9d003638          0x1d0         464   
.text.UART5_TX_Handler  0x9d003808          0x1d0         464   
.text.printFrequency    0x9d0039d8          0x1c4         452   
.text.__pop_int         0x9d003b9c          0x188         392   
.text.UART5_RX_Interrup 0x9d003d24          0x184         388   
.text.UART5_TX_Interrup 0x9d003ea8          0x184         388   
.text                   0x9d00402c          0x2d0         720  App's exec code 
.text.__fmt_d           0x9d0042fc          0x150         336   
.text.UART5_Write       0x9d00444c          0x140         320   
.text.frequencyCounter  0x9d00458c          0x13c         316   
.text.__cvt_u           0x9d0046c8          0x13c         316   
.text.appendDec         0x9d004804          0x120         288   
.text.GPIO_Initialize   0x9d004924          0x120         288   
.text._HCSR04_readDista 0x9d004a44          0x120         288   
.text.UART2_RX_Interrup 0x9d004b64          0x118         280   
.text.UART2_TX_Interrup 0x9d004c7c          0x10c         268   
.text.ADCHS_Initialize  0x9d004d88          0x104         260   
.rodata                 0x9d004e8c          0x100         256  Read-only const 
.text.strToTM1638Annode 0x9d004f8c          0x100         256   
.text.__pad             0x9d00508c          0x100         256   
.text.__fmt_o           0x9d00518c           0xf4         244   
.text.init7SegOutputStr 0x9d005280           0xdc         220   
.text.UART5_Initialize  0x9d00535c           0xdc         220   
.text.general_exception 0x9d005438           0xdc         220   
.text._cache_err_except 0x9d005514           0xd8         216   
.text.simple_tlb_refill 0x9d0055ec           0xd8         216   
.text.sendCommandTM1638 0x9d0056c4           0xd4         212   
.text.printClock        0x9d005798           0xc4         196   
.text.SYS_Initialize    0x9d00585c           0xc0         192   
.text.UART5_FAULT_Inter 0x9d00591c           0xbc         188   
.tlb.__pic32_tlb_init_e 0x9d0059d8           0xbc         188   
.text.__fmt_u           0x9d005a94           0xbc         188   
.text.UART5_Read        0x9d005b50           0xb8         184   
.text.sendDataTM1638    0x9d005c08           0xb8         184   
.rodata.str1.4          0x9d005cc0           0xa8         168   
.text._readPcf8563Clock 0x9d005d68           0xa4         164   
.text.__fmt_s           0x9d005e0c           0xa4         164   
.text.initLed           0x9d005eb0           0x98         152   
.text.print7Seg         0x9d005f48           0x94         148   
.text.CLK_Initialize    0x9d005fdc           0x94         148   
.text.I2C1_WriteRead    0x9d006070           0x88         136   
.text.UART2_Initialize  0x9d0060f8           0x88         136   
.text.I2C1_Write        0x9d006180           0x84         132   
.text._writePcf8563Cloc 0x9d006204           0x80         128   
.rodata                 0x9d006284           0x80         128  Read-only const 
.text.dinit.startup     0x9d006304           0x80         128   
.text.__vsnprintf       0x9d006384           0x80         128   
.text.atoi              0x9d006404           0x7c         124   
.text.EVIC_Initialize   0x9d006480           0x78         120   
.text._LM75A_readSensor 0x9d0064f8           0x78         120   
.text.NZR0              0x9d006570           0x78         120   
.text.NZR1              0x9d0065e8           0x78         120   
.text.UART2_ErrorClear  0x9d006660           0x74         116   
.text.GRBcolor          0x9d0066d4           0x68         104   
.text.initSerialOutputS 0x9d00673c           0x64         100   
.text.I2C1_Initialize   0x9d0067a0           0x64         100   
.text.UART2_FAULT_Inter 0x9d006804           0x64         100   
.text.init7SegOutputStr 0x9d006868           0x60          96   
.text.I2C1_BUS_Interrup 0x9d0068c8           0x60          96   
.text.readSensorValueAs 0x9d006928           0x5c          92   
.text.__string_out      0x9d006984           0x5c          92   
.text.__fmt_state       0x9d0069e0           0x58          88   
.text.main_entry        0x9d006a38           0x54          84   
.text._openOutputStream 0x9d006a8c           0x50          80   
.text.usartReadEventHan 0x9d006adc           0x50          80   
.text.I2C1_IsBusy       0x9d006b2c           0x50          80   
.text._LM75A_writeAlert 0x9d006b7c           0x50          80   
.text.SAA1064Twrite4DIG 0x9d006bcc           0x50          80   
.text.appendStringLN    0x9d006c1c           0x4c          76   
.text.initSerialOutputS 0x9d006c68           0x48          72   
.text.__pop_float       0x9d006cb0           0x48          72   
.text.appendStringAndDe 0x9d006cf8           0x44          68   
.text.readSensorValueAs 0x9d006d3c           0x44          68   
.text.TMR4_Initialize   0x9d006d80           0x44          68   
.text._WS2812b_write    0x9d006dc4           0x44          68   
.text                   0x9d006e08           0x44          68  App's exec code 
.text.appendHex         0x9d006e4c           0x40          64   
.text.TIMER_5_Interrupt 0x9d006e8c           0x40          64   
.text.TMR1_Initialize   0x9d006ecc           0x40          64   
.text.TIMER_1_Interrupt 0x9d006f0c           0x40          64   
.text._write7SegStreamC 0x9d006f4c           0x3c          60   
.text.initClockStream   0x9d006f88           0x3c          60   
.text.appendString      0x9d006fc4           0x3c          60   
.text.appendStringAndDe 0x9d007000           0x3c          60   
.text.initTemperatureSt 0x9d00703c           0x3c          60   
.text.CORETIMER_Initial 0x9d007078           0x3c          60   
.text.CORETIMER_DelayUs 0x9d0070b4           0x3c          60   
.text.__vfprintf        0x9d0070f0           0x3c          60   
.text.appendCRLF        0x9d00712c           0x38          56   
.text.TMR2_Initialize   0x9d007164           0x38          56   
.text.writeString5      0x9d00719c           0x34          52   
.text.UART5_WritePendin 0x9d0071d0           0x34          52   
.text.UART5_ReadCountGe 0x9d007204           0x34          52   
.text.append            0x9d007238           0x30          48   
.text.convertToHex      0x9d007268           0x30          48   
.text.initDistanceStrea 0x9d007298           0x30          48   
.text.ADCHS_ChannelResu 0x9d0072c8           0x30          48   
.text.UART5_WriteFreeBu 0x9d0072f8           0x30          48   
.text.initTemperatureLM 0x9d007328           0x30          48   
.text.initClockPCF8563  0x9d007358           0x30          48   
.text._write7SegStreamS 0x9d007388           0x2c          44   
.text.getTemperatureSen 0x9d0073b4           0x2c          44   
.text.initTmr1          0x9d0073e0           0x2c          44   
.text.writeUart5        0x9d00740c           0x2c          44   
.text._openOutputStream 0x9d007438           0x28          40   
.text._closeOutputStrea 0x9d007460           0x28          40   
.text._write7SegStreamC 0x9d007488           0x28          40   
.text._write7SegStreamS 0x9d0074b0           0x28          40   
.text.writeChar5        0x9d0074d8           0x28          40   
.text.ADCHS_ChannelConv 0x9d007500           0x28          40   
.text.ICAP1_Initialize  0x9d007528           0x28          40   
.text.ICAP2_Initialize  0x9d007550           0x28          40   
.text.OCMP3_Initialize  0x9d007578           0x28          40   
.text.initRGBWS2812b    0x9d0075a0           0x28          40   
.text.main              0x9d0075c8           0x28          40   
.text.__wrap_sprintf    0x9d0075f0           0x28          40   
.text.__vsprintf        0x9d007618           0x28          40   
.rodata.str1.4          0x9d007640           0x24          36   
.text.initDistanceHCSR0 0x9d007664           0x24          36   
.text.memset            0x9d007688           0x24          36   
.text.initRGBStream     0x9d0076ac           0x20          32   
.text.dinit.startup     0x9d0076cc           0x20          32   
.text.getClockStream    0x9d0076ec           0x1c          28   
.text.delayMicroSecs    0x9d007708           0x1c          28   
.text.appendSpace       0x9d007724           0x1c          28   
.text.println           0x9d007740           0x1c          28   
.text.appendHex2        0x9d00775c           0x1c          28   
.text.getDistanceStream 0x9d007778           0x1c          28   
.text.getTemperatureStr 0x9d007794           0x1c          28   
.rodata.str1.4          0x9d0077b0           0x1c          28   
.text.I2C1_CallbackRegi 0x9d0077cc           0x1c          28   
.text.UART5_WriteCountG 0x9d0077e8           0x1c          28   
.text.initSAA1064T      0x9d007804           0x1c          28   
.text.initTM1638        0x9d007820           0x1c          28   
.text.tolower           0x9d00783c           0x1c          28   
.text.toupper           0x9d007858           0x1c          28   
.MIPS.abiflags          0x9d007878           0x18          24   
.rodata.str1.4          0x9d007890           0x18          24   
.text.initDisplayStream 0x9d0078a8           0x18          24   
.rodata.cst4            0x9d0078c0           0x18          24   
.text.initFrequencyCoun 0x9d0078d8           0x18          24   
.text.ADCHS_ChannelResu 0x9d0078f0           0x18          24   
.text._general_exceptio 0x9d007908           0x18          24   
.text._bootstrap_except 0x9d007920           0x18          24   
.text._cache_err_except 0x9d007938           0x18          24   
.text._simple_tlb_refil 0x9d007950           0x18          24   
.rodata.cst4            0x9d007968           0x18          24   
.text                   0x9d007980           0x18          24  App's exec code 
.rodata                 0x9d007998           0x18          24  Read-only const 
.text.get7SegOutpuStrea 0x9d0079b0           0x14          20   
.text.getDisplayStream  0x9d0079c4           0x14          20   
.text.led2GreenToggle   0x9d0079d8           0x14          20   
.text.getRGBStream      0x9d0079ec           0x14          20   
.text.getFrequencyCount 0x9d007a00           0x14          20   
.text.getSerialOutputSt 0x9d007a14           0x14          20   
.text.ICAP1_Enable      0x9d007a28           0x14          20   
.text.ICAP2_Enable      0x9d007a3c           0x14          20   
.text.OCMP3_Enable      0x9d007a50           0x14          20   
.text.TMR2_Start        0x9d007a64           0x14          20   
.text.TMR4_Start        0x9d007a78           0x14          20   
.text.TMR1_Start        0x9d007a8c           0x14          20   
.text.TMR1_InterruptEna 0x9d007aa0           0x14          20   
.text.TMR1_InterruptDis 0x9d007ab4           0x14          20   
.text.UART5_ReadCallbac 0x9d007ac8           0x14          20   
.text.UART5_WriteCallba 0x9d007adc           0x14          20   
.text.tmr1EventHandler  0x9d007af0           0x10          16   
.text.usartWriteEventHa 0x9d007b00           0x10          16   
.text.ICAP1_CaptureBuff 0x9d007b10           0x10          16   
.text.ICAP1_CaptureStat 0x9d007b20           0x10          16   
.text.ICAP2_CaptureBuff 0x9d007b30           0x10          16   
.text.ICAP2_CaptureStat 0x9d007b40           0x10          16   
.text.TMR1_CallbackRegi 0x9d007b50           0x10          16   
.text.getIsTmr1Expired  0x9d007b60            0xc          12   
.text.setIsTmr1Expired  0x9d007b6c            0xc          12   
.text.MyI2CCallback     0x9d007b78            0x8           8   
.text._flush7Seg        0x9d007b80            0x8           8   
.text.setPower          0x9d007b88            0x8           8   
.text.setPosX           0x9d007b90            0x8           8   
.text.setIntensity      0x9d007b98            0x8           8   
.text.initBuffer        0x9d007ba0            0x8           8   
.text.appendDot         0x9d007ba8            0x8           8   
.text.flushSerial       0x9d007bb0            0x8           8   
.text.openOutputStreamS 0x9d007bb8            0x8           8   
.text.closeOutputStream 0x9d007bc0            0x8           8   
.text.setBoardName      0x9d007bc8            0x8           8   
.text.getBoardName      0x9d007bd0            0x8           8   
.text.setBoardVersion   0x9d007bd8            0x8           8   
.text.getBoardVersion   0x9d007be0            0x8           8   
.text.initCubeCommon    0x9d007be8            0x8           8   
.text._on_reset         0x9d007bf0            0x8           8   
.text._on_bootstrap     0x9d007bf8            0x8           8   
.text.__dummy_fmt4      0x9d007c00            0x8           8   
.rodata.str1.4          0x9d007c08            0x8           8   
      Total kseg0_program_mem used  :      0x7c0c       31756  1.5% of 0x200000

kseg0 Boot-Memory Usage
section                    address  length [bytes]      (dec)  Description
-------                 ----------  -------------------------  -----------
         Total kseg0_boot_mem used  :           0           0  

kseg1 Boot-Memory Usage
section                    address  length [bytes]      (dec)  Description
-------                 ----------  -------------------------  -----------
.reset                  0xbfc00000          0x1c4         452  Reset handler 
.bev_excpt              0xbfc00380           0x10          16  BEV-Exception 
         Total kseg1_boot_mem used  :       0x1d4         468  40.6% of 0x480
        --------------------------------------------------------------------------
         Total Program Memory used  :      0x7de0       32224  1.5% of 0x200480
        --------------------------------------------------------------------------


Data-Memory Usage
section                    address  length [bytes]      (dec)  Description
-------                 ----------  -------------------------  -----------
.sdata                  0x80000000           0x2c          44  Small init data 
.sbss                   0x8000002c           0x60          96  Small uninit data 
.bss                    0x8000008c           0x78         120  Uninitialized data 
.bss                    0x80000104          0xe60        3680  Uninitialized data 
.bss                    0x80000f64          0x370         880  Uninitialized data 
.bss                    0x800012d4          0x320         800  Uninitialized data 
.bss                    0x800015f4          0x2b0         688  Uninitialized data 
.bss                    0x800018a4          0x150         336  Uninitialized data 
.bss                    0x800019f4           0x54          84  Uninitialized data 
.bss                    0x80001a48           0x1d          29  Uninitialized data 
.bss.errno              0x80001a68            0x4           4   
         Total kseg0/kseg1 data_mem used  :      0x1a69        6761  1.3% of 0x80000
        --------------------------------------------------------------------------
            Total Data Memory used  :      0x1a69        6761  1.3% of 0x80000
        --------------------------------------------------------------------------


Dynamic Data-Memory Reservation
section                    address  length [bytes]      (dec)  Description
-------                 ----------  -------------------------  -----------
heap                    0x80001a70          0x200         512  Reserved for heap 
stack                   0x80001c88        0x7e368      516968  Reserved for stack 

        --------------------------------------------------------------------------

Discarded input sections

 .text          0x0000000000000000        0x0 /opt/microchip/xc32/v4.21/bin/bin/../../lib/gcc/pic32mx/8.3.1/../../../../pic32mx/lib/fpu64/debug-exception-return.o
 .data          0x0000000000000000        0x0 /opt/microchip/xc32/v4.21/bin/bin/../../lib/gcc/pic32mx/8.3.1/../../../../pic32mx/lib/fpu64/debug-exception-return.o
 .bss           0x0000000000000000        0x0 /opt/microchip/xc32/v4.21/bin/bin/../../lib/gcc/pic32mx/8.3.1/../../../../pic32mx/lib/fpu64/debug-exception-return.o
 .xc_stack_usage.hdr
                0x0000000000000000        0xe /opt/microchip/xc32/v4.21/bin/bin/../../lib/gcc/pic32mx/8.3.1/../../../../pic32mx/lib/fpu64/debug-exception-return.o
 .xc_stack_usage
                0x0000000000000000       0x1d /opt/microchip/xc32/v4.21/bin/bin/../../lib/gcc/pic32mx/8.3.1/../../../../pic32mx/lib/fpu64/debug-exception-return.o
 .text          0x0000000000000000        0x0 build/default/production/_ext/1571292264/7segments.o
 .data          0x0000000000000000        0x0 build/default/production/_ext/1571292264/7segments.o
 .bss           0x0000000000000000        0x0 build/default/production/_ext/1571292264/7segments.o
 .reginfo       0x0000000000000000       0x18 build/default/production/_ext/1571292264/7segments.o
 .MIPS.abiflags
                0x0000000000000000       0x18 build/default/production/_ext/1571292264/7segments.o
 .text          0x0000000000000000        0x0 build/default/production/_ext/1571292264/7segmentsOutputStream.o
 .data          0x0000000000000000        0x0 build/default/production/_ext/1571292264/7segmentsOutputStream.o
 .reginfo       0x0000000000000000       0x18 build/default/production/_ext/1571292264/7segmentsOutputStream.o
 .MIPS.abiflags
                0x0000000000000000       0x18 build/default/production/_ext/1571292264/7segmentsOutputStream.o
 .text.init7SegOutputStreamSAA1064T
                0x0000000000000000       0x48 build/default/production/_ext/1571292264/7segmentsOutputStream.o
 .text          0x0000000000000000        0x0 build/default/production/_ext/1505855908/clock.o
 .data          0x0000000000000000        0x0 build/default/production/_ext/1505855908/clock.o
 .bss           0x0000000000000000        0x0 build/default/production/_ext/1505855908/clock.o
 .reginfo       0x0000000000000000       0x18 build/default/production/_ext/1505855908/clock.o
 .MIPS.abiflags
                0x0000000000000000       0x18 build/default/production/_ext/1505855908/clock.o
 .text.printClockAlarm
                0x0000000000000000       0xc4 build/default/production/_ext/1505855908/clock.o
 .text.setClock
                0x0000000000000000       0x58 build/default/production/_ext/1505855908/clock.o
 .text.setClockAlarm
                0x0000000000000000       0x58 build/default/production/_ext/1505855908/clock.o
 .text.isClockInitialized
                0x0000000000000000       0x1c build/default/production/_ext/1505855908/clock.o
 .text          0x0000000000000000        0x0 build/default/production/_ext/1505855908/clockStream.o
 .data          0x0000000000000000        0x0 build/default/production/_ext/1505855908/clockStream.o
 .reginfo       0x0000000000000000       0x18 build/default/production/_ext/1505855908/clockStream.o
 .MIPS.abiflags
                0x0000000000000000       0x18 build/default/production/_ext/1505855908/clockStream.o
 .text          0x0000000000000000        0x0 build/default/production/_ext/1506567961/delay.o
 .data          0x0000000000000000        0x0 build/default/production/_ext/1506567961/delay.o
 .bss           0x0000000000000000        0x0 build/default/production/_ext/1506567961/delay.o
 .reginfo       0x0000000000000000       0x18 build/default/production/_ext/1506567961/delay.o
 .MIPS.abiflags
                0x0000000000000000       0x18 build/default/production/_ext/1506567961/delay.o
 .text.delayMilliSecs
                0x0000000000000000       0x1c build/default/production/_ext/1506567961/delay.o
 .text          0x0000000000000000        0x0 build/default/production/_ext/529250520/displayUtils.o
 .data          0x0000000000000000        0x0 build/default/production/_ext/529250520/displayUtils.o
 .reginfo       0x0000000000000000       0x18 build/default/production/_ext/529250520/displayUtils.o
 .MIPS.abiflags
                0x0000000000000000       0x18 build/default/production/_ext/529250520/displayUtils.o
 .text.getPosX  0x0000000000000000        0x8 build/default/production/_ext/529250520/displayUtils.o
 .text.setPosY  0x0000000000000000        0x8 build/default/production/_ext/529250520/displayUtils.o
 .text.getPosY  0x0000000000000000        0x8 build/default/production/_ext/529250520/displayUtils.o
 .text.initDisplayUtils
                0x0000000000000000        0x8 build/default/production/_ext/529250520/displayUtils.o
 .text          0x0000000000000000        0x0 build/default/production/_ext/529250520/displayStream.o
 .data          0x0000000000000000        0x0 build/default/production/_ext/529250520/displayStream.o
 .bss           0x0000000000000000        0x0 build/default/production/_ext/529250520/displayStream.o
 .reginfo       0x0000000000000000       0x18 build/default/production/_ext/529250520/displayStream.o
 .MIPS.abiflags
                0x0000000000000000       0x18 build/default/production/_ext/529250520/displayStream.o
 .text.initDisplayStream
                0x0000000000000000       0x20 build/default/production/_ext/529250520/displayStream.o
 .text          0x0000000000000000        0x0 build/default/production/_ext/1507884958/error.o
 .data          0x0000000000000000        0x0 build/default/production/_ext/1507884958/error.o
 .bss           0x0000000000000000        0x0 build/default/production/_ext/1507884958/error.o
 .reginfo       0x0000000000000000       0x18 build/default/production/_ext/1507884958/error.o
 .MIPS.abiflags
                0x0000000000000000       0x18 build/default/production/_ext/1507884958/error.o
 .text          0x0000000000000000        0x0 build/default/production/_ext/383772639/buffer.o
 .data          0x0000000000000000        0x0 build/default/production/_ext/383772639/buffer.o
 .bss           0x0000000000000000        0x0 build/default/production/_ext/383772639/buffer.o
 .reginfo       0x0000000000000000       0x18 build/default/production/_ext/383772639/buffer.o
 .MIPS.abiflags
                0x0000000000000000       0x18 build/default/production/_ext/383772639/buffer.o
 .text.writeStringToBuffer
                0x0000000000000000       0x60 build/default/production/_ext/383772639/buffer.o
 .text.writeCharToBuffer
                0x0000000000000000       0x18 build/default/production/_ext/383772639/buffer.o
 .text.readStringFromBuffer
                0x0000000000000000        0x8 build/default/production/_ext/383772639/buffer.o
 .text.readCharFromBuffer
                0x0000000000000000        0x8 build/default/production/_ext/383772639/buffer.o
 .text.flushBuffer
                0x0000000000000000        0x8 build/default/production/_ext/383772639/buffer.o
 .text          0x0000000000000000        0x0 build/default/production/_ext/242462784/outputStream.o
 .data          0x0000000000000000        0x0 build/default/production/_ext/242462784/outputStream.o
 .bss           0x0000000000000000        0x0 build/default/production/_ext/242462784/outputStream.o
 .reginfo       0x0000000000000000       0x18 build/default/production/_ext/242462784/outputStream.o
 .MIPS.abiflags
                0x0000000000000000       0x18 build/default/production/_ext/242462784/outputStream.o
 .text.initOutputStream
                0x0000000000000000       0x28 build/default/production/_ext/242462784/outputStream.o
 .text          0x0000000000000000        0x0 build/default/production/_ext/1038083393/printWriter.o
 .data          0x0000000000000000        0x0 build/default/production/_ext/1038083393/printWriter.o
 .bss           0x0000000000000000        0x0 build/default/production/_ext/1038083393/printWriter.o
 .reginfo       0x0000000000000000       0x18 build/default/production/_ext/1038083393/printWriter.o
 .MIPS.abiflags
                0x0000000000000000       0x18 build/default/production/_ext/1038083393/printWriter.o
 .text.appendBool
                0x0000000000000000       0x34 build/default/production/_ext/1038083393/printWriter.o
 .text.appendSeparator
                0x0000000000000000       0x1c build/default/production/_ext/1038083393/printWriter.o
 .text.appendBoolAsString
                0x0000000000000000       0x38 build/default/production/_ext/1038083393/printWriter.o
 .text.appendCR
                0x0000000000000000       0x20 build/default/production/_ext/1038083393/printWriter.o
 .text.appendLF
                0x0000000000000000       0x20 build/default/production/_ext/1038083393/printWriter.o
 .text.appendDecUnsigned
                0x0000000000000000       0xe8 build/default/production/_ext/1038083393/printWriter.o
 .text.appendStringAndDecUnsignedLN
                0x0000000000000000       0x44 build/default/production/_ext/1038083393/printWriter.o
 .text.appendDec4AsString
                0x0000000000000000       0x4c build/default/production/_ext/1038083393/printWriter.o
 .text.appendSignedHex2
                0x0000000000000000       0x1c build/default/production/_ext/1038083393/printWriter.o
 .text.appendHex3
                0x0000000000000000       0x1c build/default/production/_ext/1038083393/printWriter.o
 .text.appendHex4
                0x0000000000000000       0x1c build/default/production/_ext/1038083393/printWriter.o
 .text.appendHex5
                0x0000000000000000       0x1c build/default/production/_ext/1038083393/printWriter.o
 .text.appendHex6
                0x0000000000000000       0x1c build/default/production/_ext/1038083393/printWriter.o
 .text.appendHex8
                0x0000000000000000       0x1c build/default/production/_ext/1038083393/printWriter.o
 .text.appendHexFloat2
                0x0000000000000000       0x6c build/default/production/_ext/1038083393/printWriter.o
 .text.appendHexFloat4
                0x0000000000000000       0x40 build/default/production/_ext/1038083393/printWriter.o
 .text.appendHexFloat6
                0x0000000000000000       0x40 build/default/production/_ext/1038083393/printWriter.o
 .text.appendHexFloat8
                0x0000000000000000       0x40 build/default/production/_ext/1038083393/printWriter.o
 .text.appendStringAndDec
                0x0000000000000000       0x3c build/default/production/_ext/1038083393/printWriter.o
 .text.appendStringAndHex2
                0x0000000000000000       0x3c build/default/production/_ext/1038083393/printWriter.o
 .text.appendStringAndHex2LN
                0x0000000000000000       0x44 build/default/production/_ext/1038083393/printWriter.o
 .text.appendStringAndBool
                0x0000000000000000       0x3c build/default/production/_ext/1038083393/printWriter.o
 .text.appendKeyAndName
                0x0000000000000000       0x3c build/default/production/_ext/1038083393/printWriter.o
 .text          0x0000000000000000        0x0 build/default/production/_ext/919093983/led.o
 .data          0x0000000000000000        0x0 build/default/production/_ext/919093983/led.o
 .bss           0x0000000000000000        0x0 build/default/production/_ext/919093983/led.o
 .reginfo       0x0000000000000000       0x18 build/default/production/_ext/919093983/led.o
 .MIPS.abiflags
                0x0000000000000000       0x18 build/default/production/_ext/919093983/led.o
 .text.led1RedStatus
                0x0000000000000000       0x14 build/default/production/_ext/919093983/led.o
 .text.led1RedOn
                0x0000000000000000       0x14 build/default/production/_ext/919093983/led.o
 .text.led1RedOff
                0x0000000000000000       0x14 build/default/production/_ext/919093983/led.o
 .text.led1RedToggle
                0x0000000000000000       0x14 build/default/production/_ext/919093983/led.o
 .text.led1GreenStatus
                0x0000000000000000       0x14 build/default/production/_ext/919093983/led.o
 .text.led1GreenOn
                0x0000000000000000       0x14 build/default/production/_ext/919093983/led.o
 .text.led1GreenOff
                0x0000000000000000       0x14 build/default/production/_ext/919093983/led.o
 .text.led1GreenToggle
                0x0000000000000000       0x14 build/default/production/_ext/919093983/led.o
 .text.led2RedStatus
                0x0000000000000000       0x14 build/default/production/_ext/919093983/led.o
 .text.led2RedOn
                0x0000000000000000       0x14 build/default/production/_ext/919093983/led.o
 .text.led2RedOff
                0x0000000000000000       0x14 build/default/production/_ext/919093983/led.o
 .text.led2RedToggle
                0x0000000000000000       0x14 build/default/production/_ext/919093983/led.o
 .text.led2GreenStatus
                0x0000000000000000       0x14 build/default/production/_ext/919093983/led.o
 .text.led2GreenOn
                0x0000000000000000       0x14 build/default/production/_ext/919093983/led.o
 .text.led2GreenOff
                0x0000000000000000       0x14 build/default/production/_ext/919093983/led.o
 .text          0x0000000000000000        0x0 build/default/production/_ext/919119933/RGB.o
 .data          0x0000000000000000        0x0 build/default/production/_ext/919119933/RGB.o
 .bss           0x0000000000000000        0x0 build/default/production/_ext/919119933/RGB.o
 .reginfo       0x0000000000000000       0x18 build/default/production/_ext/919119933/RGB.o
 .MIPS.abiflags
                0x0000000000000000       0x18 build/default/production/_ext/919119933/RGB.o
 .text.setColorRGB
                0x0000000000000000       0x20 build/default/production/_ext/919119933/RGB.o
 .text.RainRGB  0x0000000000000000      0x1bc build/default/production/_ext/919119933/RGB.o
 .text.valueToRGB
                0x0000000000000000      0x288 build/default/production/_ext/919119933/RGB.o
 .text          0x0000000000000000        0x0 build/default/production/_ext/919119933/RGBStream.o
 .data          0x0000000000000000        0x0 build/default/production/_ext/919119933/RGBStream.o
 .reginfo       0x0000000000000000       0x18 build/default/production/_ext/919119933/RGBStream.o
 .MIPS.abiflags
                0x0000000000000000       0x18 build/default/production/_ext/919119933/RGBStream.o
 .text          0x0000000000000000        0x0 build/default/production/_ext/99833024/distance.o
 .data          0x0000000000000000        0x0 build/default/production/_ext/99833024/distance.o
 .bss           0x0000000000000000        0x0 build/default/production/_ext/99833024/distance.o
 .reginfo       0x0000000000000000       0x18 build/default/production/_ext/99833024/distance.o
 .MIPS.abiflags
                0x0000000000000000       0x18 build/default/production/_ext/99833024/distance.o
 .text.mesure_time
                0x0000000000000000       0x20 build/default/production/_ext/99833024/distance.o
 .text          0x0000000000000000        0x0 build/default/production/_ext/99833024/distanceStream.o
 .data          0x0000000000000000        0x0 build/default/production/_ext/99833024/distanceStream.o
 .reginfo       0x0000000000000000       0x18 build/default/production/_ext/99833024/distanceStream.o
 .MIPS.abiflags
                0x0000000000000000       0x18 build/default/production/_ext/99833024/distanceStream.o
 .text.getDistanceSensor
                0x0000000000000000       0x34 build/default/production/_ext/99833024/distanceStream.o
 .text          0x0000000000000000        0x0 build/default/production/_ext/991344331/frequencyCounterStream.o
 .data          0x0000000000000000        0x0 build/default/production/_ext/991344331/frequencyCounterStream.o
 .bss           0x0000000000000000        0x0 build/default/production/_ext/991344331/frequencyCounterStream.o
 .reginfo       0x0000000000000000       0x18 build/default/production/_ext/991344331/frequencyCounterStream.o
 .MIPS.abiflags
                0x0000000000000000       0x18 build/default/production/_ext/991344331/frequencyCounterStream.o
 .text.initFrequencyCounterStream
                0x0000000000000000       0x20 build/default/production/_ext/991344331/frequencyCounterStream.o
 .text          0x0000000000000000        0x0 build/default/production/_ext/991344331/frequencyCounterUtils.o
 .data          0x0000000000000000        0x0 build/default/production/_ext/991344331/frequencyCounterUtils.o
 .reginfo       0x0000000000000000       0x18 build/default/production/_ext/991344331/frequencyCounterUtils.o
 .MIPS.abiflags
                0x0000000000000000       0x18 build/default/production/_ext/991344331/frequencyCounterUtils.o
 .text.initFrequencyCounterUtils
                0x0000000000000000        0x8 build/default/production/_ext/991344331/frequencyCounterUtils.o
 .text          0x0000000000000000        0x0 build/default/production/_ext/991344331/frequencyCounter.o
 .data          0x0000000000000000        0x0 build/default/production/_ext/991344331/frequencyCounter.o
 .bss           0x0000000000000000        0x0 build/default/production/_ext/991344331/frequencyCounter.o
 .reginfo       0x0000000000000000       0x18 build/default/production/_ext/991344331/frequencyCounter.o
 .MIPS.abiflags
                0x0000000000000000       0x18 build/default/production/_ext/991344331/frequencyCounter.o
 .text.initFrequencyCounterLocal
                0x0000000000000000        0x8 build/default/production/_ext/991344331/frequencyCounter.o
 .text          0x0000000000000000        0x0 build/default/production/_ext/1240316727/temperatureStream.o
 .data          0x0000000000000000        0x0 build/default/production/_ext/1240316727/temperatureStream.o
 .reginfo       0x0000000000000000       0x18 build/default/production/_ext/1240316727/temperatureStream.o
 .MIPS.abiflags
                0x0000000000000000       0x18 build/default/production/_ext/1240316727/temperatureStream.o
 .text          0x0000000000000000        0x0 build/default/production/_ext/1240316727/temperature.o
 .data          0x0000000000000000        0x0 build/default/production/_ext/1240316727/temperature.o
 .bss           0x0000000000000000        0x0 build/default/production/_ext/1240316727/temperature.o
 .reginfo       0x0000000000000000       0x18 build/default/production/_ext/1240316727/temperature.o
 .MIPS.abiflags
                0x0000000000000000       0x18 build/default/production/_ext/1240316727/temperature.o
 .text          0x0000000000000000        0x0 build/default/production/_ext/111410402/serialOutpuStream.o
 .data          0x0000000000000000        0x0 build/default/production/_ext/111410402/serialOutpuStream.o
 .reginfo       0x0000000000000000       0x18 build/default/production/_ext/111410402/serialOutpuStream.o
 .MIPS.abiflags
                0x0000000000000000       0x18 build/default/production/_ext/111410402/serialOutpuStream.o
 .text          0x0000000000000000        0x0 build/default/production/_ext/111410402/serial.o
 .data          0x0000000000000000        0x0 build/default/production/_ext/111410402/serial.o
 .bss           0x0000000000000000        0x0 build/default/production/_ext/111410402/serial.o
 .reginfo       0x0000000000000000       0x18 build/default/production/_ext/111410402/serial.o
 .MIPS.abiflags
                0x0000000000000000       0x18 build/default/production/_ext/111410402/serial.o
 .text          0x0000000000000000        0x0 build/default/production/_ext/92899495/system.o
 .data          0x0000000000000000        0x0 build/default/production/_ext/92899495/system.o
 .bss           0x0000000000000000        0x0 build/default/production/_ext/92899495/system.o
 .reginfo       0x0000000000000000       0x18 build/default/production/_ext/92899495/system.o
 .MIPS.abiflags
                0x0000000000000000       0x18 build/default/production/_ext/92899495/system.o
 .text          0x0000000000000000        0x0 build/default/production/_ext/79239498/timer1.o
 .data          0x0000000000000000        0x0 build/default/production/_ext/79239498/timer1.o
 .bss           0x0000000000000000        0x0 build/default/production/_ext/79239498/timer1.o
 .reginfo       0x0000000000000000       0x18 build/default/production/_ext/79239498/timer1.o
 .MIPS.abiflags
                0x0000000000000000       0x18 build/default/production/_ext/79239498/timer1.o
 .text          0x0000000000000000        0x0 build/default/production/_ext/1522154941/uart5.o
 .data          0x0000000000000000        0x0 build/default/production/_ext/1522154941/uart5.o
 .reginfo       0x0000000000000000       0x18 build/default/production/_ext/1522154941/uart5.o
 .MIPS.abiflags
                0x0000000000000000       0x18 build/default/production/_ext/1522154941/uart5.o
 .text.APP_WriteCallbackUart5
                0x0000000000000000        0xc build/default/production/_ext/1522154941/uart5.o
 .text.APP_ReadCallbackUart5
                0x0000000000000000       0x38 build/default/production/_ext/1522154941/uart5.o
 .text.getTxBuffer
                0x0000000000000000        0xc build/default/production/_ext/1522154941/uart5.o
 .text.getErrorStatusUart5
                0x0000000000000000        0x8 build/default/production/_ext/1522154941/uart5.o
 .text.setErrorStatusUart5
                0x0000000000000000        0x8 build/default/production/_ext/1522154941/uart5.o
 .text.getWriteStatusUart5
                0x0000000000000000        0x8 build/default/production/_ext/1522154941/uart5.o
 .text.setWriteStatusUart5
                0x0000000000000000        0x8 build/default/production/_ext/1522154941/uart5.o
 .text.getReadStatusUart5
                0x0000000000000000        0x8 build/default/production/_ext/1522154941/uart5.o
 .text.setReadStatusUart5
                0x0000000000000000        0x8 build/default/production/_ext/1522154941/uart5.o
 .text.getTxThresholdEventReceived
                0x0000000000000000        0xc build/default/production/_ext/1522154941/uart5.o
 .text.setTxThresholdEventReceived
                0x0000000000000000        0xc build/default/production/_ext/1522154941/uart5.o
 .text.writeUart5_WriteCountGet
                0x0000000000000000       0x1c build/default/production/_ext/1522154941/uart5.o
 .text          0x0000000000000000        0x0 build/default/production/_ext/1982400153/plib_adchs.o
 .data          0x0000000000000000        0x0 build/default/production/_ext/1982400153/plib_adchs.o
 .bss           0x0000000000000000        0x0 build/default/production/_ext/1982400153/plib_adchs.o
 .reginfo       0x0000000000000000       0x18 build/default/production/_ext/1982400153/plib_adchs.o
 .MIPS.abiflags
                0x0000000000000000       0x18 build/default/production/_ext/1982400153/plib_adchs.o
 .text.ADCHS_ModulesEnable
                0x0000000000000000       0x1c build/default/production/_ext/1982400153/plib_adchs.o
 .text.ADCHS_ModulesDisable
                0x0000000000000000       0x20 build/default/production/_ext/1982400153/plib_adchs.o
 .text.ADCHS_ChannelResultInterruptEnable
                0x0000000000000000       0x48 build/default/production/_ext/1982400153/plib_adchs.o
 .text.ADCHS_ChannelResultInterruptDisable
                0x0000000000000000       0x50 build/default/production/_ext/1982400153/plib_adchs.o
 .text.ADCHS_ChannelEarlyInterruptEnable
                0x0000000000000000       0x48 build/default/production/_ext/1982400153/plib_adchs.o
 .text.ADCHS_ChannelEarlyInterruptDisable
                0x0000000000000000       0x50 build/default/production/_ext/1982400153/plib_adchs.o
 .text.ADCHS_GlobalEdgeConversionStart
                0x0000000000000000       0x1c build/default/production/_ext/1982400153/plib_adchs.o
 .text.ADCHS_GlobalLevelConversionStart
                0x0000000000000000       0x1c build/default/production/_ext/1982400153/plib_adchs.o
 .text.ADCHS_GlobalLevelConversionStop
                0x0000000000000000       0x18 build/default/production/_ext/1982400153/plib_adchs.o
 .text.ADCHS_EOSStatusGet
                0x0000000000000000       0x10 build/default/production/_ext/1982400153/plib_adchs.o
 .text          0x0000000000000000        0x0 build/default/production/_ext/1984157808/plib_cache.o
 .data          0x0000000000000000        0x0 build/default/production/_ext/1984157808/plib_cache.o
 .bss           0x0000000000000000        0x0 build/default/production/_ext/1984157808/plib_cache.o
 .reginfo       0x0000000000000000       0x18 build/default/production/_ext/1984157808/plib_cache.o
 .MIPS.abiflags
                0x0000000000000000       0x18 build/default/production/_ext/1984157808/plib_cache.o
 .text.CACHE_CacheInit
                0x0000000000000000       0x24 build/default/production/_ext/1984157808/plib_cache.o
 .text.CACHE_CacheFlush
                0x0000000000000000       0x24 build/default/production/_ext/1984157808/plib_cache.o
 .text.CACHE_DataCacheFlush
                0x0000000000000000       0x24 build/default/production/_ext/1984157808/plib_cache.o
 .text.CACHE_InstructionCacheFlush
                0x0000000000000000       0x24 build/default/production/_ext/1984157808/plib_cache.o
 .text.CACHE_CacheClean
                0x0000000000000000       0x24 build/default/production/_ext/1984157808/plib_cache.o
 .text.CACHE_DataCacheClean
                0x0000000000000000       0x24 build/default/production/_ext/1984157808/plib_cache.o
 .text.CACHE_DataCacheInvalidate
                0x0000000000000000       0x24 build/default/production/_ext/1984157808/plib_cache.o
 .text.CACHE_InstructionCacheInvalidate
                0x0000000000000000       0x24 build/default/production/_ext/1984157808/plib_cache.o
 .text.CACHE_InstructionCacheLock
                0x0000000000000000       0x24 build/default/production/_ext/1984157808/plib_cache.o
 .text.CACHE_DataCacheLock
                0x0000000000000000       0x24 build/default/production/_ext/1984157808/plib_cache.o
 .text.CACHE_CacheSync
                0x0000000000000000       0x24 build/default/production/_ext/1984157808/plib_cache.o
 .text.CACHE_CacheCoherencySet
                0x0000000000000000       0x28 build/default/production/_ext/1984157808/plib_cache.o
 .text.CACHE_CacheCoherencyGet
                0x0000000000000000       0x1c build/default/production/_ext/1984157808/plib_cache.o
 .text.CACHE_DataCacheAssociativityGet
                0x0000000000000000       0x24 build/default/production/_ext/1984157808/plib_cache.o
 .text.CACHE_InstructionCacheAssociativityGet
                0x0000000000000000       0x24 build/default/production/_ext/1984157808/plib_cache.o
 .text.CACHE_DataCacheLineSizeGet
                0x0000000000000000       0x24 build/default/production/_ext/1984157808/plib_cache.o
 .text.CACHE_InstructionCacheLineSizeGet
                0x0000000000000000       0x24 build/default/production/_ext/1984157808/plib_cache.o
 .text.CACHE_DataCacheLinesPerWayGet
                0x0000000000000000       0x24 build/default/production/_ext/1984157808/plib_cache.o
 .text.CACHE_InstructionCacheLinesPerWayGet
                0x0000000000000000       0x24 build/default/production/_ext/1984157808/plib_cache.o
 .text.CACHE_DataCacheSizeGet
                0x0000000000000000       0x24 build/default/production/_ext/1984157808/plib_cache.o
 .text.CACHE_InstructionCacheSizeGet
                0x0000000000000000       0x24 build/default/production/_ext/1984157808/plib_cache.o
 .text          0x0000000000000000      0x6bc build/default/production/_ext/1984157808/plib_cache_pic32mz.o
 .data          0x0000000000000000        0x0 build/default/production/_ext/1984157808/plib_cache_pic32mz.o
 .bss           0x0000000000000000        0x0 build/default/production/_ext/1984157808/plib_cache_pic32mz.o
 .reginfo       0x0000000000000000       0x18 build/default/production/_ext/1984157808/plib_cache_pic32mz.o
 .MIPS.abiflags
                0x0000000000000000       0x18 build/default/production/_ext/1984157808/plib_cache_pic32mz.o
 .debug_line    0x0000000000000000      0x208 build/default/production/_ext/1984157808/plib_cache_pic32mz.o
 .debug_info    0x0000000000000000       0x26 build/default/production/_ext/1984157808/plib_cache_pic32mz.o
 .debug_abbrev  0x0000000000000000       0x14 build/default/production/_ext/1984157808/plib_cache_pic32mz.o
 .debug_aranges
                0x0000000000000000       0x20 build/default/production/_ext/1984157808/plib_cache_pic32mz.o
 .debug_str     0x0000000000000000       0x98 build/default/production/_ext/1984157808/plib_cache_pic32mz.o
 .text          0x0000000000000000        0x0 build/default/production/_ext/60165520/plib_clk.o
 .data          0x0000000000000000        0x0 build/default/production/_ext/60165520/plib_clk.o
 .bss           0x0000000000000000        0x0 build/default/production/_ext/60165520/plib_clk.o
 .reginfo       0x0000000000000000       0x18 build/default/production/_ext/60165520/plib_clk.o
 .MIPS.abiflags
                0x0000000000000000       0x18 build/default/production/_ext/60165520/plib_clk.o
 .text          0x0000000000000000        0x0 build/default/production/_ext/1249264884/plib_coretimer.o
 .data          0x0000000000000000        0x0 build/default/production/_ext/1249264884/plib_coretimer.o
 .bss           0x0000000000000000        0x0 build/default/production/_ext/1249264884/plib_coretimer.o
 .reginfo       0x0000000000000000       0x18 build/default/production/_ext/1249264884/plib_coretimer.o
 .MIPS.abiflags
                0x0000000000000000       0x18 build/default/production/_ext/1249264884/plib_coretimer.o
 .text.CORETIMER_Start
                0x0000000000000000       0x5c build/default/production/_ext/1249264884/plib_coretimer.o
 .text.CORETIMER_Stop
                0x0000000000000000       0x28 build/default/production/_ext/1249264884/plib_coretimer.o
 .text.CORETIMER_FrequencyGet
                0x0000000000000000        0xc build/default/production/_ext/1249264884/plib_coretimer.o
 .text.CORETIMER_CompareSet
                0x0000000000000000       0x20 build/default/production/_ext/1249264884/plib_coretimer.o
 .text.CORETIMER_CounterGet
                0x0000000000000000       0x18 build/default/production/_ext/1249264884/plib_coretimer.o
 .text.CORETIMER_CompareHasExpired
                0x0000000000000000       0x24 build/default/production/_ext/1249264884/plib_coretimer.o
 .text.CORETIMER_DelayMs
                0x0000000000000000       0x4c build/default/production/_ext/1249264884/plib_coretimer.o
 .text          0x0000000000000000        0x0 build/default/production/_ext/1865200349/plib_evic.o
 .data          0x0000000000000000        0x0 build/default/production/_ext/1865200349/plib_evic.o
 .bss           0x0000000000000000        0x0 build/default/production/_ext/1865200349/plib_evic.o
 .reginfo       0x0000000000000000       0x18 build/default/production/_ext/1865200349/plib_evic.o
 .MIPS.abiflags
                0x0000000000000000       0x18 build/default/production/_ext/1865200349/plib_evic.o
 .text.EVIC_SourceEnable
                0x0000000000000000       0x28 build/default/production/_ext/1865200349/plib_evic.o
 .text.EVIC_SourceDisable
                0x0000000000000000       0x28 build/default/production/_ext/1865200349/plib_evic.o
 .text.EVIC_SourceIsEnabled
                0x0000000000000000       0x20 build/default/production/_ext/1865200349/plib_evic.o
 .text.EVIC_SourceStatusGet
                0x0000000000000000       0x20 build/default/production/_ext/1865200349/plib_evic.o
 .text.EVIC_SourceStatusSet
                0x0000000000000000       0x28 build/default/production/_ext/1865200349/plib_evic.o
 .text.EVIC_SourceStatusClear
                0x0000000000000000       0x28 build/default/production/_ext/1865200349/plib_evic.o
 .text.EVIC_INT_Enable
                0x0000000000000000       0x18 build/default/production/_ext/1865200349/plib_evic.o
 .text.EVIC_INT_Disable
                0x0000000000000000       0x20 build/default/production/_ext/1865200349/plib_evic.o
 .text.EVIC_INT_Restore
                0x0000000000000000       0x28 build/default/production/_ext/1865200349/plib_evic.o
 .text          0x0000000000000000        0x0 build/default/production/_ext/1865254177/plib_gpio.o
 .data          0x0000000000000000        0x0 build/default/production/_ext/1865254177/plib_gpio.o
 .bss           0x0000000000000000        0x0 build/default/production/_ext/1865254177/plib_gpio.o
 .reginfo       0x0000000000000000       0x18 build/default/production/_ext/1865254177/plib_gpio.o
 .MIPS.abiflags
                0x0000000000000000       0x18 build/default/production/_ext/1865254177/plib_gpio.o
 .text.GPIO_PortRead
                0x0000000000000000       0x18 build/default/production/_ext/1865254177/plib_gpio.o
 .text.GPIO_PortWrite
                0x0000000000000000       0x2c build/default/production/_ext/1865254177/plib_gpio.o
 .text.GPIO_PortLatchRead
                0x0000000000000000       0x18 build/default/production/_ext/1865254177/plib_gpio.o
 .text.GPIO_PortSet
                0x0000000000000000       0x1c build/default/production/_ext/1865254177/plib_gpio.o
 .text.GPIO_PortClear
                0x0000000000000000       0x1c build/default/production/_ext/1865254177/plib_gpio.o
 .text.GPIO_PortToggle
                0x0000000000000000       0x1c build/default/production/_ext/1865254177/plib_gpio.o
 .text.GPIO_PortInputEnable
                0x0000000000000000       0x1c build/default/production/_ext/1865254177/plib_gpio.o
 .text.GPIO_PortOutputEnable
                0x0000000000000000       0x1c build/default/production/_ext/1865254177/plib_gpio.o
 .text          0x0000000000000000        0x0 build/default/production/_ext/513455433/plib_i2c1_master.o
 .data          0x0000000000000000        0x0 build/default/production/_ext/513455433/plib_i2c1_master.o
 .reginfo       0x0000000000000000       0x18 build/default/production/_ext/513455433/plib_i2c1_master.o
 .MIPS.abiflags
                0x0000000000000000       0x18 build/default/production/_ext/513455433/plib_i2c1_master.o
 .text.I2C1_Read
                0x0000000000000000       0x84 build/default/production/_ext/513455433/plib_i2c1_master.o
 .text.I2C1_ErrorGet
                0x0000000000000000       0x14 build/default/production/_ext/513455433/plib_i2c1_master.o
 .text.I2C1_TransferSetup
                0x0000000000000000      0x104 build/default/production/_ext/513455433/plib_i2c1_master.o
 .rodata.cst4   0x0000000000000000        0x8 build/default/production/_ext/513455433/plib_i2c1_master.o
 .rodata.cst8   0x0000000000000000       0x18 build/default/production/_ext/513455433/plib_i2c1_master.o
 .text          0x0000000000000000        0x0 build/default/production/_ext/1865301019/plib_icap1.o
 .data          0x0000000000000000        0x0 build/default/production/_ext/1865301019/plib_icap1.o
 .bss           0x0000000000000000        0x0 build/default/production/_ext/1865301019/plib_icap1.o
 .reginfo       0x0000000000000000       0x18 build/default/production/_ext/1865301019/plib_icap1.o
 .MIPS.abiflags
                0x0000000000000000       0x18 build/default/production/_ext/1865301019/plib_icap1.o
 .text.ICAP1_Disable
                0x0000000000000000       0x14 build/default/production/_ext/1865301019/plib_icap1.o
 .text.ICAP1_ErrorStatusGet
                0x0000000000000000       0x10 build/default/production/_ext/1865301019/plib_icap1.o
 .text          0x0000000000000000        0x0 build/default/production/_ext/1865301019/plib_icap2.o
 .data          0x0000000000000000        0x0 build/default/production/_ext/1865301019/plib_icap2.o
 .bss           0x0000000000000000        0x0 build/default/production/_ext/1865301019/plib_icap2.o
 .reginfo       0x0000000000000000       0x18 build/default/production/_ext/1865301019/plib_icap2.o
 .MIPS.abiflags
                0x0000000000000000       0x18 build/default/production/_ext/1865301019/plib_icap2.o
 .text.ICAP2_Disable
                0x0000000000000000       0x14 build/default/production/_ext/1865301019/plib_icap2.o
 .text.ICAP2_ErrorStatusGet
                0x0000000000000000       0x10 build/default/production/_ext/1865301019/plib_icap2.o
 .text          0x0000000000000000        0x0 build/default/production/_ext/1865480137/plib_ocmp3.o
 .data          0x0000000000000000        0x0 build/default/production/_ext/1865480137/plib_ocmp3.o
 .bss           0x0000000000000000        0x0 build/default/production/_ext/1865480137/plib_ocmp3.o
 .reginfo       0x0000000000000000       0x18 build/default/production/_ext/1865480137/plib_ocmp3.o
 .MIPS.abiflags
                0x0000000000000000       0x18 build/default/production/_ext/1865480137/plib_ocmp3.o
 .text.OCMP3_Disable
                0x0000000000000000       0x14 build/default/production/_ext/1865480137/plib_ocmp3.o
 .text.OCMP3_CompareValueGet
                0x0000000000000000       0x10 build/default/production/_ext/1865480137/plib_ocmp3.o
 .text.OCMP3_CompareSecondaryValueSet
                0x0000000000000000       0x10 build/default/production/_ext/1865480137/plib_ocmp3.o
 .text.OCMP3_CompareSecondaryValueGet
                0x0000000000000000       0x10 build/default/production/_ext/1865480137/plib_ocmp3.o
 .text          0x0000000000000000        0x0 build/default/production/_ext/60181895/plib_tmr2.o
 .data          0x0000000000000000        0x0 build/default/production/_ext/60181895/plib_tmr2.o
 .bss           0x0000000000000000        0x0 build/default/production/_ext/60181895/plib_tmr2.o
 .reginfo       0x0000000000000000       0x18 build/default/production/_ext/60181895/plib_tmr2.o
 .MIPS.abiflags
                0x0000000000000000       0x18 build/default/production/_ext/60181895/plib_tmr2.o
 .text.TMR2_Stop
                0x0000000000000000       0x14 build/default/production/_ext/60181895/plib_tmr2.o
 .text.TMR2_PeriodSet
                0x0000000000000000       0x10 build/default/production/_ext/60181895/plib_tmr2.o
 .text.TMR2_PeriodGet
                0x0000000000000000       0x10 build/default/production/_ext/60181895/plib_tmr2.o
 .text.TMR2_CounterGet
                0x0000000000000000       0x10 build/default/production/_ext/60181895/plib_tmr2.o
 .text.TMR2_FrequencyGet
                0x0000000000000000        0xc build/default/production/_ext/60181895/plib_tmr2.o
 .text          0x0000000000000000        0x0 build/default/production/_ext/60181895/plib_tmr4.o
 .data          0x0000000000000000        0x0 build/default/production/_ext/60181895/plib_tmr4.o
 .bss           0x0000000000000000        0x0 build/default/production/_ext/60181895/plib_tmr4.o
 .reginfo       0x0000000000000000       0x18 build/default/production/_ext/60181895/plib_tmr4.o
 .MIPS.abiflags
                0x0000000000000000       0x18 build/default/production/_ext/60181895/plib_tmr4.o
 .text.TMR4_Stop
                0x0000000000000000       0x14 build/default/production/_ext/60181895/plib_tmr4.o
 .text.TMR4_PeriodSet
                0x0000000000000000       0x10 build/default/production/_ext/60181895/plib_tmr4.o
 .text.TMR4_PeriodGet
                0x0000000000000000       0x10 build/default/production/_ext/60181895/plib_tmr4.o
 .text.TMR4_CounterGet
                0x0000000000000000       0x10 build/default/production/_ext/60181895/plib_tmr4.o
 .text.TMR4_FrequencyGet
                0x0000000000000000        0xc build/default/production/_ext/60181895/plib_tmr4.o
 .text.TMR4_InterruptEnable
                0x0000000000000000       0x14 build/default/production/_ext/60181895/plib_tmr4.o
 .text.TMR4_InterruptDisable
                0x0000000000000000       0x14 build/default/production/_ext/60181895/plib_tmr4.o
 .text.TMR4_CallbackRegister
                0x0000000000000000       0x10 build/default/production/_ext/60181895/plib_tmr4.o
 .text          0x0000000000000000        0x0 build/default/production/_ext/1865638794/plib_tmr1.o
 .data          0x0000000000000000        0x0 build/default/production/_ext/1865638794/plib_tmr1.o
 .bss           0x0000000000000000        0x0 build/default/production/_ext/1865638794/plib_tmr1.o
 .reginfo       0x0000000000000000       0x18 build/default/production/_ext/1865638794/plib_tmr1.o
 .MIPS.abiflags
                0x0000000000000000       0x18 build/default/production/_ext/1865638794/plib_tmr1.o
 .text.TMR1_Stop
                0x0000000000000000       0x14 build/default/production/_ext/1865638794/plib_tmr1.o
 .text.TMR1_PeriodSet
                0x0000000000000000       0x10 build/default/production/_ext/1865638794/plib_tmr1.o
 .text.TMR1_PeriodGet
                0x0000000000000000       0x10 build/default/production/_ext/1865638794/plib_tmr1.o
 .text.TMR1_CounterGet
                0x0000000000000000       0x10 build/default/production/_ext/1865638794/plib_tmr1.o
 .text.TMR1_FrequencyGet
                0x0000000000000000        0x8 build/default/production/_ext/1865638794/plib_tmr1.o
 .text          0x0000000000000000        0x0 build/default/production/_ext/1865657120/plib_uart2.o
 .data          0x0000000000000000        0x0 build/default/production/_ext/1865657120/plib_uart2.o
 .bss           0x0000000000000000        0x0 build/default/production/_ext/1865657120/plib_uart2.o
 .reginfo       0x0000000000000000       0x18 build/default/production/_ext/1865657120/plib_uart2.o
 .MIPS.abiflags
                0x0000000000000000       0x18 build/default/production/_ext/1865657120/plib_uart2.o
 .text.UART2_SerialSetup
                0x0000000000000000      0x120 build/default/production/_ext/1865657120/plib_uart2.o
 .text.UART2_AutoBaudQuery
                0x0000000000000000       0x10 build/default/production/_ext/1865657120/plib_uart2.o
 .text.UART2_AutoBaudSet
                0x0000000000000000       0x18 build/default/production/_ext/1865657120/plib_uart2.o
 .text.UART2_Read
                0x0000000000000000       0x88 build/default/production/_ext/1865657120/plib_uart2.o
 .text.UART2_Write
                0x0000000000000000       0xc0 build/default/production/_ext/1865657120/plib_uart2.o
 .text.UART2_ErrorGet
                0x0000000000000000       0x18 build/default/production/_ext/1865657120/plib_uart2.o
 .text.UART2_ReadCallbackRegister
                0x0000000000000000       0x14 build/default/production/_ext/1865657120/plib_uart2.o
 .text.UART2_ReadIsBusy
                0x0000000000000000        0xc build/default/production/_ext/1865657120/plib_uart2.o
 .text.UART2_ReadCountGet
                0x0000000000000000        0xc build/default/production/_ext/1865657120/plib_uart2.o
 .text.UART2_ReadAbort
                0x0000000000000000       0x3c build/default/production/_ext/1865657120/plib_uart2.o
 .text.UART2_WriteCallbackRegister
                0x0000000000000000       0x14 build/default/production/_ext/1865657120/plib_uart2.o
 .text.UART2_WriteIsBusy
                0x0000000000000000        0xc build/default/production/_ext/1865657120/plib_uart2.o
 .text.UART2_WriteCountGet
                0x0000000000000000        0xc build/default/production/_ext/1865657120/plib_uart2.o
 .text          0x0000000000000000        0x0 build/default/production/_ext/1865657120/plib_uart5.o
 .data          0x0000000000000000        0x0 build/default/production/_ext/1865657120/plib_uart5.o
 .reginfo       0x0000000000000000       0x18 build/default/production/_ext/1865657120/plib_uart5.o
 .MIPS.abiflags
                0x0000000000000000       0x18 build/default/production/_ext/1865657120/plib_uart5.o
 .text.UART5_SerialSetup
                0x0000000000000000      0x144 build/default/production/_ext/1865657120/plib_uart5.o
 .text.UART5_ReadFreeBufferCountGet
                0x0000000000000000       0x30 build/default/production/_ext/1865657120/plib_uart5.o
 .text.UART5_ReadBufferSizeGet
                0x0000000000000000       0x10 build/default/production/_ext/1865657120/plib_uart5.o
 .text.UART5_ReadNotificationEnable
                0x0000000000000000       0x18 build/default/production/_ext/1865657120/plib_uart5.o
 .text.UART5_ReadThresholdSet
                0x0000000000000000       0x14 build/default/production/_ext/1865657120/plib_uart5.o
 .text.UART5_WriteBufferSizeGet
                0x0000000000000000       0x10 build/default/production/_ext/1865657120/plib_uart5.o
 .text.UART5_WriteNotificationEnable
                0x0000000000000000       0x18 build/default/production/_ext/1865657120/plib_uart5.o
 .text.UART5_WriteThresholdSet
                0x0000000000000000       0x18 build/default/production/_ext/1865657120/plib_uart5.o
 .text.UART5_ErrorGet
                0x0000000000000000       0x18 build/default/production/_ext/1865657120/plib_uart5.o
 .text.UART5_AutoBaudQuery
                0x0000000000000000       0x10 build/default/production/_ext/1865657120/plib_uart5.o
 .text.UART5_AutoBaudSet
                0x0000000000000000       0x1c build/default/production/_ext/1865657120/plib_uart5.o
 .text          0x0000000000000000        0x0 build/default/production/_ext/163028504/xc32_monitor.o
 .data          0x0000000000000000        0x0 build/default/production/_ext/163028504/xc32_monitor.o
 .bss           0x0000000000000000        0x0 build/default/production/_ext/163028504/xc32_monitor.o
 .reginfo       0x0000000000000000       0x18 build/default/production/_ext/163028504/xc32_monitor.o
 .MIPS.abiflags
                0x0000000000000000       0x18 build/default/production/_ext/163028504/xc32_monitor.o
 .text._mon_getc
                0x0000000000000000        0x8 build/default/production/_ext/163028504/xc32_monitor.o
 .text._mon_putc
                0x0000000000000000        0x8 build/default/production/_ext/163028504/xc32_monitor.o
 .text          0x0000000000000000        0x0 build/default/production/_ext/1171490990/initialization.o
 .data          0x0000000000000000        0x0 build/default/production/_ext/1171490990/initialization.o
 .bss           0x0000000000000000        0x0 build/default/production/_ext/1171490990/initialization.o
 .reginfo       0x0000000000000000       0x18 build/default/production/_ext/1171490990/initialization.o
 .MIPS.abiflags
                0x0000000000000000       0x18 build/default/production/_ext/1171490990/initialization.o
 .text          0x0000000000000000        0x0 build/default/production/_ext/1171490990/interrupts.o
 .data          0x0000000000000000        0x0 build/default/production/_ext/1171490990/interrupts.o
 .bss           0x0000000000000000        0x0 build/default/production/_ext/1171490990/interrupts.o
 .reginfo       0x0000000000000000       0x18 build/default/production/_ext/1171490990/interrupts.o
 .MIPS.abiflags
                0x0000000000000000       0x18 build/default/production/_ext/1171490990/interrupts.o
 .text          0x0000000000000000        0x0 build/default/production/_ext/1171490990/exceptions.o
 .data          0x0000000000000000        0x0 build/default/production/_ext/1171490990/exceptions.o
 .bss           0x0000000000000000        0x0 build/default/production/_ext/1171490990/exceptions.o
 .reginfo       0x0000000000000000       0x18 build/default/production/_ext/1171490990/exceptions.o
 .MIPS.abiflags
                0x0000000000000000       0x18 build/default/production/_ext/1171490990/exceptions.o
 .text          0x0000000000000000        0x0 build/default/production/_ext/1019397905/mainCubeMeteo.o
 .data          0x0000000000000000       0xc7 build/default/production/_ext/1019397905/mainCubeMeteo.o
 .bss           0x0000000000000000       0x2c build/default/production/_ext/1019397905/mainCubeMeteo.o
 .reginfo       0x0000000000000000       0x18 build/default/production/_ext/1019397905/mainCubeMeteo.o
 .MIPS.abiflags
                0x0000000000000000       0x18 build/default/production/_ext/1019397905/mainCubeMeteo.o
 COMMON         0x0000000000000000       0x3e build/default/production/_ext/1019397905/mainCubeMeteo.o
 .text          0x0000000000000000        0x0 build/default/production/_ext/1019397905/cubeCommon.o
 .data          0x0000000000000000        0x0 build/default/production/_ext/1019397905/cubeCommon.o
 .bss           0x0000000000000000        0x0 build/default/production/_ext/1019397905/cubeCommon.o
 .reginfo       0x0000000000000000       0x18 build/default/production/_ext/1019397905/cubeCommon.o
 .MIPS.abiflags
                0x0000000000000000       0x18 build/default/production/_ext/1019397905/cubeCommon.o
 .text          0x0000000000000000        0x0 build/default/production/_ext/428692892/HC-SR04.o
 .data          0x0000000000000000        0x0 build/default/production/_ext/428692892/HC-SR04.o
 .reginfo       0x0000000000000000       0x18 build/default/production/_ext/428692892/HC-SR04.o
 .MIPS.abiflags
                0x0000000000000000       0x18 build/default/production/_ext/428692892/HC-SR04.o
 .text          0x0000000000000000        0x0 build/default/production/_ext/1367680316/LM75A.o
 .data          0x0000000000000000        0x0 build/default/production/_ext/1367680316/LM75A.o
 .reginfo       0x0000000000000000       0x18 build/default/production/_ext/1367680316/LM75A.o
 .MIPS.abiflags
                0x0000000000000000       0x18 build/default/production/_ext/1367680316/LM75A.o
 .text.getDatatx
                0x0000000000000000        0xc build/default/production/_ext/1367680316/LM75A.o
 .text          0x0000000000000000        0x0 build/default/production/_ext/1098102801/PCF8563.o
 .data          0x0000000000000000        0x0 build/default/production/_ext/1098102801/PCF8563.o
 .bss           0x0000000000000000        0x0 build/default/production/_ext/1098102801/PCF8563.o
 .reginfo       0x0000000000000000       0x18 build/default/production/_ext/1098102801/PCF8563.o
 .MIPS.abiflags
                0x0000000000000000       0x18 build/default/production/_ext/1098102801/PCF8563.o
 .text          0x0000000000000000        0x0 build/default/production/_ext/672751358/SAA1064T.o
 .data          0x0000000000000000        0x0 build/default/production/_ext/672751358/SAA1064T.o
 .bss           0x0000000000000000        0x0 build/default/production/_ext/672751358/SAA1064T.o
 .reginfo       0x0000000000000000       0x18 build/default/production/_ext/672751358/SAA1064T.o
 .MIPS.abiflags
                0x0000000000000000       0x18 build/default/production/_ext/672751358/SAA1064T.o
 .text          0x0000000000000000        0x0 build/default/production/_ext/780438209/TM1638.o
 .data          0x0000000000000000        0x0 build/default/production/_ext/780438209/TM1638.o
 .bss           0x0000000000000000        0x0 build/default/production/_ext/780438209/TM1638.o
 .reginfo       0x0000000000000000       0x18 build/default/production/_ext/780438209/TM1638.o
 .MIPS.abiflags
                0x0000000000000000       0x18 build/default/production/_ext/780438209/TM1638.o
 .text          0x0000000000000000        0x0 build/default/production/_ext/1259047745/WS2812b.o
 .data          0x0000000000000000        0x0 build/default/production/_ext/1259047745/WS2812b.o
 .bss           0x0000000000000000        0x0 build/default/production/_ext/1259047745/WS2812b.o
 .reginfo       0x0000000000000000       0x18 build/default/production/_ext/1259047745/WS2812b.o
 .MIPS.abiflags
                0x0000000000000000       0x18 build/default/production/_ext/1259047745/WS2812b.o
 .text.RGBbit   0x0000000000000000       0x34 build/default/production/_ext/1259047745/WS2812b.o
 .text.ws2812bReset
                0x0000000000000000       0x28 build/default/production/_ext/1259047745/WS2812b.o
 .text          0x0000000000000000        0x0 build/default/production/_ext/1360937237/mainCube.o
 .data          0x0000000000000000        0x0 build/default/production/_ext/1360937237/mainCube.o
 .bss           0x0000000000000000        0x0 build/default/production/_ext/1360937237/mainCube.o
 .reginfo       0x0000000000000000       0x18 build/default/production/_ext/1360937237/mainCube.o
 .MIPS.abiflags
                0x0000000000000000       0x18 build/default/production/_ext/1360937237/mainCube.o
 .text          0x0000000000000000        0x0 /tmp/cc2DRTQz.o
 .data          0x0000000000000000        0x0 /tmp/cc2DRTQz.o
 .bss           0x0000000000000000        0x0 /tmp/cc2DRTQz.o
 .reginfo       0x0000000000000000       0x18 /tmp/cc2DRTQz.o
 .MIPS.abiflags
                0x0000000000000000       0x18 /tmp/cc2DRTQz.o
 .text          0x0000000000000000        0x0 /tmp/cciM6ozx.o
 .data          0x0000000000000000        0x0 /tmp/cciM6ozx.o
 .bss           0x0000000000000000        0x0 /tmp/cciM6ozx.o
 .reginfo       0x0000000000000000       0x18 /tmp/cciM6ozx.o
 .MIPS.abiflags
                0x0000000000000000       0x18 /tmp/cciM6ozx.o
 .text          0x0000000000000000        0x0 /tmp/ccGKBfTB.o
 .data          0x0000000000000000        0x0 /tmp/ccGKBfTB.o
 .bss           0x0000000000000000        0x0 /tmp/ccGKBfTB.o
 .reginfo       0x0000000000000000       0x18 /tmp/ccGKBfTB.o
 .MIPS.abiflags
                0x0000000000000000       0x18 /tmp/ccGKBfTB.o
 .text          0x0000000000000000        0x0 /tmp/cccIVjSB.o
 .data          0x0000000000000000        0x0 /tmp/cccIVjSB.o
 .bss           0x0000000000000000        0x0 /tmp/cccIVjSB.o
 .reginfo       0x0000000000000000       0x18 /tmp/cccIVjSB.o
 .MIPS.abiflags
                0x0000000000000000       0x18 /tmp/cccIVjSB.o
 .discard       0x0000000000000000        0x4 /tmp/cccIVjSB.o
 .data          0x0000000000000000        0x0 /opt/microchip/xc32/v4.21/bin/bin/../../lib/gcc/pic32mx/8.3.1/../../../../pic32mx/lib/fpu64/pic32_software_reset.o
 .bss           0x0000000000000000        0x0 /opt/microchip/xc32/v4.21/bin/bin/../../lib/gcc/pic32mx/8.3.1/../../../../pic32mx/lib/fpu64/pic32_software_reset.o
 .reginfo       0x0000000000000000       0x18 /opt/microchip/xc32/v4.21/bin/bin/../../lib/gcc/pic32mx/8.3.1/../../../../pic32mx/lib/fpu64/pic32_software_reset.o
 .MIPS.abiflags
                0x0000000000000000       0x18 /opt/microchip/xc32/v4.21/bin/bin/../../lib/gcc/pic32mx/8.3.1/../../../../pic32mx/lib/fpu64/pic32_software_reset.o
 .xc_stack_usage.hdr
                0x0000000000000000        0xe /opt/microchip/xc32/v4.21/bin/bin/../../lib/gcc/pic32mx/8.3.1/../../../../pic32mx/lib/fpu64/pic32_software_reset.o
 .xc_stack_usage
                0x0000000000000000       0x24 /opt/microchip/xc32/v4.21/bin/bin/../../lib/gcc/pic32mx/8.3.1/../../../../pic32mx/lib/fpu64/pic32_software_reset.o
 .data          0x0000000000000000        0x0 /opt/microchip/xc32/v4.21/bin/bin/../../lib/gcc/pic32mx/8.3.1/fpu64/libgcc.a(_divdi3.o)
 .bss           0x0000000000000000        0x0 /opt/microchip/xc32/v4.21/bin/bin/../../lib/gcc/pic32mx/8.3.1/fpu64/libgcc.a(_divdi3.o)
 .reginfo       0x0000000000000000       0x18 /opt/microchip/xc32/v4.21/bin/bin/../../lib/gcc/pic32mx/8.3.1/fpu64/libgcc.a(_divdi3.o)
 .MIPS.abiflags
                0x0000000000000000       0x18 /opt/microchip/xc32/v4.21/bin/bin/../../lib/gcc/pic32mx/8.3.1/fpu64/libgcc.a(_divdi3.o)
 .xc_stack_usage
                0x0000000000000000       0x16 /opt/microchip/xc32/v4.21/bin/bin/../../lib/gcc/pic32mx/8.3.1/fpu64/libgcc.a(_divdi3.o)
 .xc_stack_usage.hdr
                0x0000000000000000        0xe /opt/microchip/xc32/v4.21/bin/bin/../../lib/gcc/pic32mx/8.3.1/fpu64/libgcc.a(_divdi3.o)
 .data          0x0000000000000000        0x0 /opt/microchip/xc32/v4.21/bin/bin/../../lib/gcc/pic32mx/8.3.1/../../../../pic32mx/lib/fpu64/libpic32.a(memcpy.o)
 .bss           0x0000000000000000        0x0 /opt/microchip/xc32/v4.21/bin/bin/../../lib/gcc/pic32mx/8.3.1/../../../../pic32mx/lib/fpu64/libpic32.a(memcpy.o)
 .reginfo       0x0000000000000000       0x18 /opt/microchip/xc32/v4.21/bin/bin/../../lib/gcc/pic32mx/8.3.1/../../../../pic32mx/lib/fpu64/libpic32.a(memcpy.o)
 .MIPS.abiflags
                0x0000000000000000       0x18 /opt/microchip/xc32/v4.21/bin/bin/../../lib/gcc/pic32mx/8.3.1/../../../../pic32mx/lib/fpu64/libpic32.a(memcpy.o)
 .xc_stack_usage.hdr
                0x0000000000000000        0xe /opt/microchip/xc32/v4.21/bin/bin/../../lib/gcc/pic32mx/8.3.1/../../../../pic32mx/lib/fpu64/libpic32.a(memcpy.o)
 .xc_stack_usage
                0x0000000000000000       0x14 /opt/microchip/xc32/v4.21/bin/bin/../../lib/gcc/pic32mx/8.3.1/../../../../pic32mx/lib/fpu64/libpic32.a(memcpy.o)
 .data          0x0000000000000000        0x0 /opt/microchip/xc32/v4.21/bin/bin/../../lib/gcc/pic32mx/8.3.1/../../../../pic32mx/lib/fpu64/libpic32.a(strlen.o)
 .bss           0x0000000000000000        0x0 /opt/microchip/xc32/v4.21/bin/bin/../../lib/gcc/pic32mx/8.3.1/../../../../pic32mx/lib/fpu64/libpic32.a(strlen.o)
 .reginfo       0x0000000000000000       0x18 /opt/microchip/xc32/v4.21/bin/bin/../../lib/gcc/pic32mx/8.3.1/../../../../pic32mx/lib/fpu64/libpic32.a(strlen.o)
 .MIPS.abiflags
                0x0000000000000000       0x18 /opt/microchip/xc32/v4.21/bin/bin/../../lib/gcc/pic32mx/8.3.1/../../../../pic32mx/lib/fpu64/libpic32.a(strlen.o)
 .xc_stack_usage.hdr
                0x0000000000000000        0xe /opt/microchip/xc32/v4.21/bin/bin/../../lib/gcc/pic32mx/8.3.1/../../../../pic32mx/lib/fpu64/libpic32.a(strlen.o)
 .xc_stack_usage
                0x0000000000000000       0x14 /opt/microchip/xc32/v4.21/bin/bin/../../lib/gcc/pic32mx/8.3.1/../../../../pic32mx/lib/fpu64/libpic32.a(strlen.o)
 .text          0x0000000000000000        0x0 /opt/microchip/xc32/v4.21/bin/bin/../../lib/gcc/pic32mx/8.3.1/../../../../pic32mx/lib/fpu64/libpic32.a(default-on-reset.o)
 .data          0x0000000000000000        0x0 /opt/microchip/xc32/v4.21/bin/bin/../../lib/gcc/pic32mx/8.3.1/../../../../pic32mx/lib/fpu64/libpic32.a(default-on-reset.o)
 .bss           0x0000000000000000        0x0 /opt/microchip/xc32/v4.21/bin/bin/../../lib/gcc/pic32mx/8.3.1/../../../../pic32mx/lib/fpu64/libpic32.a(default-on-reset.o)
 .reginfo       0x0000000000000000       0x18 /opt/microchip/xc32/v4.21/bin/bin/../../lib/gcc/pic32mx/8.3.1/../../../../pic32mx/lib/fpu64/libpic32.a(default-on-reset.o)
 .MIPS.abiflags
                0x0000000000000000       0x18 /opt/microchip/xc32/v4.21/bin/bin/../../lib/gcc/pic32mx/8.3.1/../../../../pic32mx/lib/fpu64/libpic32.a(default-on-reset.o)
 .xc_stack_usage
                0x0000000000000000       0x17 /opt/microchip/xc32/v4.21/bin/bin/../../lib/gcc/pic32mx/8.3.1/../../../../pic32mx/lib/fpu64/libpic32.a(default-on-reset.o)
 .xc_stack_usage.hdr
                0x0000000000000000        0xe /opt/microchip/xc32/v4.21/bin/bin/../../lib/gcc/pic32mx/8.3.1/../../../../pic32mx/lib/fpu64/libpic32.a(default-on-reset.o)
 .text          0x0000000000000000        0x0 /opt/microchip/xc32/v4.21/bin/bin/../../lib/gcc/pic32mx/8.3.1/../../../../pic32mx/lib/fpu64/libpic32.a(default-on-bootstrap.o)
 .data          0x0000000000000000        0x0 /opt/microchip/xc32/v4.21/bin/bin/../../lib/gcc/pic32mx/8.3.1/../../../../pic32mx/lib/fpu64/libpic32.a(default-on-bootstrap.o)
 .bss           0x0000000000000000        0x0 /opt/microchip/xc32/v4.21/bin/bin/../../lib/gcc/pic32mx/8.3.1/../../../../pic32mx/lib/fpu64/libpic32.a(default-on-bootstrap.o)
 .reginfo       0x0000000000000000       0x18 /opt/microchip/xc32/v4.21/bin/bin/../../lib/gcc/pic32mx/8.3.1/../../../../pic32mx/lib/fpu64/libpic32.a(default-on-bootstrap.o)
 .MIPS.abiflags
                0x0000000000000000       0x18 /opt/microchip/xc32/v4.21/bin/bin/../../lib/gcc/pic32mx/8.3.1/../../../../pic32mx/lib/fpu64/libpic32.a(default-on-bootstrap.o)
 .xc_stack_usage
                0x0000000000000000       0x1b /opt/microchip/xc32/v4.21/bin/bin/../../lib/gcc/pic32mx/8.3.1/../../../../pic32mx/lib/fpu64/libpic32.a(default-on-bootstrap.o)
 .xc_stack_usage.hdr
                0x0000000000000000        0xe /opt/microchip/xc32/v4.21/bin/bin/../../lib/gcc/pic32mx/8.3.1/../../../../pic32mx/lib/fpu64/libpic32.a(default-on-bootstrap.o)
 .data          0x0000000000000000        0x0 /opt/microchip/xc32/v4.21/bin/bin/../../lib/gcc/pic32mx/8.3.1/../../../../pic32mx/lib/fpu64/libpic32.a(default-nmi-handler.o)
 .bss           0x0000000000000000        0x0 /opt/microchip/xc32/v4.21/bin/bin/../../lib/gcc/pic32mx/8.3.1/../../../../pic32mx/lib/fpu64/libpic32.a(default-nmi-handler.o)
 .reginfo       0x0000000000000000       0x18 /opt/microchip/xc32/v4.21/bin/bin/../../lib/gcc/pic32mx/8.3.1/../../../../pic32mx/lib/fpu64/libpic32.a(default-nmi-handler.o)
 .MIPS.abiflags
                0x0000000000000000       0x18 /opt/microchip/xc32/v4.21/bin/bin/../../lib/gcc/pic32mx/8.3.1/../../../../pic32mx/lib/fpu64/libpic32.a(default-nmi-handler.o)
 .xc_stack_usage.hdr
                0x0000000000000000        0xe /opt/microchip/xc32/v4.21/bin/bin/../../lib/gcc/pic32mx/8.3.1/../../../../pic32mx/lib/fpu64/libpic32.a(default-nmi-handler.o)
 .xc_stack_usage
                0x0000000000000000       0x1a /opt/microchip/xc32/v4.21/bin/bin/../../lib/gcc/pic32mx/8.3.1/../../../../pic32mx/lib/fpu64/libpic32.a(default-nmi-handler.o)
 .text          0x0000000000000000        0x0 /opt/microchip/xc32/v4.21/bin/bin/../../lib/gcc/pic32mx/8.3.1/../../../../pic32mx/lib/fpu64/libpic32.a(pic32_data_init_wrapper.o)
 .data          0x0000000000000000        0x0 /opt/microchip/xc32/v4.21/bin/bin/../../lib/gcc/pic32mx/8.3.1/../../../../pic32mx/lib/fpu64/libpic32.a(pic32_data_init_wrapper.o)
 .bss           0x0000000000000000        0x0 /opt/microchip/xc32/v4.21/bin/bin/../../lib/gcc/pic32mx/8.3.1/../../../../pic32mx/lib/fpu64/libpic32.a(pic32_data_init_wrapper.o)
 .reginfo       0x0000000000000000       0x18 /opt/microchip/xc32/v4.21/bin/bin/../../lib/gcc/pic32mx/8.3.1/../../../../pic32mx/lib/fpu64/libpic32.a(pic32_data_init_wrapper.o)
 .MIPS.abiflags
                0x0000000000000000       0x18 /opt/microchip/xc32/v4.21/bin/bin/../../lib/gcc/pic32mx/8.3.1/../../../../pic32mx/lib/fpu64/libpic32.a(pic32_data_init_wrapper.o)
 .xc_stack_usage.hdr
                0x0000000000000000        0xe /opt/microchip/xc32/v4.21/bin/bin/../../lib/gcc/pic32mx/8.3.1/../../../../pic32mx/lib/fpu64/libpic32.a(pic32_data_init_wrapper.o)
 .xc_stack_usage
                0x0000000000000000       0x1f /opt/microchip/xc32/v4.21/bin/bin/../../lib/gcc/pic32mx/8.3.1/../../../../pic32mx/lib/fpu64/libpic32.a(pic32_data_init_wrapper.o)
 .text          0x0000000000000000        0x0 /opt/microchip/xc32/v4.21/bin/bin/../../lib/gcc/pic32mx/8.3.1/../../../../pic32mx/lib/fpu64/libpic32.a(pic32_data_init_0_1.o)
 .data          0x0000000000000000        0x0 /opt/microchip/xc32/v4.21/bin/bin/../../lib/gcc/pic32mx/8.3.1/../../../../pic32mx/lib/fpu64/libpic32.a(pic32_data_init_0_1.o)
 .bss           0x0000000000000000        0x0 /opt/microchip/xc32/v4.21/bin/bin/../../lib/gcc/pic32mx/8.3.1/../../../../pic32mx/lib/fpu64/libpic32.a(pic32_data_init_0_1.o)
 .reginfo       0x0000000000000000       0x18 /opt/microchip/xc32/v4.21/bin/bin/../../lib/gcc/pic32mx/8.3.1/../../../../pic32mx/lib/fpu64/libpic32.a(pic32_data_init_0_1.o)
 .MIPS.abiflags
                0x0000000000000000       0x18 /opt/microchip/xc32/v4.21/bin/bin/../../lib/gcc/pic32mx/8.3.1/../../../../pic32mx/lib/fpu64/libpic32.a(pic32_data_init_0_1.o)
 .xc_stack_usage.hdr
                0x0000000000000000        0xe /opt/microchip/xc32/v4.21/bin/bin/../../lib/gcc/pic32mx/8.3.1/../../../../pic32mx/lib/fpu64/libpic32.a(pic32_data_init_0_1.o)
 .xc_stack_usage
                0x0000000000000000       0x24 /opt/microchip/xc32/v4.21/bin/bin/../../lib/gcc/pic32mx/8.3.1/../../../../pic32mx/lib/fpu64/libpic32.a(pic32_data_init_0_1.o)
 .text          0x0000000000000000        0x0 /opt/microchip/xc32/v4.21/bin/bin/../../lib/gcc/pic32mx/8.3.1/../../../../pic32mx/lib/fpu64/libpic32.a(pic32_init_cache.o)
 .data          0x0000000000000000        0x0 /opt/microchip/xc32/v4.21/bin/bin/../../lib/gcc/pic32mx/8.3.1/../../../../pic32mx/lib/fpu64/libpic32.a(pic32_init_cache.o)
 .bss           0x0000000000000000        0x0 /opt/microchip/xc32/v4.21/bin/bin/../../lib/gcc/pic32mx/8.3.1/../../../../pic32mx/lib/fpu64/libpic32.a(pic32_init_cache.o)
 .reginfo       0x0000000000000000       0x18 /opt/microchip/xc32/v4.21/bin/bin/../../lib/gcc/pic32mx/8.3.1/../../../../pic32mx/lib/fpu64/libpic32.a(pic32_init_cache.o)
 .MIPS.abiflags
                0x0000000000000000       0x18 /opt/microchip/xc32/v4.21/bin/bin/../../lib/gcc/pic32mx/8.3.1/../../../../pic32mx/lib/fpu64/libpic32.a(pic32_init_cache.o)
 .cache_init.pic32_size_cache
                0x0000000000000000       0x58 /opt/microchip/xc32/v4.21/bin/bin/../../lib/gcc/pic32mx/8.3.1/../../../../pic32mx/lib/fpu64/libpic32.a(pic32_init_cache.o)
 .xc_stack_usage.hdr
                0x0000000000000000        0xe /opt/microchip/xc32/v4.21/bin/bin/../../lib/gcc/pic32mx/8.3.1/../../../../pic32mx/lib/fpu64/libpic32.a(pic32_init_cache.o)
 .xc_stack_usage
                0x0000000000000000       0x5a /opt/microchip/xc32/v4.21/bin/bin/../../lib/gcc/pic32mx/8.3.1/../../../../pic32mx/lib/fpu64/libpic32.a(pic32_init_cache.o)
 .text          0x0000000000000000        0x0 /opt/microchip/xc32/v4.21/bin/bin/../../lib/gcc/pic32mx/8.3.1/../../../../pic32mx/lib/fpu64/libpic32.a(pic32_init_tlb_ebi_sqi.o)
 .data          0x0000000000000000        0x0 /opt/microchip/xc32/v4.21/bin/bin/../../lib/gcc/pic32mx/8.3.1/../../../../pic32mx/lib/fpu64/libpic32.a(pic32_init_tlb_ebi_sqi.o)
 .bss           0x0000000000000000        0x0 /opt/microchip/xc32/v4.21/bin/bin/../../lib/gcc/pic32mx/8.3.1/../../../../pic32mx/lib/fpu64/libpic32.a(pic32_init_tlb_ebi_sqi.o)
 .reginfo       0x0000000000000000       0x18 /opt/microchip/xc32/v4.21/bin/bin/../../lib/gcc/pic32mx/8.3.1/../../../../pic32mx/lib/fpu64/libpic32.a(pic32_init_tlb_ebi_sqi.o)
 .MIPS.abiflags
                0x0000000000000000       0x18 /opt/microchip/xc32/v4.21/bin/bin/../../lib/gcc/pic32mx/8.3.1/../../../../pic32mx/lib/fpu64/libpic32.a(pic32_init_tlb_ebi_sqi.o)
 .xc_stack_usage.hdr
                0x0000000000000000        0xe /opt/microchip/xc32/v4.21/bin/bin/../../lib/gcc/pic32mx/8.3.1/../../../../pic32mx/lib/fpu64/libpic32.a(pic32_init_tlb_ebi_sqi.o)
 .xc_stack_usage
                0x0000000000000000       0x26 /opt/microchip/xc32/v4.21/bin/bin/../../lib/gcc/pic32mx/8.3.1/../../../../pic32mx/lib/fpu64/libpic32.a(pic32_init_tlb_ebi_sqi.o)
 .text          0x0000000000000000        0x0 /opt/microchip/xc32/v4.21/bin/bin/../../lib/gcc/pic32mx/8.3.1/../../../../pic32mx/lib/fpu64/libpic32.a(general-exception.o)
 .data          0x0000000000000000        0x0 /opt/microchip/xc32/v4.21/bin/bin/../../lib/gcc/pic32mx/8.3.1/../../../../pic32mx/lib/fpu64/libpic32.a(general-exception.o)
 .bss           0x0000000000000000        0x0 /opt/microchip/xc32/v4.21/bin/bin/../../lib/gcc/pic32mx/8.3.1/../../../../pic32mx/lib/fpu64/libpic32.a(general-exception.o)
 .reginfo       0x0000000000000000       0x18 /opt/microchip/xc32/v4.21/bin/bin/../../lib/gcc/pic32mx/8.3.1/../../../../pic32mx/lib/fpu64/libpic32.a(general-exception.o)
 .MIPS.abiflags
                0x0000000000000000       0x18 /opt/microchip/xc32/v4.21/bin/bin/../../lib/gcc/pic32mx/8.3.1/../../../../pic32mx/lib/fpu64/libpic32.a(general-exception.o)
 .xc_stack_usage.hdr
                0x0000000000000000        0xe /opt/microchip/xc32/v4.21/bin/bin/../../lib/gcc/pic32mx/8.3.1/../../../../pic32mx/lib/fpu64/libpic32.a(general-exception.o)
 .xc_stack_usage
                0x0000000000000000       0x28 /opt/microchip/xc32/v4.21/bin/bin/../../lib/gcc/pic32mx/8.3.1/../../../../pic32mx/lib/fpu64/libpic32.a(general-exception.o)
 .text          0x0000000000000000        0x0 /opt/microchip/xc32/v4.21/bin/bin/../../lib/gcc/pic32mx/8.3.1/../../../../pic32mx/lib/fpu64/libpic32.a(cache-err-exception.o)
 .data          0x0000000000000000        0x0 /opt/microchip/xc32/v4.21/bin/bin/../../lib/gcc/pic32mx/8.3.1/../../../../pic32mx/lib/fpu64/libpic32.a(cache-err-exception.o)
 .bss           0x0000000000000000        0x0 /opt/microchip/xc32/v4.21/bin/bin/../../lib/gcc/pic32mx/8.3.1/../../../../pic32mx/lib/fpu64/libpic32.a(cache-err-exception.o)
 .reginfo       0x0000000000000000       0x18 /opt/microchip/xc32/v4.21/bin/bin/../../lib/gcc/pic32mx/8.3.1/../../../../pic32mx/lib/fpu64/libpic32.a(cache-err-exception.o)
 .MIPS.abiflags
                0x0000000000000000       0x18 /opt/microchip/xc32/v4.21/bin/bin/../../lib/gcc/pic32mx/8.3.1/../../../../pic32mx/lib/fpu64/libpic32.a(cache-err-exception.o)
 .xc_stack_usage.hdr
                0x0000000000000000        0xe /opt/microchip/xc32/v4.21/bin/bin/../../lib/gcc/pic32mx/8.3.1/../../../../pic32mx/lib/fpu64/libpic32.a(cache-err-exception.o)
 .xc_stack_usage
                0x0000000000000000       0x2a /opt/microchip/xc32/v4.21/bin/bin/../../lib/gcc/pic32mx/8.3.1/../../../../pic32mx/lib/fpu64/libpic32.a(cache-err-exception.o)
 .text          0x0000000000000000        0x0 /opt/microchip/xc32/v4.21/bin/bin/../../lib/gcc/pic32mx/8.3.1/../../../../pic32mx/lib/fpu64/libpic32.a(simple-tlb-refill-exception.o)
 .data          0x0000000000000000        0x0 /opt/microchip/xc32/v4.21/bin/bin/../../lib/gcc/pic32mx/8.3.1/../../../../pic32mx/lib/fpu64/libpic32.a(simple-tlb-refill-exception.o)
 .bss           0x0000000000000000        0x0 /opt/microchip/xc32/v4.21/bin/bin/../../lib/gcc/pic32mx/8.3.1/../../../../pic32mx/lib/fpu64/libpic32.a(simple-tlb-refill-exception.o)
 .reginfo       0x0000000000000000       0x18 /opt/microchip/xc32/v4.21/bin/bin/../../lib/gcc/pic32mx/8.3.1/../../../../pic32mx/lib/fpu64/libpic32.a(simple-tlb-refill-exception.o)
 .MIPS.abiflags
                0x0000000000000000       0x18 /opt/microchip/xc32/v4.21/bin/bin/../../lib/gcc/pic32mx/8.3.1/../../../../pic32mx/lib/fpu64/libpic32.a(simple-tlb-refill-exception.o)
 .xc_stack_usage.hdr
                0x0000000000000000        0xe /opt/microchip/xc32/v4.21/bin/bin/../../lib/gcc/pic32mx/8.3.1/../../../../pic32mx/lib/fpu64/libpic32.a(simple-tlb-refill-exception.o)
 .xc_stack_usage
                0x0000000000000000       0x32 /opt/microchip/xc32/v4.21/bin/bin/../../lib/gcc/pic32mx/8.3.1/../../../../pic32mx/lib/fpu64/libpic32.a(simple-tlb-refill-exception.o)
 .text          0x0000000000000000        0x0 /opt/microchip/xc32/v4.21/bin/bin/../../lib/gcc/pic32mx/8.3.1/../../../../pic32mx/lib/fpu64/libpic32.a(defaultinterrupt.o)
 .data          0x0000000000000000        0x0 /opt/microchip/xc32/v4.21/bin/bin/../../lib/gcc/pic32mx/8.3.1/../../../../pic32mx/lib/fpu64/libpic32.a(defaultinterrupt.o)
 .bss           0x0000000000000000        0x0 /opt/microchip/xc32/v4.21/bin/bin/../../lib/gcc/pic32mx/8.3.1/../../../../pic32mx/lib/fpu64/libpic32.a(defaultinterrupt.o)
 .reginfo       0x0000000000000000       0x18 /opt/microchip/xc32/v4.21/bin/bin/../../lib/gcc/pic32mx/8.3.1/../../../../pic32mx/lib/fpu64/libpic32.a(defaultinterrupt.o)
 .MIPS.abiflags
                0x0000000000000000       0x18 /opt/microchip/xc32/v4.21/bin/bin/../../lib/gcc/pic32mx/8.3.1/../../../../pic32mx/lib/fpu64/libpic32.a(defaultinterrupt.o)
 .xc_stack_usage
                0x0000000000000000       0x1f /opt/microchip/xc32/v4.21/bin/bin/../../lib/gcc/pic32mx/8.3.1/../../../../pic32mx/lib/fpu64/libpic32.a(defaultinterrupt.o)
 .xc_stack_usage.hdr
                0x0000000000000000        0xe /opt/microchip/xc32/v4.21/bin/bin/../../lib/gcc/pic32mx/8.3.1/../../../../pic32mx/lib/fpu64/libpic32.a(defaultinterrupt.o)
 .text          0x0000000000000000        0x0 /opt/microchip/xc32/v4.21/bin/bin/../../lib/gcc/pic32mx/8.3.1/../../../../pic32mx/lib/fpu64/libc-musl.a(__sio_sprintf_doux.o)
 .data          0x0000000000000000        0x0 /opt/microchip/xc32/v4.21/bin/bin/../../lib/gcc/pic32mx/8.3.1/../../../../pic32mx/lib/fpu64/libc-musl.a(__sio_sprintf_doux.o)
 .bss           0x0000000000000000        0x0 /opt/microchip/xc32/v4.21/bin/bin/../../lib/gcc/pic32mx/8.3.1/../../../../pic32mx/lib/fpu64/libc-musl.a(__sio_sprintf_doux.o)
 .reginfo       0x0000000000000000       0x18 /opt/microchip/xc32/v4.21/bin/bin/../../lib/gcc/pic32mx/8.3.1/../../../../pic32mx/lib/fpu64/libc-musl.a(__sio_sprintf_doux.o)
 .MIPS.abiflags
                0x0000000000000000       0x18 /opt/microchip/xc32/v4.21/bin/bin/../../lib/gcc/pic32mx/8.3.1/../../../../pic32mx/lib/fpu64/libc-musl.a(__sio_sprintf_doux.o)
 .xc_stack_usage
                0x0000000000000000       0x3c /opt/microchip/xc32/v4.21/bin/bin/../../lib/gcc/pic32mx/8.3.1/../../../../pic32mx/lib/fpu64/libc-musl.a(__sio_sprintf_doux.o)
 .text.__sio_sprintf_doux
                0x0000000000000000       0x4c /opt/microchip/xc32/v4.21/bin/bin/../../lib/gcc/pic32mx/8.3.1/../../../../pic32mx/lib/fpu64/libc-musl.a(__sio_sprintf_doux.o)
 .xc_stack_usage.hdr
                0x0000000000000000        0xe /opt/microchip/xc32/v4.21/bin/bin/../../lib/gcc/pic32mx/8.3.1/../../../../pic32mx/lib/fpu64/libc-musl.a(__sio_sprintf_doux.o)
 .note.GNU-stack
                0x0000000000000000        0x0 /opt/microchip/xc32/v4.21/bin/bin/../../lib/gcc/pic32mx/8.3.1/../../../../pic32mx/lib/fpu64/libc-musl.a(__sio_sprintf_doux.o)
 .text          0x0000000000000000        0x0 /opt/microchip/xc32/v4.21/bin/bin/../../lib/gcc/pic32mx/8.3.1/../../../../pic32mx/lib/fpu64/libc-musl.a(__fmt_d.o)
 .data          0x0000000000000000        0x0 /opt/microchip/xc32/v4.21/bin/bin/../../lib/gcc/pic32mx/8.3.1/../../../../pic32mx/lib/fpu64/libc-musl.a(__fmt_d.o)
 .bss           0x0000000000000000        0x0 /opt/microchip/xc32/v4.21/bin/bin/../../lib/gcc/pic32mx/8.3.1/../../../../pic32mx/lib/fpu64/libc-musl.a(__fmt_d.o)
 .reginfo       0x0000000000000000       0x18 /opt/microchip/xc32/v4.21/bin/bin/../../lib/gcc/pic32mx/8.3.1/../../../../pic32mx/lib/fpu64/libc-musl.a(__fmt_d.o)
 .MIPS.abiflags
                0x0000000000000000       0x18 /opt/microchip/xc32/v4.21/bin/bin/../../lib/gcc/pic32mx/8.3.1/../../../../pic32mx/lib/fpu64/libc-musl.a(__fmt_d.o)
 .xc_stack_usage
                0x0000000000000000       0x15 /opt/microchip/xc32/v4.21/bin/bin/../../lib/gcc/pic32mx/8.3.1/../../../../pic32mx/lib/fpu64/libc-musl.a(__fmt_d.o)
 .xc_stack_usage.hdr
                0x0000000000000000        0xe /opt/microchip/xc32/v4.21/bin/bin/../../lib/gcc/pic32mx/8.3.1/../../../../pic32mx/lib/fpu64/libc-musl.a(__fmt_d.o)
 .note.GNU-stack
                0x0000000000000000        0x0 /opt/microchip/xc32/v4.21/bin/bin/../../lib/gcc/pic32mx/8.3.1/../../../../pic32mx/lib/fpu64/libc-musl.a(__fmt_d.o)
 .text          0x0000000000000000        0x0 /opt/microchip/xc32/v4.21/bin/bin/../../lib/gcc/pic32mx/8.3.1/../../../../pic32mx/lib/fpu64/libc-musl.a(__fmt_o.o)
 .data          0x0000000000000000        0x0 /opt/microchip/xc32/v4.21/bin/bin/../../lib/gcc/pic32mx/8.3.1/../../../../pic32mx/lib/fpu64/libc-musl.a(__fmt_o.o)
 .bss           0x0000000000000000        0x0 /opt/microchip/xc32/v4.21/bin/bin/../../lib/gcc/pic32mx/8.3.1/../../../../pic32mx/lib/fpu64/libc-musl.a(__fmt_o.o)
 .reginfo       0x0000000000000000       0x18 /opt/microchip/xc32/v4.21/bin/bin/../../lib/gcc/pic32mx/8.3.1/../../../../pic32mx/lib/fpu64/libc-musl.a(__fmt_o.o)
 .MIPS.abiflags
                0x0000000000000000       0x18 /opt/microchip/xc32/v4.21/bin/bin/../../lib/gcc/pic32mx/8.3.1/../../../../pic32mx/lib/fpu64/libc-musl.a(__fmt_o.o)
 .xc_stack_usage
                0x0000000000000000       0x15 /opt/microchip/xc32/v4.21/bin/bin/../../lib/gcc/pic32mx/8.3.1/../../../../pic32mx/lib/fpu64/libc-musl.a(__fmt_o.o)
 .xc_stack_usage.hdr
                0x0000000000000000        0xe /opt/microchip/xc32/v4.21/bin/bin/../../lib/gcc/pic32mx/8.3.1/../../../../pic32mx/lib/fpu64/libc-musl.a(__fmt_o.o)
 .note.GNU-stack
                0x0000000000000000        0x0 /opt/microchip/xc32/v4.21/bin/bin/../../lib/gcc/pic32mx/8.3.1/../../../../pic32mx/lib/fpu64/libc-musl.a(__fmt_o.o)
 .text          0x0000000000000000        0x0 /opt/microchip/xc32/v4.21/bin/bin/../../lib/gcc/pic32mx/8.3.1/../../../../pic32mx/lib/fpu64/libc-musl.a(__fmt_s.o)
 .data          0x0000000000000000        0x0 /opt/microchip/xc32/v4.21/bin/bin/../../lib/gcc/pic32mx/8.3.1/../../../../pic32mx/lib/fpu64/libc-musl.a(__fmt_s.o)
 .bss           0x0000000000000000        0x0 /opt/microchip/xc32/v4.21/bin/bin/../../lib/gcc/pic32mx/8.3.1/../../../../pic32mx/lib/fpu64/libc-musl.a(__fmt_s.o)
 .reginfo       0x0000000000000000       0x18 /opt/microchip/xc32/v4.21/bin/bin/../../lib/gcc/pic32mx/8.3.1/../../../../pic32mx/lib/fpu64/libc-musl.a(__fmt_s.o)
 .MIPS.abiflags
                0x0000000000000000       0x18 /opt/microchip/xc32/v4.21/bin/bin/../../lib/gcc/pic32mx/8.3.1/../../../../pic32mx/lib/fpu64/libc-musl.a(__fmt_s.o)
 .xc_stack_usage
                0x0000000000000000       0x15 /opt/microchip/xc32/v4.21/bin/bin/../../lib/gcc/pic32mx/8.3.1/../../../../pic32mx/lib/fpu64/libc-musl.a(__fmt_s.o)
 .xc_stack_usage.hdr
                0x0000000000000000        0xe /opt/microchip/xc32/v4.21/bin/bin/../../lib/gcc/pic32mx/8.3.1/../../../../pic32mx/lib/fpu64/libc-musl.a(__fmt_s.o)
 .note.GNU-stack
                0x0000000000000000        0x0 /opt/microchip/xc32/v4.21/bin/bin/../../lib/gcc/pic32mx/8.3.1/../../../../pic32mx/lib/fpu64/libc-musl.a(__fmt_s.o)
 .text          0x0000000000000000        0x0 /opt/microchip/xc32/v4.21/bin/bin/../../lib/gcc/pic32mx/8.3.1/../../../../pic32mx/lib/fpu64/libc-musl.a(__fmt_u.o)
 .data          0x0000000000000000        0x0 /opt/microchip/xc32/v4.21/bin/bin/../../lib/gcc/pic32mx/8.3.1/../../../../pic32mx/lib/fpu64/libc-musl.a(__fmt_u.o)
 .bss           0x0000000000000000        0x0 /opt/microchip/xc32/v4.21/bin/bin/../../lib/gcc/pic32mx/8.3.1/../../../../pic32mx/lib/fpu64/libc-musl.a(__fmt_u.o)
 .reginfo       0x0000000000000000       0x18 /opt/microchip/xc32/v4.21/bin/bin/../../lib/gcc/pic32mx/8.3.1/../../../../pic32mx/lib/fpu64/libc-musl.a(__fmt_u.o)
 .MIPS.abiflags
                0x0000000000000000       0x18 /opt/microchip/xc32/v4.21/bin/bin/../../lib/gcc/pic32mx/8.3.1/../../../../pic32mx/lib/fpu64/libc-musl.a(__fmt_u.o)
 .xc_stack_usage
                0x0000000000000000       0x2a /opt/microchip/xc32/v4.21/bin/bin/../../lib/gcc/pic32mx/8.3.1/../../../../pic32mx/lib/fpu64/libc-musl.a(__fmt_u.o)
 .xc_stack_usage.hdr
                0x0000000000000000        0xe /opt/microchip/xc32/v4.21/bin/bin/../../lib/gcc/pic32mx/8.3.1/../../../../pic32mx/lib/fpu64/libc-musl.a(__fmt_u.o)
 .note.GNU-stack
                0x0000000000000000        0x0 /opt/microchip/xc32/v4.21/bin/bin/../../lib/gcc/pic32mx/8.3.1/../../../../pic32mx/lib/fpu64/libc-musl.a(__fmt_u.o)
 .text          0x0000000000000000        0x0 /opt/microchip/xc32/v4.21/bin/bin/../../lib/gcc/pic32mx/8.3.1/../../../../pic32mx/lib/fpu64/libc-musl.a(__fmt_x.o)
 .data          0x0000000000000000        0x0 /opt/microchip/xc32/v4.21/bin/bin/../../lib/gcc/pic32mx/8.3.1/../../../../pic32mx/lib/fpu64/libc-musl.a(__fmt_x.o)
 .bss           0x0000000000000000        0x0 /opt/microchip/xc32/v4.21/bin/bin/../../lib/gcc/pic32mx/8.3.1/../../../../pic32mx/lib/fpu64/libc-musl.a(__fmt_x.o)
 .reginfo       0x0000000000000000       0x18 /opt/microchip/xc32/v4.21/bin/bin/../../lib/gcc/pic32mx/8.3.1/../../../../pic32mx/lib/fpu64/libc-musl.a(__fmt_x.o)
 .MIPS.abiflags
                0x0000000000000000       0x18 /opt/microchip/xc32/v4.21/bin/bin/../../lib/gcc/pic32mx/8.3.1/../../../../pic32mx/lib/fpu64/libc-musl.a(__fmt_x.o)
 .xc_stack_usage
                0x0000000000000000       0x15 /opt/microchip/xc32/v4.21/bin/bin/../../lib/gcc/pic32mx/8.3.1/../../../../pic32mx/lib/fpu64/libc-musl.a(__fmt_x.o)
 .xc_stack_usage.hdr
                0x0000000000000000        0xe /opt/microchip/xc32/v4.21/bin/bin/../../lib/gcc/pic32mx/8.3.1/../../../../pic32mx/lib/fpu64/libc-musl.a(__fmt_x.o)
 .note.GNU-stack
                0x0000000000000000        0x0 /opt/microchip/xc32/v4.21/bin/bin/../../lib/gcc/pic32mx/8.3.1/../../../../pic32mx/lib/fpu64/libc-musl.a(__fmt_x.o)
 .text          0x0000000000000000        0x0 /opt/microchip/xc32/v4.21/bin/bin/../../lib/gcc/pic32mx/8.3.1/../../../../pic32mx/lib/fpu64/libc-musl.a(__pop_int.o)
 .data          0x0000000000000000        0x0 /opt/microchip/xc32/v4.21/bin/bin/../../lib/gcc/pic32mx/8.3.1/../../../../pic32mx/lib/fpu64/libc-musl.a(__pop_int.o)
 .bss           0x0000000000000000        0x0 /opt/microchip/xc32/v4.21/bin/bin/../../lib/gcc/pic32mx/8.3.1/../../../../pic32mx/lib/fpu64/libc-musl.a(__pop_int.o)
 .reginfo       0x0000000000000000       0x18 /opt/microchip/xc32/v4.21/bin/bin/../../lib/gcc/pic32mx/8.3.1/../../../../pic32mx/lib/fpu64/libc-musl.a(__pop_int.o)
 .MIPS.abiflags
                0x0000000000000000       0x18 /opt/microchip/xc32/v4.21/bin/bin/../../lib/gcc/pic32mx/8.3.1/../../../../pic32mx/lib/fpu64/libc-musl.a(__pop_int.o)
 .xc_stack_usage
                0x0000000000000000       0x17 /opt/microchip/xc32/v4.21/bin/bin/../../lib/gcc/pic32mx/8.3.1/../../../../pic32mx/lib/fpu64/libc-musl.a(__pop_int.o)
 .xc_stack_usage.hdr
                0x0000000000000000        0xe /opt/microchip/xc32/v4.21/bin/bin/../../lib/gcc/pic32mx/8.3.1/../../../../pic32mx/lib/fpu64/libc-musl.a(__pop_int.o)
 .note.GNU-stack
                0x0000000000000000        0x0 /opt/microchip/xc32/v4.21/bin/bin/../../lib/gcc/pic32mx/8.3.1/../../../../pic32mx/lib/fpu64/libc-musl.a(__pop_int.o)
 .text          0x0000000000000000        0x0 /opt/microchip/xc32/v4.21/bin/bin/../../lib/gcc/pic32mx/8.3.1/../../../../pic32mx/lib/fpu64/libc-musl.a(__pop_ptr.o)
 .data          0x0000000000000000        0x0 /opt/microchip/xc32/v4.21/bin/bin/../../lib/gcc/pic32mx/8.3.1/../../../../pic32mx/lib/fpu64/libc-musl.a(__pop_ptr.o)
 .bss           0x0000000000000000        0x0 /opt/microchip/xc32/v4.21/bin/bin/../../lib/gcc/pic32mx/8.3.1/../../../../pic32mx/lib/fpu64/libc-musl.a(__pop_ptr.o)
 .reginfo       0x0000000000000000       0x18 /opt/microchip/xc32/v4.21/bin/bin/../../lib/gcc/pic32mx/8.3.1/../../../../pic32mx/lib/fpu64/libc-musl.a(__pop_ptr.o)
 .MIPS.abiflags
                0x0000000000000000       0x18 /opt/microchip/xc32/v4.21/bin/bin/../../lib/gcc/pic32mx/8.3.1/../../../../pic32mx/lib/fpu64/libc-musl.a(__pop_ptr.o)
 .xc_stack_usage
                0x0000000000000000       0x17 /opt/microchip/xc32/v4.21/bin/bin/../../lib/gcc/pic32mx/8.3.1/../../../../pic32mx/lib/fpu64/libc-musl.a(__pop_ptr.o)
 .xc_stack_usage.hdr
                0x0000000000000000        0xe /opt/microchip/xc32/v4.21/bin/bin/../../lib/gcc/pic32mx/8.3.1/../../../../pic32mx/lib/fpu64/libc-musl.a(__pop_ptr.o)
 .note.GNU-stack
                0x0000000000000000        0x0 /opt/microchip/xc32/v4.21/bin/bin/../../lib/gcc/pic32mx/8.3.1/../../../../pic32mx/lib/fpu64/libc-musl.a(__pop_ptr.o)
 .text          0x0000000000000000        0x0 /opt/microchip/xc32/v4.21/bin/bin/../../lib/gcc/pic32mx/8.3.1/../../../../pic32mx/lib/fpu64/libc-musl.a(__printf_core.o)
 .data          0x0000000000000000        0x0 /opt/microchip/xc32/v4.21/bin/bin/../../lib/gcc/pic32mx/8.3.1/../../../../pic32mx/lib/fpu64/libc-musl.a(__printf_core.o)
 .bss           0x0000000000000000        0x0 /opt/microchip/xc32/v4.21/bin/bin/../../lib/gcc/pic32mx/8.3.1/../../../../pic32mx/lib/fpu64/libc-musl.a(__printf_core.o)
 .reginfo       0x0000000000000000       0x18 /opt/microchip/xc32/v4.21/bin/bin/../../lib/gcc/pic32mx/8.3.1/../../../../pic32mx/lib/fpu64/libc-musl.a(__printf_core.o)
 .MIPS.abiflags
                0x0000000000000000       0x18 /opt/microchip/xc32/v4.21/bin/bin/../../lib/gcc/pic32mx/8.3.1/../../../../pic32mx/lib/fpu64/libc-musl.a(__printf_core.o)
 .xc_stack_usage
                0x0000000000000000       0xaf /opt/microchip/xc32/v4.21/bin/bin/../../lib/gcc/pic32mx/8.3.1/../../../../pic32mx/lib/fpu64/libc-musl.a(__printf_core.o)
 .text.__dummy_fmt3
                0x0000000000000000        0x8 /opt/microchip/xc32/v4.21/bin/bin/../../lib/gcc/pic32mx/8.3.1/../../../../pic32mx/lib/fpu64/libc-musl.a(__printf_core.o)
 .text.__dummy_fmts
                0x0000000000000000        0x8 /opt/microchip/xc32/v4.21/bin/bin/../../lib/gcc/pic32mx/8.3.1/../../../../pic32mx/lib/fpu64/libc-musl.a(__printf_core.o)
 .xc_stack_usage.hdr
                0x0000000000000000        0xe /opt/microchip/xc32/v4.21/bin/bin/../../lib/gcc/pic32mx/8.3.1/../../../../pic32mx/lib/fpu64/libc-musl.a(__printf_core.o)
 .note.GNU-stack
                0x0000000000000000        0x0 /opt/microchip/xc32/v4.21/bin/bin/../../lib/gcc/pic32mx/8.3.1/../../../../pic32mx/lib/fpu64/libc-musl.a(__printf_core.o)
 .text          0x0000000000000000        0x0 /opt/microchip/xc32/v4.21/bin/bin/../../lib/gcc/pic32mx/8.3.1/../../../../pic32mx/lib/fpu64/libc-musl.a(atoi.o)
 .data          0x0000000000000000        0x0 /opt/microchip/xc32/v4.21/bin/bin/../../lib/gcc/pic32mx/8.3.1/../../../../pic32mx/lib/fpu64/libc-musl.a(atoi.o)
 .bss           0x0000000000000000        0x0 /opt/microchip/xc32/v4.21/bin/bin/../../lib/gcc/pic32mx/8.3.1/../../../../pic32mx/lib/fpu64/libc-musl.a(atoi.o)
 .reginfo       0x0000000000000000       0x18 /opt/microchip/xc32/v4.21/bin/bin/../../lib/gcc/pic32mx/8.3.1/../../../../pic32mx/lib/fpu64/libc-musl.a(atoi.o)
 .MIPS.abiflags
                0x0000000000000000       0x18 /opt/microchip/xc32/v4.21/bin/bin/../../lib/gcc/pic32mx/8.3.1/../../../../pic32mx/lib/fpu64/libc-musl.a(atoi.o)
 .xc_stack_usage
                0x0000000000000000       0x12 /opt/microchip/xc32/v4.21/bin/bin/../../lib/gcc/pic32mx/8.3.1/../../../../pic32mx/lib/fpu64/libc-musl.a(atoi.o)
 .xc_stack_usage.hdr
                0x0000000000000000        0xe /opt/microchip/xc32/v4.21/bin/bin/../../lib/gcc/pic32mx/8.3.1/../../../../pic32mx/lib/fpu64/libc-musl.a(atoi.o)
 .note.GNU-stack
                0x0000000000000000        0x0 /opt/microchip/xc32/v4.21/bin/bin/../../lib/gcc/pic32mx/8.3.1/../../../../pic32mx/lib/fpu64/libc-musl.a(atoi.o)
 .text          0x0000000000000000        0x0 /opt/microchip/xc32/v4.21/bin/bin/../../lib/gcc/pic32mx/8.3.1/../../../../pic32mx/lib/fpu64/libc-musl.a(memset.o)
 .data          0x0000000000000000        0x0 /opt/microchip/xc32/v4.21/bin/bin/../../lib/gcc/pic32mx/8.3.1/../../../../pic32mx/lib/fpu64/libc-musl.a(memset.o)
 .bss           0x0000000000000000        0x0 /opt/microchip/xc32/v4.21/bin/bin/../../lib/gcc/pic32mx/8.3.1/../../../../pic32mx/lib/fpu64/libc-musl.a(memset.o)
 .reginfo       0x0000000000000000       0x18 /opt/microchip/xc32/v4.21/bin/bin/../../lib/gcc/pic32mx/8.3.1/../../../../pic32mx/lib/fpu64/libc-musl.a(memset.o)
 .MIPS.abiflags
                0x0000000000000000       0x18 /opt/microchip/xc32/v4.21/bin/bin/../../lib/gcc/pic32mx/8.3.1/../../../../pic32mx/lib/fpu64/libc-musl.a(memset.o)
 .xc_stack_usage
                0x0000000000000000       0x14 /opt/microchip/xc32/v4.21/bin/bin/../../lib/gcc/pic32mx/8.3.1/../../../../pic32mx/lib/fpu64/libc-musl.a(memset.o)
 .xc_stack_usage.hdr
                0x0000000000000000        0xe /opt/microchip/xc32/v4.21/bin/bin/../../lib/gcc/pic32mx/8.3.1/../../../../pic32mx/lib/fpu64/libc-musl.a(memset.o)
 .note.GNU-stack
                0x0000000000000000        0x0 /opt/microchip/xc32/v4.21/bin/bin/../../lib/gcc/pic32mx/8.3.1/../../../../pic32mx/lib/fpu64/libc-musl.a(memset.o)
 .text          0x0000000000000000        0x0 /opt/microchip/xc32/v4.21/bin/bin/../../lib/gcc/pic32mx/8.3.1/../../../../pic32mx/lib/fpu64/libc-musl.a(tolower.o)
 .data          0x0000000000000000        0x0 /opt/microchip/xc32/v4.21/bin/bin/../../lib/gcc/pic32mx/8.3.1/../../../../pic32mx/lib/fpu64/libc-musl.a(tolower.o)
 .bss           0x0000000000000000        0x0 /opt/microchip/xc32/v4.21/bin/bin/../../lib/gcc/pic32mx/8.3.1/../../../../pic32mx/lib/fpu64/libc-musl.a(tolower.o)
 .reginfo       0x0000000000000000       0x18 /opt/microchip/xc32/v4.21/bin/bin/../../lib/gcc/pic32mx/8.3.1/../../../../pic32mx/lib/fpu64/libc-musl.a(tolower.o)
 .MIPS.abiflags
                0x0000000000000000       0x18 /opt/microchip/xc32/v4.21/bin/bin/../../lib/gcc/pic32mx/8.3.1/../../../../pic32mx/lib/fpu64/libc-musl.a(tolower.o)
 .xc_stack_usage
                0x0000000000000000       0x2e /opt/microchip/xc32/v4.21/bin/bin/../../lib/gcc/pic32mx/8.3.1/../../../../pic32mx/lib/fpu64/libc-musl.a(tolower.o)
 .text.__tolower_l
                0x0000000000000000       0x1c /opt/microchip/xc32/v4.21/bin/bin/../../lib/gcc/pic32mx/8.3.1/../../../../pic32mx/lib/fpu64/libc-musl.a(tolower.o)
 .xc_stack_usage.hdr
                0x0000000000000000        0xe /opt/microchip/xc32/v4.21/bin/bin/../../lib/gcc/pic32mx/8.3.1/../../../../pic32mx/lib/fpu64/libc-musl.a(tolower.o)
 .note.GNU-stack
                0x0000000000000000        0x0 /opt/microchip/xc32/v4.21/bin/bin/../../lib/gcc/pic32mx/8.3.1/../../../../pic32mx/lib/fpu64/libc-musl.a(tolower.o)
 .text          0x0000000000000000        0x0 /opt/microchip/xc32/v4.21/bin/bin/../../lib/gcc/pic32mx/8.3.1/../../../../pic32mx/lib/fpu64/libc-musl.a(toupper.o)
 .data          0x0000000000000000        0x0 /opt/microchip/xc32/v4.21/bin/bin/../../lib/gcc/pic32mx/8.3.1/../../../../pic32mx/lib/fpu64/libc-musl.a(toupper.o)
 .bss           0x0000000000000000        0x0 /opt/microchip/xc32/v4.21/bin/bin/../../lib/gcc/pic32mx/8.3.1/../../../../pic32mx/lib/fpu64/libc-musl.a(toupper.o)
 .reginfo       0x0000000000000000       0x18 /opt/microchip/xc32/v4.21/bin/bin/../../lib/gcc/pic32mx/8.3.1/../../../../pic32mx/lib/fpu64/libc-musl.a(toupper.o)
 .MIPS.abiflags
                0x0000000000000000       0x18 /opt/microchip/xc32/v4.21/bin/bin/../../lib/gcc/pic32mx/8.3.1/../../../../pic32mx/lib/fpu64/libc-musl.a(toupper.o)
 .xc_stack_usage
                0x0000000000000000       0x2e /opt/microchip/xc32/v4.21/bin/bin/../../lib/gcc/pic32mx/8.3.1/../../../../pic32mx/lib/fpu64/libc-musl.a(toupper.o)
 .text.__toupper_l
                0x0000000000000000       0x1c /opt/microchip/xc32/v4.21/bin/bin/../../lib/gcc/pic32mx/8.3.1/../../../../pic32mx/lib/fpu64/libc-musl.a(toupper.o)
 .xc_stack_usage.hdr
                0x0000000000000000        0xe /opt/microchip/xc32/v4.21/bin/bin/../../lib/gcc/pic32mx/8.3.1/../../../../pic32mx/lib/fpu64/libc-musl.a(toupper.o)
 .note.GNU-stack
                0x0000000000000000        0x0 /opt/microchip/xc32/v4.21/bin/bin/../../lib/gcc/pic32mx/8.3.1/../../../../pic32mx/lib/fpu64/libc-musl.a(toupper.o)
 .text          0x0000000000000000        0x0 /opt/microchip/xc32/v4.21/bin/bin/../../lib/gcc/pic32mx/8.3.1/../../../../pic32mx/lib/fpu64/libc-musl.a(__int_vsprintf.o)
 .data          0x0000000000000000        0x0 /opt/microchip/xc32/v4.21/bin/bin/../../lib/gcc/pic32mx/8.3.1/../../../../pic32mx/lib/fpu64/libc-musl.a(__int_vsprintf.o)
 .bss           0x0000000000000000        0x0 /opt/microchip/xc32/v4.21/bin/bin/../../lib/gcc/pic32mx/8.3.1/../../../../pic32mx/lib/fpu64/libc-musl.a(__int_vsprintf.o)
 .reginfo       0x0000000000000000       0x18 /opt/microchip/xc32/v4.21/bin/bin/../../lib/gcc/pic32mx/8.3.1/../../../../pic32mx/lib/fpu64/libc-musl.a(__int_vsprintf.o)
 .MIPS.abiflags
                0x0000000000000000       0x18 /opt/microchip/xc32/v4.21/bin/bin/../../lib/gcc/pic32mx/8.3.1/../../../../pic32mx/lib/fpu64/libc-musl.a(__int_vsprintf.o)
 .xc_stack_usage
                0x0000000000000000       0x18 /opt/microchip/xc32/v4.21/bin/bin/../../lib/gcc/pic32mx/8.3.1/../../../../pic32mx/lib/fpu64/libc-musl.a(__int_vsprintf.o)
 .xc_stack_usage.hdr
                0x0000000000000000        0xe /opt/microchip/xc32/v4.21/bin/bin/../../lib/gcc/pic32mx/8.3.1/../../../../pic32mx/lib/fpu64/libc-musl.a(__int_vsprintf.o)
 .note.GNU-stack
                0x0000000000000000        0x0 /opt/microchip/xc32/v4.21/bin/bin/../../lib/gcc/pic32mx/8.3.1/../../../../pic32mx/lib/fpu64/libc-musl.a(__int_vsprintf.o)
 .text          0x0000000000000000        0x0 /opt/microchip/xc32/v4.21/bin/bin/../../lib/gcc/pic32mx/8.3.1/../../../../pic32mx/lib/fpu64/libc-musl.a(__pop_float.o)
 .data          0x0000000000000000        0x0 /opt/microchip/xc32/v4.21/bin/bin/../../lib/gcc/pic32mx/8.3.1/../../../../pic32mx/lib/fpu64/libc-musl.a(__pop_float.o)
 .bss           0x0000000000000000        0x0 /opt/microchip/xc32/v4.21/bin/bin/../../lib/gcc/pic32mx/8.3.1/../../../../pic32mx/lib/fpu64/libc-musl.a(__pop_float.o)
 .reginfo       0x0000000000000000       0x18 /opt/microchip/xc32/v4.21/bin/bin/../../lib/gcc/pic32mx/8.3.1/../../../../pic32mx/lib/fpu64/libc-musl.a(__pop_float.o)
 .MIPS.abiflags
                0x0000000000000000       0x18 /opt/microchip/xc32/v4.21/bin/bin/../../lib/gcc/pic32mx/8.3.1/../../../../pic32mx/lib/fpu64/libc-musl.a(__pop_float.o)
 .xc_stack_usage
                0x0000000000000000       0x19 /opt/microchip/xc32/v4.21/bin/bin/../../lib/gcc/pic32mx/8.3.1/../../../../pic32mx/lib/fpu64/libc-musl.a(__pop_float.o)
 .xc_stack_usage.hdr
                0x0000000000000000        0xe /opt/microchip/xc32/v4.21/bin/bin/../../lib/gcc/pic32mx/8.3.1/../../../../pic32mx/lib/fpu64/libc-musl.a(__pop_float.o)
 .note.GNU-stack
                0x0000000000000000        0x0 /opt/microchip/xc32/v4.21/bin/bin/../../lib/gcc/pic32mx/8.3.1/../../../../pic32mx/lib/fpu64/libc-musl.a(__pop_float.o)
 .text          0x0000000000000000        0x0 /opt/microchip/xc32/v4.21/bin/bin/../../lib/gcc/pic32mx/8.3.1/../../../../pic32mx/lib/fpu64/libc-musl.a(__int_vsnprintf.o)
 .data          0x0000000000000000        0x0 /opt/microchip/xc32/v4.21/bin/bin/../../lib/gcc/pic32mx/8.3.1/../../../../pic32mx/lib/fpu64/libc-musl.a(__int_vsnprintf.o)
 .bss           0x0000000000000000        0x0 /opt/microchip/xc32/v4.21/bin/bin/../../lib/gcc/pic32mx/8.3.1/../../../../pic32mx/lib/fpu64/libc-musl.a(__int_vsnprintf.o)
 .reginfo       0x0000000000000000       0x18 /opt/microchip/xc32/v4.21/bin/bin/../../lib/gcc/pic32mx/8.3.1/../../../../pic32mx/lib/fpu64/libc-musl.a(__int_vsnprintf.o)
 .MIPS.abiflags
                0x0000000000000000       0x18 /opt/microchip/xc32/v4.21/bin/bin/../../lib/gcc/pic32mx/8.3.1/../../../../pic32mx/lib/fpu64/libc-musl.a(__int_vsnprintf.o)
 .xc_stack_usage
                0x0000000000000000       0x19 /opt/microchip/xc32/v4.21/bin/bin/../../lib/gcc/pic32mx/8.3.1/../../../../pic32mx/lib/fpu64/libc-musl.a(__int_vsnprintf.o)
 .xc_stack_usage.hdr
                0x0000000000000000        0xe /opt/microchip/xc32/v4.21/bin/bin/../../lib/gcc/pic32mx/8.3.1/../../../../pic32mx/lib/fpu64/libc-musl.a(__int_vsnprintf.o)
 .note.GNU-stack
                0x0000000000000000        0x0 /opt/microchip/xc32/v4.21/bin/bin/../../lib/gcc/pic32mx/8.3.1/../../../../pic32mx/lib/fpu64/libc-musl.a(__int_vsnprintf.o)
 .text          0x0000000000000000        0x0 /opt/microchip/xc32/v4.21/bin/bin/../../lib/gcc/pic32mx/8.3.1/../../../../pic32mx/lib/fpu64/libc-musl.a(__int_vfprintf.o)
 .data          0x0000000000000000        0x0 /opt/microchip/xc32/v4.21/bin/bin/../../lib/gcc/pic32mx/8.3.1/../../../../pic32mx/lib/fpu64/libc-musl.a(__int_vfprintf.o)
 .bss           0x0000000000000000        0x0 /opt/microchip/xc32/v4.21/bin/bin/../../lib/gcc/pic32mx/8.3.1/../../../../pic32mx/lib/fpu64/libc-musl.a(__int_vfprintf.o)
 .reginfo       0x0000000000000000       0x18 /opt/microchip/xc32/v4.21/bin/bin/../../lib/gcc/pic32mx/8.3.1/../../../../pic32mx/lib/fpu64/libc-musl.a(__int_vfprintf.o)
 .MIPS.abiflags
                0x0000000000000000       0x18 /opt/microchip/xc32/v4.21/bin/bin/../../lib/gcc/pic32mx/8.3.1/../../../../pic32mx/lib/fpu64/libc-musl.a(__int_vfprintf.o)
 .xc_stack_usage
                0x0000000000000000       0x18 /opt/microchip/xc32/v4.21/bin/bin/../../lib/gcc/pic32mx/8.3.1/../../../../pic32mx/lib/fpu64/libc-musl.a(__int_vfprintf.o)
 .xc_stack_usage.hdr
                0x0000000000000000        0xe /opt/microchip/xc32/v4.21/bin/bin/../../lib/gcc/pic32mx/8.3.1/../../../../pic32mx/lib/fpu64/libc-musl.a(__int_vfprintf.o)
 .note.GNU-stack
                0x0000000000000000        0x0 /opt/microchip/xc32/v4.21/bin/bin/../../lib/gcc/pic32mx/8.3.1/../../../../pic32mx/lib/fpu64/libc-musl.a(__int_vfprintf.o)
 .data          0x0000000000000000        0x0 /opt/microchip/xc32/v4.21/bin/bin/../../lib/gcc/pic32mx/8.3.1/fpu64/libgcc.a(_udivdi3.o)
 .bss           0x0000000000000000        0x0 /opt/microchip/xc32/v4.21/bin/bin/../../lib/gcc/pic32mx/8.3.1/fpu64/libgcc.a(_udivdi3.o)
 .reginfo       0x0000000000000000       0x18 /opt/microchip/xc32/v4.21/bin/bin/../../lib/gcc/pic32mx/8.3.1/fpu64/libgcc.a(_udivdi3.o)
 .MIPS.abiflags
                0x0000000000000000       0x18 /opt/microchip/xc32/v4.21/bin/bin/../../lib/gcc/pic32mx/8.3.1/fpu64/libgcc.a(_udivdi3.o)
 .xc_stack_usage
                0x0000000000000000       0x17 /opt/microchip/xc32/v4.21/bin/bin/../../lib/gcc/pic32mx/8.3.1/fpu64/libgcc.a(_udivdi3.o)
 .xc_stack_usage.hdr
                0x0000000000000000        0xe /opt/microchip/xc32/v4.21/bin/bin/../../lib/gcc/pic32mx/8.3.1/fpu64/libgcc.a(_udivdi3.o)
 .data          0x0000000000000000        0x0 /opt/microchip/xc32/v4.21/bin/bin/../../lib/gcc/pic32mx/8.3.1/fpu64/libgcc.a(_umoddi3.o)
 .bss           0x0000000000000000        0x0 /opt/microchip/xc32/v4.21/bin/bin/../../lib/gcc/pic32mx/8.3.1/fpu64/libgcc.a(_umoddi3.o)
 .reginfo       0x0000000000000000       0x18 /opt/microchip/xc32/v4.21/bin/bin/../../lib/gcc/pic32mx/8.3.1/fpu64/libgcc.a(_umoddi3.o)
 .MIPS.abiflags
                0x0000000000000000       0x18 /opt/microchip/xc32/v4.21/bin/bin/../../lib/gcc/pic32mx/8.3.1/fpu64/libgcc.a(_umoddi3.o)
 .xc_stack_usage
                0x0000000000000000       0x17 /opt/microchip/xc32/v4.21/bin/bin/../../lib/gcc/pic32mx/8.3.1/fpu64/libgcc.a(_umoddi3.o)
 .xc_stack_usage.hdr
                0x0000000000000000        0xe /opt/microchip/xc32/v4.21/bin/bin/../../lib/gcc/pic32mx/8.3.1/fpu64/libgcc.a(_umoddi3.o)
 .text          0x0000000000000000        0x0 /opt/microchip/xc32/v4.21/bin/bin/../../lib/gcc/pic32mx/8.3.1/../../../../pic32mx/lib/fpu64/libpic32.a(errno.o)
 .data          0x0000000000000000        0x0 /opt/microchip/xc32/v4.21/bin/bin/../../lib/gcc/pic32mx/8.3.1/../../../../pic32mx/lib/fpu64/libpic32.a(errno.o)
 .bss           0x0000000000000000        0x0 /opt/microchip/xc32/v4.21/bin/bin/../../lib/gcc/pic32mx/8.3.1/../../../../pic32mx/lib/fpu64/libpic32.a(errno.o)
 .reginfo       0x0000000000000000       0x18 /opt/microchip/xc32/v4.21/bin/bin/../../lib/gcc/pic32mx/8.3.1/../../../../pic32mx/lib/fpu64/libpic32.a(errno.o)
 .MIPS.abiflags
                0x0000000000000000       0x18 /opt/microchip/xc32/v4.21/bin/bin/../../lib/gcc/pic32mx/8.3.1/../../../../pic32mx/lib/fpu64/libpic32.a(errno.o)
 .xc_stack_usage.hdr
                0x0000000000000000        0xe /opt/microchip/xc32/v4.21/bin/bin/../../lib/gcc/pic32mx/8.3.1/../../../../pic32mx/lib/fpu64/libpic32.a(errno.o)

Memory Configuration

Name             Origin             Length             Attributes
kseg0_program_mem 0x000000009d000000 0x0000000000200000 xr
kseg0_boot_mem   0x000000009fc004b0 0x0000000000000000
kseg1_boot_mem   0x00000000bfc00000 0x0000000000000480
kseg1_boot_mem_4B0 0x00000000bfc004b0 0x000000000000fa50
config_BFC0FF40  0x00000000bfc0ff40 0x0000000000000004
config_BFC0FF44  0x00000000bfc0ff44 0x0000000000000004
config_BFC0FF48  0x00000000bfc0ff48 0x0000000000000004
config_BFC0FF4C  0x00000000bfc0ff4c 0x0000000000000004
config_BFC0FF50  0x00000000bfc0ff50 0x0000000000000004
config_BFC0FF54  0x00000000bfc0ff54 0x0000000000000004
config_BFC0FF58  0x00000000bfc0ff58 0x0000000000000004
config_BFC0FF5C  0x00000000bfc0ff5c 0x0000000000000004
config_BFC0FF60  0x00000000bfc0ff60 0x0000000000000004
config_BFC0FF64  0x00000000bfc0ff64 0x0000000000000004
config_BFC0FF68  0x00000000bfc0ff68 0x0000000000000004
config_BFC0FF6C  0x00000000bfc0ff6c 0x0000000000000004
config_BFC0FF70  0x00000000bfc0ff70 0x0000000000000004
config_BFC0FF74  0x00000000bfc0ff74 0x0000000000000004
config_BFC0FF78  0x00000000bfc0ff78 0x0000000000000004
config_BFC0FF7C  0x00000000bfc0ff7c 0x0000000000000004
config_BFC0FFC0  0x00000000bfc0ffc0 0x0000000000000004
config_BFC0FFC4  0x00000000bfc0ffc4 0x0000000000000004
config_BFC0FFC8  0x00000000bfc0ffc8 0x0000000000000004
config_BFC0FFCC  0x00000000bfc0ffcc 0x0000000000000004
config_BFC0FFD0  0x00000000bfc0ffd0 0x0000000000000004
config_BFC0FFD4  0x00000000bfc0ffd4 0x0000000000000004
config_BFC0FFD8  0x00000000bfc0ffd8 0x0000000000000004
config_BFC0FFDC  0x00000000bfc0ffdc 0x0000000000000004
config_BFC0FFE0  0x00000000bfc0ffe0 0x0000000000000004
config_BFC0FFE4  0x00000000bfc0ffe4 0x0000000000000004
config_BFC0FFE8  0x00000000bfc0ffe8 0x0000000000000004
config_BFC0FFEC  0x00000000bfc0ffec 0x0000000000000004
config_BFC0FFF0  0x00000000bfc0fff0 0x0000000000000004
config_BFC0FFF4  0x00000000bfc0fff4 0x0000000000000004
config_BFC0FFF8  0x00000000bfc0fff8 0x0000000000000004
config_BFC0FFFC  0x00000000bfc0fffc 0x0000000000000004
lowerbootaliaslastpage 0x00000000bfc10000 0x0000000000004000
upperbootalias   0x00000000bfc20000 0x000000000000ff00
config_BFC2FF40  0x00000000bfc2ff40 0x0000000000000004
config_BFC2FF44  0x00000000bfc2ff44 0x0000000000000004
config_BFC2FF48  0x00000000bfc2ff48 0x0000000000000004
config_BFC2FF4C  0x00000000bfc2ff4c 0x0000000000000004
config_BFC2FF50  0x00000000bfc2ff50 0x0000000000000004
config_BFC2FF54  0x00000000bfc2ff54 0x0000000000000004
config_BFC2FF58  0x00000000bfc2ff58 0x0000000000000004
config_BFC2FF5C  0x00000000bfc2ff5c 0x0000000000000004
config_BFC2FF60  0x00000000bfc2ff60 0x0000000000000004
config_BFC2FF64  0x00000000bfc2ff64 0x0000000000000004
config_BFC2FF68  0x00000000bfc2ff68 0x0000000000000004
config_BFC2FF6C  0x00000000bfc2ff6c 0x0000000000000004
config_BFC2FF70  0x00000000bfc2ff70 0x0000000000000004
config_BFC2FF74  0x00000000bfc2ff74 0x0000000000000004
config_BFC2FF78  0x00000000bfc2ff78 0x0000000000000004
config_BFC2FF7C  0x00000000bfc2ff7c 0x0000000000000004
config_BFC2FFC0  0x00000000bfc2ffc0 0x0000000000000004
config_BFC2FFC4  0x00000000bfc2ffc4 0x0000000000000004
config_BFC2FFC8  0x00000000bfc2ffc8 0x0000000000000004
config_BFC2FFCC  0x00000000bfc2ffcc 0x0000000000000004
config_BFC2FFD0  0x00000000bfc2ffd0 0x0000000000000004
config_BFC2FFD4  0x00000000bfc2ffd4 0x0000000000000004
config_BFC2FFD8  0x00000000bfc2ffd8 0x0000000000000004
config_BFC2FFDC  0x00000000bfc2ffdc 0x0000000000000004
config_BFC2FFE0  0x00000000bfc2ffe0 0x0000000000000004
config_BFC2FFE4  0x00000000bfc2ffe4 0x0000000000000004
config_BFC2FFE8  0x00000000bfc2ffe8 0x0000000000000004
config_BFC2FFEC  0x00000000bfc2ffec 0x0000000000000004
config_BFC2FFF0  0x00000000bfc2fff0 0x0000000000000004
config_BFC2FFF4  0x00000000bfc2fff4 0x0000000000000004
config_BFC2FFF8  0x00000000bfc2fff8 0x0000000000000004
config_BFC2FFFC  0x00000000bfc2fffc 0x0000000000000004
upperbootaliaslastpage 0x00000000bfc30000 0x0000000000004000
boot1            0x00000000bfc40000 0x000000000000ff00
config_BFC4FF40  0x00000000bfc4ff40 0x0000000000000004
config_BFC4FF44  0x00000000bfc4ff44 0x0000000000000004
config_BFC4FF48  0x00000000bfc4ff48 0x0000000000000004
config_BFC4FF4C  0x00000000bfc4ff4c 0x0000000000000004
config_BFC4FF50  0x00000000bfc4ff50 0x0000000000000004
config_BFC4FF54  0x00000000bfc4ff54 0x0000000000000004
config_BFC4FF58  0x00000000bfc4ff58 0x0000000000000004
config_BFC4FF5C  0x00000000bfc4ff5c 0x0000000000000004
config_BFC4FF60  0x00000000bfc4ff60 0x0000000000000004
config_BFC4FF64  0x00000000bfc4ff64 0x0000000000000004
config_BFC4FF68  0x00000000bfc4ff68 0x0000000000000004
config_BFC4FF6C  0x00000000bfc4ff6c 0x0000000000000004
config_BFC4FF70  0x00000000bfc4ff70 0x0000000000000004
config_BFC4FF74  0x00000000bfc4ff74 0x0000000000000004
config_BFC4FF78  0x00000000bfc4ff78 0x0000000000000004
config_BFC4FF7C  0x00000000bfc4ff7c 0x0000000000000004
config_BFC4FFC0  0x00000000bfc4ffc0 0x0000000000000004
config_BFC4FFC4  0x00000000bfc4ffc4 0x0000000000000004
config_BFC4FFC8  0x00000000bfc4ffc8 0x0000000000000004
config_BFC4FFCC  0x00000000bfc4ffcc 0x0000000000000004
config_BFC4FFD0  0x00000000bfc4ffd0 0x0000000000000004
config_BFC4FFD4  0x00000000bfc4ffd4 0x0000000000000004
config_BFC4FFD8  0x00000000bfc4ffd8 0x0000000000000004
config_BFC4FFDC  0x00000000bfc4ffdc 0x0000000000000004
config_BFC4FFE0  0x00000000bfc4ffe0 0x0000000000000004
config_BFC4FFE4  0x00000000bfc4ffe4 0x0000000000000004
config_BFC4FFE8  0x00000000bfc4ffe8 0x0000000000000004
config_BFC4FFEC  0x00000000bfc4ffec 0x0000000000000004
config_BFC4FFF0  0x00000000bfc4fff0 0x0000000000000004
config_BFC4FFF4  0x00000000bfc4fff4 0x0000000000000004
config_BFC4FFF8  0x00000000bfc4fff8 0x0000000000000004
config_BFC4FFFC  0x00000000bfc4fffc 0x0000000000000004
boot1lastpage    0x00000000bfc50000 0x0000000000004000
config_BFC54000  0x00000000bfc54000 0x0000000000000004
config_BFC54004  0x00000000bfc54004 0x0000000000000004
config_BFC54008  0x00000000bfc54008 0x0000000000000004
config_BFC5400C  0x00000000bfc5400c 0x0000000000000004
config_BFC54010  0x00000000bfc54010 0x0000000000000004
config_BFC5401C  0x00000000bfc5401c 0x0000000000000004
config_BFC54020  0x00000000bfc54020 0x0000000000000004
config_BFC54024  0x00000000bfc54024 0x0000000000000004
boot2            0x00000000bfc60000 0x000000000000ff00
config_BFC6FF40  0x00000000bfc6ff40 0x0000000000000004
config_BFC6FF44  0x00000000bfc6ff44 0x0000000000000004
config_BFC6FF48  0x00000000bfc6ff48 0x0000000000000004
config_BFC6FF4C  0x00000000bfc6ff4c 0x0000000000000004
config_BFC6FF50  0x00000000bfc6ff50 0x0000000000000004
config_BFC6FF54  0x00000000bfc6ff54 0x0000000000000004
config_BFC6FF58  0x00000000bfc6ff58 0x0000000000000004
config_BFC6FF5C  0x00000000bfc6ff5c 0x0000000000000004
config_BFC6FF60  0x00000000bfc6ff60 0x0000000000000004
config_BFC6FF64  0x00000000bfc6ff64 0x0000000000000004
config_BFC6FF68  0x00000000bfc6ff68 0x0000000000000004
config_BFC6FF6C  0x00000000bfc6ff6c 0x0000000000000004
config_BFC6FF70  0x00000000bfc6ff70 0x0000000000000004
config_BFC6FF74  0x00000000bfc6ff74 0x0000000000000004
config_BFC6FF78  0x00000000bfc6ff78 0x0000000000000004
config_BFC6FF7C  0x00000000bfc6ff7c 0x0000000000000004
config_BFC6FFC0  0x00000000bfc6ffc0 0x0000000000000004
config_BFC6FFC4  0x00000000bfc6ffc4 0x0000000000000004
config_BFC6FFC8  0x00000000bfc6ffc8 0x0000000000000004
config_BFC6FFCC  0x00000000bfc6ffcc 0x0000000000000004
config_BFC6FFD0  0x00000000bfc6ffd0 0x0000000000000004
config_BFC6FFD4  0x00000000bfc6ffd4 0x0000000000000004
config_BFC6FFD8  0x00000000bfc6ffd8 0x0000000000000004
config_BFC6FFDC  0x00000000bfc6ffdc 0x0000000000000004
config_BFC6FFE0  0x00000000bfc6ffe0 0x0000000000000004
config_BFC6FFE4  0x00000000bfc6ffe4 0x0000000000000004
config_BFC6FFE8  0x00000000bfc6ffe8 0x0000000000000004
config_BFC6FFEC  0x00000000bfc6ffec 0x0000000000000004
config_BFC6FFF0  0x00000000bfc6fff0 0x0000000000000004
config_BFC6FFF4  0x00000000bfc6fff4 0x0000000000000004
config_BFC6FFF8  0x00000000bfc6fff8 0x0000000000000004
config_BFC6FFFC  0x00000000bfc6fffc 0x0000000000000004
boot2lastpage    0x00000000bfc70000 0x0000000000004000
kseg0_data_mem   0x0000000080000000 0x0000000000080000 w !x
sfrs             0x00000000bf800000 0x0000000000100000
configsfrs_BFC0FF40 0x00000000bfc0ff40 0x0000000000000040
configsfrs_BFC0FFC0 0x00000000bfc0ffc0 0x0000000000000040
configsfrs_BFC2FF40 0x00000000bfc2ff40 0x0000000000000040
configsfrs_BFC2FFC0 0x00000000bfc2ffc0 0x0000000000000040
configsfrs_BFC4FF40 0x00000000bfc4ff40 0x0000000000000040
configsfrs_BFC4FFC0 0x00000000bfc4ffc0 0x0000000000000040
configsfrs_BFC54000 0x00000000bfc54000 0x0000000000000020
configsfrs_BFC6FF40 0x00000000bfc6ff40 0x0000000000000040
configsfrs_BFC6FFC0 0x00000000bfc6ffc0 0x0000000000000040
kseg2_ebi_data_mem 0x00000000c0000000 0x0000000004000000
kseg2_sqi_data_mem 0x00000000d0000000 0x0000000004000000
kseg3_ebi_data_mem 0x00000000e0000000 0x0000000004000000
kseg3_sqi_data_mem 0x00000000f0000000 0x0000000004000000
*default*        0x0000000000000000 0xffffffffffffffff

Linker script and memory map

LOAD /opt/microchip/xc32/v4.21/bin/bin/../../lib/gcc/pic32mx/8.3.1/../../../../pic32mx/lib/fpu64/debug-exception-return.o
LOAD build/default/production/_ext/1571292264/7segments.o
LOAD build/default/production/_ext/1571292264/7segmentsOutputStream.o
LOAD build/default/production/_ext/1505855908/clock.o
LOAD build/default/production/_ext/1505855908/clockStream.o
LOAD build/default/production/_ext/1506567961/delay.o
LOAD build/default/production/_ext/529250520/displayUtils.o
LOAD build/default/production/_ext/529250520/displayStream.o
LOAD build/default/production/_ext/1507884958/error.o
LOAD build/default/production/_ext/383772639/buffer.o
LOAD build/default/production/_ext/242462784/outputStream.o
LOAD build/default/production/_ext/1038083393/printWriter.o
LOAD build/default/production/_ext/919093983/led.o
LOAD build/default/production/_ext/919119933/RGB.o
LOAD build/default/production/_ext/919119933/RGBStream.o
LOAD build/default/production/_ext/99833024/distance.o
LOAD build/default/production/_ext/99833024/distanceStream.o
LOAD build/default/production/_ext/991344331/frequencyCounterStream.o
LOAD build/default/production/_ext/991344331/frequencyCounterUtils.o
LOAD build/default/production/_ext/991344331/frequencyCounter.o
LOAD build/default/production/_ext/1240316727/temperatureStream.o
LOAD build/default/production/_ext/1240316727/temperature.o
LOAD build/default/production/_ext/111410402/serialOutpuStream.o
LOAD build/default/production/_ext/111410402/serial.o
LOAD build/default/production/_ext/92899495/system.o
LOAD build/default/production/_ext/79239498/timer1.o
LOAD build/default/production/_ext/1522154941/uart5.o
LOAD build/default/production/_ext/1982400153/plib_adchs.o
LOAD build/default/production/_ext/1984157808/plib_cache.o
LOAD build/default/production/_ext/1984157808/plib_cache_pic32mz.o
LOAD build/default/production/_ext/60165520/plib_clk.o
LOAD build/default/production/_ext/1249264884/plib_coretimer.o
LOAD build/default/production/_ext/1865200349/plib_evic.o
LOAD build/default/production/_ext/1865254177/plib_gpio.o
LOAD build/default/production/_ext/513455433/plib_i2c1_master.o
LOAD build/default/production/_ext/1865301019/plib_icap1.o
LOAD build/default/production/_ext/1865301019/plib_icap2.o
LOAD build/default/production/_ext/1865480137/plib_ocmp3.o
LOAD build/default/production/_ext/60181895/plib_tmr2.o
LOAD build/default/production/_ext/60181895/plib_tmr4.o
LOAD build/default/production/_ext/1865638794/plib_tmr1.o
LOAD build/default/production/_ext/1865657120/plib_uart2.o
LOAD build/default/production/_ext/1865657120/plib_uart5.o
LOAD build/default/production/_ext/163028504/xc32_monitor.o
LOAD build/default/production/_ext/1171490990/initialization.o
LOAD build/default/production/_ext/1171490990/interrupts.o
LOAD build/default/production/_ext/1171490990/exceptions.o
LOAD build/default/production/_ext/1019397905/mainCubeMeteo.o
LOAD build/default/production/_ext/1019397905/cubeCommon.o
LOAD build/default/production/_ext/428692892/HC-SR04.o
LOAD build/default/production/_ext/1367680316/LM75A.o
LOAD build/default/production/_ext/1098102801/PCF8563.o
LOAD build/default/production/_ext/672751358/SAA1064T.o
LOAD build/default/production/_ext/780438209/TM1638.o
LOAD build/default/production/_ext/1259047745/WS2812b.o
LOAD build/default/production/_ext/1360937237/mainCube.o
                0x0000000000000001                __MPLAB_BUILD = 0x1
                0x0000000000000400                PROVIDE (_min_stack_size = 0x400)
START GROUP
LOAD vector_offset_init.o
END GROUP
                0x0000000000000001                PROVIDE (_vector_spacing = 0x1)
                0x000000009d000000                PROVIDE (_ebase_address = 0x9d000000)
                0x00000000bfc00000                _RESET_ADDR = 0xbfc00000
                0x00000000bfc00380                _BEV_EXCPT_ADDR = 0xbfc00380
                0x00000000bfc00480                _DBG_EXCPT_ADDR = 0xbfc00480
                0x000000009d000000                _SIMPLE_TLB_REFILL_EXCPT_ADDR = (_ebase_address + 0x0)
                0x000000009d000100                _CACHE_ERR_EXCPT_ADDR = (_ebase_address + 0x100)
                0x000000009d000180                _GEN_EXCPT_ADDR = (_ebase_address + 0x180)

.config_BFC0FF40
 *(.config_BFC0FF40)

.config_BFC0FF44
 *(.config_BFC0FF44)

.config_BFC0FF48
 *(.config_BFC0FF48)

.config_BFC0FF4C
 *(.config_BFC0FF4C)

.config_BFC0FF50
 *(.config_BFC0FF50)

.config_BFC0FF54
 *(.config_BFC0FF54)

.config_BFC0FF58
 *(.config_BFC0FF58)

.config_BFC0FF5C
 *(.config_BFC0FF5C)

.config_BFC0FF60
 *(.config_BFC0FF60)

.config_BFC0FF64
 *(.config_BFC0FF64)

.config_BFC0FF68
 *(.config_BFC0FF68)

.config_BFC0FF6C
 *(.config_BFC0FF6C)

.config_BFC0FF70
 *(.config_BFC0FF70)

.config_BFC0FF74
 *(.config_BFC0FF74)

.config_BFC0FF78
 *(.config_BFC0FF78)

.config_BFC0FF7C
 *(.config_BFC0FF7C)

.config_BFC0FFC0
                0x00000000bfc0ffc0        0x4
 *(.config_BFC0FFC0)
 .config_BFC0FFC0
                0x00000000bfc0ffc0        0x4 build/default/production/_ext/1171490990/initialization.o
                0x00000000bfc0ffc0                __config_BFC0FFC0

.config_BFC0FFC4
                0x00000000bfc0ffc4        0x4
 *(.config_BFC0FFC4)
 .config_BFC0FFC4
                0x00000000bfc0ffc4        0x4 build/default/production/_ext/1171490990/initialization.o
                0x00000000bfc0ffc4                __config_BFC0FFC4

.config_BFC0FFC8
                0x00000000bfc0ffc8        0x4
 *(.config_BFC0FFC8)
 .config_BFC0FFC8
                0x00000000bfc0ffc8        0x4 build/default/production/_ext/1171490990/initialization.o
                0x00000000bfc0ffc8                __config_BFC0FFC8

.config_BFC0FFCC
                0x00000000bfc0ffcc        0x4
 *(.config_BFC0FFCC)
 .config_BFC0FFCC
                0x00000000bfc0ffcc        0x4 build/default/production/_ext/1171490990/initialization.o
                0x00000000bfc0ffcc                __config_BFC0FFCC

.config_BFC0FFD0
 *(.config_BFC0FFD0)

.config_BFC0FFD4
 *(.config_BFC0FFD4)

.config_BFC0FFD8
 *(.config_BFC0FFD8)

.config_BFC0FFDC
                0x00000000bfc0ffdc        0x4
 *(.config_BFC0FFDC)
 .config_BFC0FFDC
                0x00000000bfc0ffdc        0x4 build/default/production/_ext/1171490990/initialization.o
                0x00000000bfc0ffdc                __config_BFC0FFDC

.config_BFC0FFE0
 *(.config_BFC0FFE0)

.config_BFC0FFE4
 *(.config_BFC0FFE4)

.config_BFC0FFE8
 *(.config_BFC0FFE8)

.config_BFC0FFEC
 *(.config_BFC0FFEC)

.config_BFC0FFF0
                0x00000000bfc0fff0        0x4
 *(.config_BFC0FFF0)
 .config_BFC0FFF0
                0x00000000bfc0fff0        0x4 build/default/production/_ext/1171490990/initialization.o
                0x00000000bfc0fff0                __config_BFC0FFF0

.config_BFC0FFF4
 *(.config_BFC0FFF4)

.config_BFC0FFF8
 *(.config_BFC0FFF8)

.config_BFC0FFFC
 *(.config_BFC0FFFC)

.config_BFC2FF40
 *(.config_BFC2FF40)

.config_BFC2FF44
 *(.config_BFC2FF44)

.config_BFC2FF48
 *(.config_BFC2FF48)

.config_BFC2FF4C
 *(.config_BFC2FF4C)

.config_BFC2FF50
 *(.config_BFC2FF50)

.config_BFC2FF54
 *(.config_BFC2FF54)

.config_BFC2FF58
 *(.config_BFC2FF58)

.config_BFC2FF5C
 *(.config_BFC2FF5C)

.config_BFC2FF60
 *(.config_BFC2FF60)

.config_BFC2FF64
 *(.config_BFC2FF64)

.config_BFC2FF68
 *(.config_BFC2FF68)

.config_BFC2FF6C
 *(.config_BFC2FF6C)

.config_BFC2FF70
 *(.config_BFC2FF70)

.config_BFC2FF74
 *(.config_BFC2FF74)

.config_BFC2FF78
 *(.config_BFC2FF78)

.config_BFC2FF7C
 *(.config_BFC2FF7C)

.config_BFC2FFC0
 *(.config_BFC2FFC0)

.config_BFC2FFC4
 *(.config_BFC2FFC4)

.config_BFC2FFC8
 *(.config_BFC2FFC8)

.config_BFC2FFCC
 *(.config_BFC2FFCC)

.config_BFC2FFD0
 *(.config_BFC2FFD0)

.config_BFC2FFD4
 *(.config_BFC2FFD4)

.config_BFC2FFD8
 *(.config_BFC2FFD8)

.config_BFC2FFDC
 *(.config_BFC2FFDC)

.config_BFC2FFE0
 *(.config_BFC2FFE0)

.config_BFC2FFE4
 *(.config_BFC2FFE4)

.config_BFC2FFE8
 *(.config_BFC2FFE8)

.config_BFC2FFEC
 *(.config_BFC2FFEC)

.config_BFC2FFF0
 *(.config_BFC2FFF0)

.config_BFC2FFF4
 *(.config_BFC2FFF4)

.config_BFC2FFF8
 *(.config_BFC2FFF8)

.config_BFC2FFFC
 *(.config_BFC2FFFC)

.config_BFC4FF40
 *(.config_BFC4FF40)

.config_BFC4FF44
 *(.config_BFC4FF44)

.config_BFC4FF48
 *(.config_BFC4FF48)

.config_BFC4FF4C
 *(.config_BFC4FF4C)

.config_BFC4FF50
 *(.config_BFC4FF50)

.config_BFC4FF54
 *(.config_BFC4FF54)

.config_BFC4FF58
 *(.config_BFC4FF58)

.config_BFC4FF5C
 *(.config_BFC4FF5C)

.config_BFC4FF60
 *(.config_BFC4FF60)

.config_BFC4FF64
 *(.config_BFC4FF64)

.config_BFC4FF68
 *(.config_BFC4FF68)

.config_BFC4FF6C
 *(.config_BFC4FF6C)

.config_BFC4FF70
 *(.config_BFC4FF70)

.config_BFC4FF74
 *(.config_BFC4FF74)

.config_BFC4FF78
 *(.config_BFC4FF78)

.config_BFC4FF7C
 *(.config_BFC4FF7C)

.config_BFC4FFC0
 *(.config_BFC4FFC0)

.config_BFC4FFC4
 *(.config_BFC4FFC4)

.config_BFC4FFC8
 *(.config_BFC4FFC8)

.config_BFC4FFCC
 *(.config_BFC4FFCC)

.config_BFC4FFD0
 *(.config_BFC4FFD0)

.config_BFC4FFD4
 *(.config_BFC4FFD4)

.config_BFC4FFD8
 *(.config_BFC4FFD8)

.config_BFC4FFDC
 *(.config_BFC4FFDC)

.config_BFC4FFE0
 *(.config_BFC4FFE0)

.config_BFC4FFE4
 *(.config_BFC4FFE4)

.config_BFC4FFE8
 *(.config_BFC4FFE8)

.config_BFC4FFEC
 *(.config_BFC4FFEC)

.config_BFC4FFF0
 *(.config_BFC4FFF0)

.config_BFC4FFF4
 *(.config_BFC4FFF4)

.config_BFC4FFF8
 *(.config_BFC4FFF8)

.config_BFC4FFFC
 *(.config_BFC4FFFC)

.config_BFC54000
 *(.config_BFC54000)

.config_BFC54004
 *(.config_BFC54004)

.config_BFC54008
 *(.config_BFC54008)

.config_BFC5400C
 *(.config_BFC5400C)

.config_BFC54010
 *(.config_BFC54010)

.config_BFC5401C
 *(.config_BFC5401C)

.config_BFC54020
 *(.config_BFC54020)

.config_BFC54024
 *(.config_BFC54024)

.config_BFC6FF40
 *(.config_BFC6FF40)

.config_BFC6FF44
 *(.config_BFC6FF44)

.config_BFC6FF48
 *(.config_BFC6FF48)

.config_BFC6FF4C
 *(.config_BFC6FF4C)

.config_BFC6FF50
 *(.config_BFC6FF50)

.config_BFC6FF54
 *(.config_BFC6FF54)

.config_BFC6FF58
 *(.config_BFC6FF58)

.config_BFC6FF5C
 *(.config_BFC6FF5C)

.config_BFC6FF60
 *(.config_BFC6FF60)

.config_BFC6FF64
 *(.config_BFC6FF64)

.config_BFC6FF68
 *(.config_BFC6FF68)

.config_BFC6FF6C
 *(.config_BFC6FF6C)

.config_BFC6FF70
 *(.config_BFC6FF70)

.config_BFC6FF74
 *(.config_BFC6FF74)

.config_BFC6FF78
 *(.config_BFC6FF78)

.config_BFC6FF7C
 *(.config_BFC6FF7C)

.config_BFC6FFC0
 *(.config_BFC6FFC0)

.config_BFC6FFC4
 *(.config_BFC6FFC4)

.config_BFC6FFC8
 *(.config_BFC6FFC8)

.config_BFC6FFCC
 *(.config_BFC6FFCC)

.config_BFC6FFD0
 *(.config_BFC6FFD0)

.config_BFC6FFD4
 *(.config_BFC6FFD4)

.config_BFC6FFD8
 *(.config_BFC6FFD8)

.config_BFC6FFDC
 *(.config_BFC6FFDC)

.config_BFC6FFE0
 *(.config_BFC6FFE0)

.config_BFC6FFE4
 *(.config_BFC6FFE4)

.config_BFC6FFE8
 *(.config_BFC6FFE8)

.config_BFC6FFEC
 *(.config_BFC6FFEC)

.config_BFC6FFF0
 *(.config_BFC6FFF0)

.config_BFC6FFF4
 *(.config_BFC6FFF4)

.config_BFC6FFF8
 *(.config_BFC6FFF8)

.config_BFC6FFFC
 *(.config_BFC6FFFC)

.reset          0x00000000bfc00000      0x1c4
 *(.reset)
 .reset         0x00000000bfc00000       0x18 /tmp/cc2DRTQz.o
                0x00000000bfc00000                _reset
 *(.reset.startup)
 .reset.startup
                0x00000000bfc00018      0x1ac /tmp/cc2DRTQz.o
                0x00000000bfc00018                _startup

.bev_excpt      0x00000000bfc00380       0x10
 *(.bev_handler)
 .bev_handler   0x00000000bfc00380       0x10 /tmp/cc2DRTQz.o

.cache_init     0x00000000bfc004b0      0x1c0
 *(.cache_init)
 *(.cache_init.*)
 .cache_init.cache
                0x00000000bfc004b0       0xc0 /opt/microchip/xc32/v4.21/bin/bin/../../lib/gcc/pic32mx/8.3.1/../../../../pic32mx/lib/fpu64/libpic32.a(pic32_init_cache.o)
 .cache_init.pic32_init_cache
                0x00000000bfc00570      0x100 /opt/microchip/xc32/v4.21/bin/bin/../../lib/gcc/pic32mx/8.3.1/../../../../pic32mx/lib/fpu64/libpic32.a(pic32_init_cache.o)
                0x00000000bfc00570                __pic32_init_cache

.simple_tlb_refill_excpt
                0x000000009d000000       0x10
 *(.simple_tlb_refill_vector)
 .simple_tlb_refill_vector
                0x000000009d000000       0x10 /tmp/cc2DRTQz.o

.cache_err_excpt
                0x000000009d000100       0x10
 *(.cache_err_vector)
 .cache_err_vector
                0x000000009d000100       0x10 /tmp/cc2DRTQz.o

.app_excpt      0x000000009d000180       0x10
 *(.gen_handler)
 .gen_handler   0x000000009d000180       0x10 /tmp/cc2DRTQz.o

.vectors        0x000000009d000200       0x98
                0x000000009d000200                . = ALIGN (0x4)
                0x0000000000000250                __vector_offset_0 = DEFINED (__vector_dispatch_0)?(. - _ebase_address):__vector_offset_default
 *(.vector_0)
                0x000000009d000200                . = ALIGN (0x4)
                0x0000000000000250                __vector_offset_1 = DEFINED (__vector_dispatch_1)?(. - _ebase_address):__vector_offset_default
 *(.vector_1)
                0x000000009d000200                . = ALIGN (0x4)
                0x0000000000000250                __vector_offset_2 = DEFINED (__vector_dispatch_2)?(. - _ebase_address):__vector_offset_default
 *(.vector_2)
                0x000000009d000200                . = ALIGN (0x4)
                0x0000000000000250                __vector_offset_3 = DEFINED (__vector_dispatch_3)?(. - _ebase_address):__vector_offset_default
 *(.vector_3)
                0x000000009d000200                . = ALIGN (0x4)
                0x0000000000000200                __vector_offset_4 = DEFINED (__vector_dispatch_4)?(. - _ebase_address):__vector_offset_default
 *(.vector_4)
 .vector_4      0x000000009d000200        0x8 build/default/production/_ext/1171490990/interrupts.o
                0x000000009d000200                __vector_dispatch_4
                0x000000009d000208                . = ALIGN (0x4)
                0x0000000000000250                __vector_offset_5 = DEFINED (__vector_dispatch_5)?(. - _ebase_address):__vector_offset_default
 *(.vector_5)
                0x000000009d000208                . = ALIGN (0x4)
                0x0000000000000250                __vector_offset_6 = DEFINED (__vector_dispatch_6)?(. - _ebase_address):__vector_offset_default
 *(.vector_6)
                0x000000009d000208                . = ALIGN (0x4)
                0x0000000000000250                __vector_offset_7 = DEFINED (__vector_dispatch_7)?(. - _ebase_address):__vector_offset_default
 *(.vector_7)
                0x000000009d000208                . = ALIGN (0x4)
                0x0000000000000250                __vector_offset_8 = DEFINED (__vector_dispatch_8)?(. - _ebase_address):__vector_offset_default
 *(.vector_8)
                0x000000009d000208                . = ALIGN (0x4)
                0x0000000000000250                __vector_offset_9 = DEFINED (__vector_dispatch_9)?(. - _ebase_address):__vector_offset_default
 *(.vector_9)
                0x000000009d000208                . = ALIGN (0x4)
                0x0000000000000250                __vector_offset_10 = DEFINED (__vector_dispatch_10)?(. - _ebase_address):__vector_offset_default
 *(.vector_10)
                0x000000009d000208                . = ALIGN (0x4)
                0x0000000000000250                __vector_offset_11 = DEFINED (__vector_dispatch_11)?(. - _ebase_address):__vector_offset_default
 *(.vector_11)
                0x000000009d000208                . = ALIGN (0x4)
                0x0000000000000250                __vector_offset_12 = DEFINED (__vector_dispatch_12)?(. - _ebase_address):__vector_offset_default
 *(.vector_12)
                0x000000009d000208                . = ALIGN (0x4)
                0x0000000000000250                __vector_offset_13 = DEFINED (__vector_dispatch_13)?(. - _ebase_address):__vector_offset_default
 *(.vector_13)
                0x000000009d000208                . = ALIGN (0x4)
                0x0000000000000250                __vector_offset_14 = DEFINED (__vector_dispatch_14)?(. - _ebase_address):__vector_offset_default
 *(.vector_14)
                0x000000009d000208                . = ALIGN (0x4)
                0x0000000000000250                __vector_offset_15 = DEFINED (__vector_dispatch_15)?(. - _ebase_address):__vector_offset_default
 *(.vector_15)
                0x000000009d000208                . = ALIGN (0x4)
                0x0000000000000250                __vector_offset_16 = DEFINED (__vector_dispatch_16)?(. - _ebase_address):__vector_offset_default
 *(.vector_16)
                0x000000009d000208                . = ALIGN (0x4)
                0x0000000000000250                __vector_offset_17 = DEFINED (__vector_dispatch_17)?(. - _ebase_address):__vector_offset_default
 *(.vector_17)
                0x000000009d000208                . = ALIGN (0x4)
                0x0000000000000250                __vector_offset_18 = DEFINED (__vector_dispatch_18)?(. - _ebase_address):__vector_offset_default
 *(.vector_18)
                0x000000009d000208                . = ALIGN (0x4)
                0x0000000000000250                __vector_offset_19 = DEFINED (__vector_dispatch_19)?(. - _ebase_address):__vector_offset_default
 *(.vector_19)
                0x000000009d000208                . = ALIGN (0x4)
                0x0000000000000250                __vector_offset_20 = DEFINED (__vector_dispatch_20)?(. - _ebase_address):__vector_offset_default
 *(.vector_20)
                0x000000009d000208                . = ALIGN (0x4)
                0x0000000000000250                __vector_offset_21 = DEFINED (__vector_dispatch_21)?(. - _ebase_address):__vector_offset_default
 *(.vector_21)
                0x000000009d000208                . = ALIGN (0x4)
                0x0000000000000250                __vector_offset_22 = DEFINED (__vector_dispatch_22)?(. - _ebase_address):__vector_offset_default
 *(.vector_22)
                0x000000009d000208                . = ALIGN (0x4)
                0x0000000000000250                __vector_offset_23 = DEFINED (__vector_dispatch_23)?(. - _ebase_address):__vector_offset_default
 *(.vector_23)
                0x000000009d000208                . = ALIGN (0x4)
                0x0000000000000208                __vector_offset_24 = DEFINED (__vector_dispatch_24)?(. - _ebase_address):__vector_offset_default
 *(.vector_24)
 .vector_24     0x000000009d000208        0x8 build/default/production/_ext/1171490990/interrupts.o
                0x000000009d000208                __vector_dispatch_24
                0x000000009d000210                . = ALIGN (0x4)
                0x0000000000000250                __vector_offset_25 = DEFINED (__vector_dispatch_25)?(. - _ebase_address):__vector_offset_default
 *(.vector_25)
                0x000000009d000210                . = ALIGN (0x4)
                0x0000000000000250                __vector_offset_26 = DEFINED (__vector_dispatch_26)?(. - _ebase_address):__vector_offset_default
 *(.vector_26)
                0x000000009d000210                . = ALIGN (0x4)
                0x0000000000000250                __vector_offset_27 = DEFINED (__vector_dispatch_27)?(. - _ebase_address):__vector_offset_default
 *(.vector_27)
                0x000000009d000210                . = ALIGN (0x4)
                0x0000000000000250                __vector_offset_28 = DEFINED (__vector_dispatch_28)?(. - _ebase_address):__vector_offset_default
 *(.vector_28)
                0x000000009d000210                . = ALIGN (0x4)
                0x0000000000000250                __vector_offset_29 = DEFINED (__vector_dispatch_29)?(. - _ebase_address):__vector_offset_default
 *(.vector_29)
                0x000000009d000210                . = ALIGN (0x4)
                0x0000000000000250                __vector_offset_30 = DEFINED (__vector_dispatch_30)?(. - _ebase_address):__vector_offset_default
 *(.vector_30)
                0x000000009d000210                . = ALIGN (0x4)
                0x0000000000000250                __vector_offset_31 = DEFINED (__vector_dispatch_31)?(. - _ebase_address):__vector_offset_default
 *(.vector_31)
                0x000000009d000210                . = ALIGN (0x4)
                0x0000000000000250                __vector_offset_32 = DEFINED (__vector_dispatch_32)?(. - _ebase_address):__vector_offset_default
 *(.vector_32)
                0x000000009d000210                . = ALIGN (0x4)
                0x0000000000000250                __vector_offset_33 = DEFINED (__vector_dispatch_33)?(. - _ebase_address):__vector_offset_default
 *(.vector_33)
                0x000000009d000210                . = ALIGN (0x4)
                0x0000000000000250                __vector_offset_34 = DEFINED (__vector_dispatch_34)?(. - _ebase_address):__vector_offset_default
 *(.vector_34)
                0x000000009d000210                . = ALIGN (0x4)
                0x0000000000000250                __vector_offset_35 = DEFINED (__vector_dispatch_35)?(. - _ebase_address):__vector_offset_default
 *(.vector_35)
                0x000000009d000210                . = ALIGN (0x4)
                0x0000000000000250                __vector_offset_36 = DEFINED (__vector_dispatch_36)?(. - _ebase_address):__vector_offset_default
 *(.vector_36)
                0x000000009d000210                . = ALIGN (0x4)
                0x0000000000000250                __vector_offset_37 = DEFINED (__vector_dispatch_37)?(. - _ebase_address):__vector_offset_default
 *(.vector_37)
                0x000000009d000210                . = ALIGN (0x4)
                0x0000000000000250                __vector_offset_38 = DEFINED (__vector_dispatch_38)?(. - _ebase_address):__vector_offset_default
 *(.vector_38)
                0x000000009d000210                . = ALIGN (0x4)
                0x0000000000000250                __vector_offset_39 = DEFINED (__vector_dispatch_39)?(. - _ebase_address):__vector_offset_default
 *(.vector_39)
                0x000000009d000210                . = ALIGN (0x4)
                0x0000000000000250                __vector_offset_40 = DEFINED (__vector_dispatch_40)?(. - _ebase_address):__vector_offset_default
 *(.vector_40)
                0x000000009d000210                . = ALIGN (0x4)
                0x0000000000000250                __vector_offset_41 = DEFINED (__vector_dispatch_41)?(. - _ebase_address):__vector_offset_default
 *(.vector_41)
                0x000000009d000210                . = ALIGN (0x4)
                0x0000000000000250                __vector_offset_42 = DEFINED (__vector_dispatch_42)?(. - _ebase_address):__vector_offset_default
 *(.vector_42)
                0x000000009d000210                . = ALIGN (0x4)
                0x0000000000000250                __vector_offset_43 = DEFINED (__vector_dispatch_43)?(. - _ebase_address):__vector_offset_default
 *(.vector_43)
                0x000000009d000210                . = ALIGN (0x4)
                0x0000000000000250                __vector_offset_44 = DEFINED (__vector_dispatch_44)?(. - _ebase_address):__vector_offset_default
 *(.vector_44)
                0x000000009d000210                . = ALIGN (0x4)
                0x0000000000000250                __vector_offset_45 = DEFINED (__vector_dispatch_45)?(. - _ebase_address):__vector_offset_default
 *(.vector_45)
                0x000000009d000210                . = ALIGN (0x4)
                0x0000000000000250                __vector_offset_46 = DEFINED (__vector_dispatch_46)?(. - _ebase_address):__vector_offset_default
 *(.vector_46)
                0x000000009d000210                . = ALIGN (0x4)
                0x0000000000000250                __vector_offset_47 = DEFINED (__vector_dispatch_47)?(. - _ebase_address):__vector_offset_default
 *(.vector_47)
                0x000000009d000210                . = ALIGN (0x4)
                0x0000000000000250                __vector_offset_48 = DEFINED (__vector_dispatch_48)?(. - _ebase_address):__vector_offset_default
 *(.vector_48)
                0x000000009d000210                . = ALIGN (0x4)
                0x0000000000000250                __vector_offset_49 = DEFINED (__vector_dispatch_49)?(. - _ebase_address):__vector_offset_default
 *(.vector_49)
                0x000000009d000210                . = ALIGN (0x4)
                0x0000000000000250                __vector_offset_50 = DEFINED (__vector_dispatch_50)?(. - _ebase_address):__vector_offset_default
 *(.vector_50)
                0x000000009d000210                . = ALIGN (0x4)
                0x0000000000000250                __vector_offset_51 = DEFINED (__vector_dispatch_51)?(. - _ebase_address):__vector_offset_default
 *(.vector_51)
                0x000000009d000210                . = ALIGN (0x4)
                0x0000000000000250                __vector_offset_52 = DEFINED (__vector_dispatch_52)?(. - _ebase_address):__vector_offset_default
 *(.vector_52)
                0x000000009d000210                . = ALIGN (0x4)
                0x0000000000000250                __vector_offset_53 = DEFINED (__vector_dispatch_53)?(. - _ebase_address):__vector_offset_default
 *(.vector_53)
                0x000000009d000210                . = ALIGN (0x4)
                0x0000000000000250                __vector_offset_54 = DEFINED (__vector_dispatch_54)?(. - _ebase_address):__vector_offset_default
 *(.vector_54)
                0x000000009d000210                . = ALIGN (0x4)
                0x0000000000000250                __vector_offset_55 = DEFINED (__vector_dispatch_55)?(. - _ebase_address):__vector_offset_default
 *(.vector_55)
                0x000000009d000210                . = ALIGN (0x4)
                0x0000000000000250                __vector_offset_56 = DEFINED (__vector_dispatch_56)?(. - _ebase_address):__vector_offset_default
 *(.vector_56)
                0x000000009d000210                . = ALIGN (0x4)
                0x0000000000000250                __vector_offset_57 = DEFINED (__vector_dispatch_57)?(. - _ebase_address):__vector_offset_default
 *(.vector_57)
                0x000000009d000210                . = ALIGN (0x4)
                0x0000000000000250                __vector_offset_58 = DEFINED (__vector_dispatch_58)?(. - _ebase_address):__vector_offset_default
 *(.vector_58)
                0x000000009d000210                . = ALIGN (0x4)
                0x0000000000000250                __vector_offset_59 = DEFINED (__vector_dispatch_59)?(. - _ebase_address):__vector_offset_default
 *(.vector_59)
                0x000000009d000210                . = ALIGN (0x4)
                0x0000000000000250                __vector_offset_60 = DEFINED (__vector_dispatch_60)?(. - _ebase_address):__vector_offset_default
 *(.vector_60)
                0x000000009d000210                . = ALIGN (0x4)
                0x0000000000000250                __vector_offset_61 = DEFINED (__vector_dispatch_61)?(. - _ebase_address):__vector_offset_default
 *(.vector_61)
                0x000000009d000210                . = ALIGN (0x4)
                0x0000000000000250                __vector_offset_62 = DEFINED (__vector_dispatch_62)?(. - _ebase_address):__vector_offset_default
 *(.vector_62)
                0x000000009d000210                . = ALIGN (0x4)
                0x0000000000000250                __vector_offset_63 = DEFINED (__vector_dispatch_63)?(. - _ebase_address):__vector_offset_default
 *(.vector_63)
                0x000000009d000210                . = ALIGN (0x4)
                0x0000000000000250                __vector_offset_64 = DEFINED (__vector_dispatch_64)?(. - _ebase_address):__vector_offset_default
 *(.vector_64)
                0x000000009d000210                . = ALIGN (0x4)
                0x0000000000000250                __vector_offset_65 = DEFINED (__vector_dispatch_65)?(. - _ebase_address):__vector_offset_default
 *(.vector_65)
                0x000000009d000210                . = ALIGN (0x4)
                0x0000000000000250                __vector_offset_66 = DEFINED (__vector_dispatch_66)?(. - _ebase_address):__vector_offset_default
 *(.vector_66)
                0x000000009d000210                . = ALIGN (0x4)
                0x0000000000000250                __vector_offset_67 = DEFINED (__vector_dispatch_67)?(. - _ebase_address):__vector_offset_default
 *(.vector_67)
                0x000000009d000210                . = ALIGN (0x4)
                0x0000000000000250                __vector_offset_68 = DEFINED (__vector_dispatch_68)?(. - _ebase_address):__vector_offset_default
 *(.vector_68)
                0x000000009d000210                . = ALIGN (0x4)
                0x0000000000000250                __vector_offset_69 = DEFINED (__vector_dispatch_69)?(. - _ebase_address):__vector_offset_default
 *(.vector_69)
                0x000000009d000210                . = ALIGN (0x4)
                0x0000000000000250                __vector_offset_70 = DEFINED (__vector_dispatch_70)?(. - _ebase_address):__vector_offset_default
 *(.vector_70)
                0x000000009d000210                . = ALIGN (0x4)
                0x0000000000000250                __vector_offset_71 = DEFINED (__vector_dispatch_71)?(. - _ebase_address):__vector_offset_default
 *(.vector_71)
                0x000000009d000210                . = ALIGN (0x4)
                0x0000000000000250                __vector_offset_72 = DEFINED (__vector_dispatch_72)?(. - _ebase_address):__vector_offset_default
 *(.vector_72)
                0x000000009d000210                . = ALIGN (0x4)
                0x0000000000000250                __vector_offset_73 = DEFINED (__vector_dispatch_73)?(. - _ebase_address):__vector_offset_default
 *(.vector_73)
                0x000000009d000210                . = ALIGN (0x4)
                0x0000000000000250                __vector_offset_74 = DEFINED (__vector_dispatch_74)?(. - _ebase_address):__vector_offset_default
 *(.vector_74)
                0x000000009d000210                . = ALIGN (0x4)
                0x0000000000000250                __vector_offset_75 = DEFINED (__vector_dispatch_75)?(. - _ebase_address):__vector_offset_default
 *(.vector_75)
                0x000000009d000210                . = ALIGN (0x4)
                0x0000000000000250                __vector_offset_76 = DEFINED (__vector_dispatch_76)?(. - _ebase_address):__vector_offset_default
 *(.vector_76)
                0x000000009d000210                . = ALIGN (0x4)
                0x0000000000000250                __vector_offset_77 = DEFINED (__vector_dispatch_77)?(. - _ebase_address):__vector_offset_default
 *(.vector_77)
                0x000000009d000210                . = ALIGN (0x4)
                0x0000000000000250                __vector_offset_78 = DEFINED (__vector_dispatch_78)?(. - _ebase_address):__vector_offset_default
 *(.vector_78)
                0x000000009d000210                . = ALIGN (0x4)
                0x0000000000000250                __vector_offset_79 = DEFINED (__vector_dispatch_79)?(. - _ebase_address):__vector_offset_default
 *(.vector_79)
                0x000000009d000210                . = ALIGN (0x4)
                0x0000000000000250                __vector_offset_80 = DEFINED (__vector_dispatch_80)?(. - _ebase_address):__vector_offset_default
 *(.vector_80)
                0x000000009d000210                . = ALIGN (0x4)
                0x0000000000000250                __vector_offset_81 = DEFINED (__vector_dispatch_81)?(. - _ebase_address):__vector_offset_default
 *(.vector_81)
                0x000000009d000210                . = ALIGN (0x4)
                0x0000000000000250                __vector_offset_82 = DEFINED (__vector_dispatch_82)?(. - _ebase_address):__vector_offset_default
 *(.vector_82)
                0x000000009d000210                . = ALIGN (0x4)
                0x0000000000000250                __vector_offset_83 = DEFINED (__vector_dispatch_83)?(. - _ebase_address):__vector_offset_default
 *(.vector_83)
                0x000000009d000210                . = ALIGN (0x4)
                0x0000000000000250                __vector_offset_84 = DEFINED (__vector_dispatch_84)?(. - _ebase_address):__vector_offset_default
 *(.vector_84)
                0x000000009d000210                . = ALIGN (0x4)
                0x0000000000000250                __vector_offset_85 = DEFINED (__vector_dispatch_85)?(. - _ebase_address):__vector_offset_default
 *(.vector_85)
                0x000000009d000210                . = ALIGN (0x4)
                0x0000000000000250                __vector_offset_86 = DEFINED (__vector_dispatch_86)?(. - _ebase_address):__vector_offset_default
 *(.vector_86)
                0x000000009d000210                . = ALIGN (0x4)
                0x0000000000000250                __vector_offset_87 = DEFINED (__vector_dispatch_87)?(. - _ebase_address):__vector_offset_default
 *(.vector_87)
                0x000000009d000210                . = ALIGN (0x4)
                0x0000000000000250                __vector_offset_88 = DEFINED (__vector_dispatch_88)?(. - _ebase_address):__vector_offset_default
 *(.vector_88)
                0x000000009d000210                . = ALIGN (0x4)
                0x0000000000000250                __vector_offset_89 = DEFINED (__vector_dispatch_89)?(. - _ebase_address):__vector_offset_default
 *(.vector_89)
                0x000000009d000210                . = ALIGN (0x4)
                0x0000000000000250                __vector_offset_90 = DEFINED (__vector_dispatch_90)?(. - _ebase_address):__vector_offset_default
 *(.vector_90)
                0x000000009d000210                . = ALIGN (0x4)
                0x0000000000000250                __vector_offset_91 = DEFINED (__vector_dispatch_91)?(. - _ebase_address):__vector_offset_default
 *(.vector_91)
                0x000000009d000210                . = ALIGN (0x4)
                0x0000000000000250                __vector_offset_92 = DEFINED (__vector_dispatch_92)?(. - _ebase_address):__vector_offset_default
 *(.vector_92)
                0x000000009d000210                . = ALIGN (0x4)
                0x0000000000000250                __vector_offset_93 = DEFINED (__vector_dispatch_93)?(. - _ebase_address):__vector_offset_default
 *(.vector_93)
                0x000000009d000210                . = ALIGN (0x4)
                0x0000000000000250                __vector_offset_94 = DEFINED (__vector_dispatch_94)?(. - _ebase_address):__vector_offset_default
 *(.vector_94)
                0x000000009d000210                . = ALIGN (0x4)
                0x0000000000000250                __vector_offset_95 = DEFINED (__vector_dispatch_95)?(. - _ebase_address):__vector_offset_default
 *(.vector_95)
                0x000000009d000210                . = ALIGN (0x4)
                0x0000000000000250                __vector_offset_96 = DEFINED (__vector_dispatch_96)?(. - _ebase_address):__vector_offset_default
 *(.vector_96)
                0x000000009d000210                . = ALIGN (0x4)
                0x0000000000000250                __vector_offset_97 = DEFINED (__vector_dispatch_97)?(. - _ebase_address):__vector_offset_default
 *(.vector_97)
                0x000000009d000210                . = ALIGN (0x4)
                0x0000000000000250                __vector_offset_98 = DEFINED (__vector_dispatch_98)?(. - _ebase_address):__vector_offset_default
 *(.vector_98)
                0x000000009d000210                . = ALIGN (0x4)
                0x0000000000000250                __vector_offset_99 = DEFINED (__vector_dispatch_99)?(. - _ebase_address):__vector_offset_default
 *(.vector_99)
                0x000000009d000210                . = ALIGN (0x4)
                0x0000000000000250                __vector_offset_100 = DEFINED (__vector_dispatch_100)?(. - _ebase_address):__vector_offset_default
 *(.vector_100)
                0x000000009d000210                . = ALIGN (0x4)
                0x0000000000000250                __vector_offset_101 = DEFINED (__vector_dispatch_101)?(. - _ebase_address):__vector_offset_default
 *(.vector_101)
                0x000000009d000210                . = ALIGN (0x4)
                0x0000000000000250                __vector_offset_102 = DEFINED (__vector_dispatch_102)?(. - _ebase_address):__vector_offset_default
 *(.vector_102)
                0x000000009d000210                . = ALIGN (0x4)
                0x0000000000000250                __vector_offset_103 = DEFINED (__vector_dispatch_103)?(. - _ebase_address):__vector_offset_default
 *(.vector_103)
                0x000000009d000210                . = ALIGN (0x4)
                0x0000000000000250                __vector_offset_104 = DEFINED (__vector_dispatch_104)?(. - _ebase_address):__vector_offset_default
 *(.vector_104)
                0x000000009d000210                . = ALIGN (0x4)
                0x0000000000000250                __vector_offset_105 = DEFINED (__vector_dispatch_105)?(. - _ebase_address):__vector_offset_default
 *(.vector_105)
                0x000000009d000210                . = ALIGN (0x4)
                0x0000000000000250                __vector_offset_106 = DEFINED (__vector_dispatch_106)?(. - _ebase_address):__vector_offset_default
 *(.vector_106)
                0x000000009d000210                . = ALIGN (0x4)
                0x0000000000000250                __vector_offset_107 = DEFINED (__vector_dispatch_107)?(. - _ebase_address):__vector_offset_default
 *(.vector_107)
                0x000000009d000210                . = ALIGN (0x4)
                0x0000000000000250                __vector_offset_108 = DEFINED (__vector_dispatch_108)?(. - _ebase_address):__vector_offset_default
 *(.vector_108)
                0x000000009d000210                . = ALIGN (0x4)
                0x0000000000000250                __vector_offset_109 = DEFINED (__vector_dispatch_109)?(. - _ebase_address):__vector_offset_default
 *(.vector_109)
                0x000000009d000210                . = ALIGN (0x4)
                0x0000000000000250                __vector_offset_110 = DEFINED (__vector_dispatch_110)?(. - _ebase_address):__vector_offset_default
 *(.vector_110)
                0x000000009d000210                . = ALIGN (0x4)
                0x0000000000000250                __vector_offset_111 = DEFINED (__vector_dispatch_111)?(. - _ebase_address):__vector_offset_default
 *(.vector_111)
                0x000000009d000210                . = ALIGN (0x4)
                0x0000000000000250                __vector_offset_112 = DEFINED (__vector_dispatch_112)?(. - _ebase_address):__vector_offset_default
 *(.vector_112)
                0x000000009d000210                . = ALIGN (0x4)
                0x0000000000000250                __vector_offset_113 = DEFINED (__vector_dispatch_113)?(. - _ebase_address):__vector_offset_default
 *(.vector_113)
                0x000000009d000210                . = ALIGN (0x4)
                0x0000000000000250                __vector_offset_114 = DEFINED (__vector_dispatch_114)?(. - _ebase_address):__vector_offset_default
 *(.vector_114)
                0x000000009d000210                . = ALIGN (0x4)
                0x0000000000000210                __vector_offset_115 = DEFINED (__vector_dispatch_115)?(. - _ebase_address):__vector_offset_default
 *(.vector_115)
 .vector_115    0x000000009d000210        0x8 build/default/production/_ext/1171490990/interrupts.o
                0x000000009d000210                __vector_dispatch_115
                0x000000009d000218                . = ALIGN (0x4)
                0x0000000000000250                __vector_offset_116 = DEFINED (__vector_dispatch_116)?(. - _ebase_address):__vector_offset_default
 *(.vector_116)
                0x000000009d000218                . = ALIGN (0x4)
                0x0000000000000218                __vector_offset_117 = DEFINED (__vector_dispatch_117)?(. - _ebase_address):__vector_offset_default
 *(.vector_117)
 .vector_117    0x000000009d000218        0x8 build/default/production/_ext/1171490990/interrupts.o
                0x000000009d000218                __vector_dispatch_117
                0x000000009d000220                . = ALIGN (0x4)
                0x0000000000000250                __vector_offset_118 = DEFINED (__vector_dispatch_118)?(. - _ebase_address):__vector_offset_default
 *(.vector_118)
                0x000000009d000220                . = ALIGN (0x4)
                0x0000000000000250                __vector_offset_119 = DEFINED (__vector_dispatch_119)?(. - _ebase_address):__vector_offset_default
 *(.vector_119)
                0x000000009d000220                . = ALIGN (0x4)
                0x0000000000000250                __vector_offset_120 = DEFINED (__vector_dispatch_120)?(. - _ebase_address):__vector_offset_default
 *(.vector_120)
                0x000000009d000220                . = ALIGN (0x4)
                0x0000000000000250                __vector_offset_121 = DEFINED (__vector_dispatch_121)?(. - _ebase_address):__vector_offset_default
 *(.vector_121)
                0x000000009d000220                . = ALIGN (0x4)
                0x0000000000000250                __vector_offset_122 = DEFINED (__vector_dispatch_122)?(. - _ebase_address):__vector_offset_default
 *(.vector_122)
                0x000000009d000220                . = ALIGN (0x4)
                0x0000000000000250                __vector_offset_123 = DEFINED (__vector_dispatch_123)?(. - _ebase_address):__vector_offset_default
 *(.vector_123)
                0x000000009d000220                . = ALIGN (0x4)
                0x0000000000000250                __vector_offset_124 = DEFINED (__vector_dispatch_124)?(. - _ebase_address):__vector_offset_default
 *(.vector_124)
                0x000000009d000220                . = ALIGN (0x4)
                0x0000000000000250                __vector_offset_125 = DEFINED (__vector_dispatch_125)?(. - _ebase_address):__vector_offset_default
 *(.vector_125)
                0x000000009d000220                . = ALIGN (0x4)
                0x0000000000000250                __vector_offset_126 = DEFINED (__vector_dispatch_126)?(. - _ebase_address):__vector_offset_default
 *(.vector_126)
                0x000000009d000220                . = ALIGN (0x4)
                0x0000000000000250                __vector_offset_127 = DEFINED (__vector_dispatch_127)?(. - _ebase_address):__vector_offset_default
 *(.vector_127)
                0x000000009d000220                . = ALIGN (0x4)
                0x0000000000000250                __vector_offset_128 = DEFINED (__vector_dispatch_128)?(. - _ebase_address):__vector_offset_default
 *(.vector_128)
                0x000000009d000220                . = ALIGN (0x4)
                0x0000000000000250                __vector_offset_129 = DEFINED (__vector_dispatch_129)?(. - _ebase_address):__vector_offset_default
 *(.vector_129)
                0x000000009d000220                . = ALIGN (0x4)
                0x0000000000000250                __vector_offset_130 = DEFINED (__vector_dispatch_130)?(. - _ebase_address):__vector_offset_default
 *(.vector_130)
                0x000000009d000220                . = ALIGN (0x4)
                0x0000000000000250                __vector_offset_131 = DEFINED (__vector_dispatch_131)?(. - _ebase_address):__vector_offset_default
 *(.vector_131)
                0x000000009d000220                . = ALIGN (0x4)
                0x0000000000000250                __vector_offset_132 = DEFINED (__vector_dispatch_132)?(. - _ebase_address):__vector_offset_default
 *(.vector_132)
                0x000000009d000220                . = ALIGN (0x4)
                0x0000000000000250                __vector_offset_133 = DEFINED (__vector_dispatch_133)?(. - _ebase_address):__vector_offset_default
 *(.vector_133)
                0x000000009d000220                . = ALIGN (0x4)
                0x0000000000000250                __vector_offset_134 = DEFINED (__vector_dispatch_134)?(. - _ebase_address):__vector_offset_default
 *(.vector_134)
                0x000000009d000220                . = ALIGN (0x4)
                0x0000000000000250                __vector_offset_135 = DEFINED (__vector_dispatch_135)?(. - _ebase_address):__vector_offset_default
 *(.vector_135)
                0x000000009d000220                . = ALIGN (0x4)
                0x0000000000000250                __vector_offset_136 = DEFINED (__vector_dispatch_136)?(. - _ebase_address):__vector_offset_default
 *(.vector_136)
                0x000000009d000220                . = ALIGN (0x4)
                0x0000000000000250                __vector_offset_137 = DEFINED (__vector_dispatch_137)?(. - _ebase_address):__vector_offset_default
 *(.vector_137)
                0x000000009d000220                . = ALIGN (0x4)
                0x0000000000000250                __vector_offset_138 = DEFINED (__vector_dispatch_138)?(. - _ebase_address):__vector_offset_default
 *(.vector_138)
                0x000000009d000220                . = ALIGN (0x4)
                0x0000000000000250                __vector_offset_139 = DEFINED (__vector_dispatch_139)?(. - _ebase_address):__vector_offset_default
 *(.vector_139)
                0x000000009d000220                . = ALIGN (0x4)
                0x0000000000000250                __vector_offset_140 = DEFINED (__vector_dispatch_140)?(. - _ebase_address):__vector_offset_default
 *(.vector_140)
                0x000000009d000220                . = ALIGN (0x4)
                0x0000000000000250                __vector_offset_141 = DEFINED (__vector_dispatch_141)?(. - _ebase_address):__vector_offset_default
 *(.vector_141)
                0x000000009d000220                . = ALIGN (0x4)
                0x0000000000000250                __vector_offset_142 = DEFINED (__vector_dispatch_142)?(. - _ebase_address):__vector_offset_default
 *(.vector_142)
                0x000000009d000220                . = ALIGN (0x4)
                0x0000000000000250                __vector_offset_143 = DEFINED (__vector_dispatch_143)?(. - _ebase_address):__vector_offset_default
 *(.vector_143)
                0x000000009d000220                . = ALIGN (0x4)
                0x0000000000000250                __vector_offset_144 = DEFINED (__vector_dispatch_144)?(. - _ebase_address):__vector_offset_default
 *(.vector_144)
                0x000000009d000220                . = ALIGN (0x4)
                0x0000000000000220                __vector_offset_145 = DEFINED (__vector_dispatch_145)?(. - _ebase_address):__vector_offset_default
 *(.vector_145)
 .vector_145    0x000000009d000220        0x8 build/default/production/_ext/1171490990/interrupts.o
                0x000000009d000220                __vector_dispatch_145
                0x000000009d000228                . = ALIGN (0x4)
                0x0000000000000228                __vector_offset_146 = DEFINED (__vector_dispatch_146)?(. - _ebase_address):__vector_offset_default
 *(.vector_146)
 .vector_146    0x000000009d000228        0x8 build/default/production/_ext/1171490990/interrupts.o
                0x000000009d000228                __vector_dispatch_146
                0x000000009d000230                . = ALIGN (0x4)
                0x0000000000000230                __vector_offset_147 = DEFINED (__vector_dispatch_147)?(. - _ebase_address):__vector_offset_default
 *(.vector_147)
 .vector_147    0x000000009d000230        0x8 build/default/production/_ext/1171490990/interrupts.o
                0x000000009d000230                __vector_dispatch_147
                0x000000009d000238                . = ALIGN (0x4)
                0x0000000000000250                __vector_offset_148 = DEFINED (__vector_dispatch_148)?(. - _ebase_address):__vector_offset_default
 *(.vector_148)
                0x000000009d000238                . = ALIGN (0x4)
                0x0000000000000250                __vector_offset_149 = DEFINED (__vector_dispatch_149)?(. - _ebase_address):__vector_offset_default
 *(.vector_149)
                0x000000009d000238                . = ALIGN (0x4)
                0x0000000000000250                __vector_offset_150 = DEFINED (__vector_dispatch_150)?(. - _ebase_address):__vector_offset_default
 *(.vector_150)
                0x000000009d000238                . = ALIGN (0x4)
                0x0000000000000250                __vector_offset_151 = DEFINED (__vector_dispatch_151)?(. - _ebase_address):__vector_offset_default
 *(.vector_151)
                0x000000009d000238                . = ALIGN (0x4)
                0x0000000000000250                __vector_offset_152 = DEFINED (__vector_dispatch_152)?(. - _ebase_address):__vector_offset_default
 *(.vector_152)
                0x000000009d000238                . = ALIGN (0x4)
                0x0000000000000250                __vector_offset_153 = DEFINED (__vector_dispatch_153)?(. - _ebase_address):__vector_offset_default
 *(.vector_153)
                0x000000009d000238                . = ALIGN (0x4)
                0x0000000000000250                __vector_offset_154 = DEFINED (__vector_dispatch_154)?(. - _ebase_address):__vector_offset_default
 *(.vector_154)
                0x000000009d000238                . = ALIGN (0x4)
                0x0000000000000250                __vector_offset_155 = DEFINED (__vector_dispatch_155)?(. - _ebase_address):__vector_offset_default
 *(.vector_155)
                0x000000009d000238                . = ALIGN (0x4)
                0x0000000000000250                __vector_offset_156 = DEFINED (__vector_dispatch_156)?(. - _ebase_address):__vector_offset_default
 *(.vector_156)
                0x000000009d000238                . = ALIGN (0x4)
                0x0000000000000250                __vector_offset_157 = DEFINED (__vector_dispatch_157)?(. - _ebase_address):__vector_offset_default
 *(.vector_157)
                0x000000009d000238                . = ALIGN (0x4)
                0x0000000000000250                __vector_offset_158 = DEFINED (__vector_dispatch_158)?(. - _ebase_address):__vector_offset_default
 *(.vector_158)
                0x000000009d000238                . = ALIGN (0x4)
                0x0000000000000250                __vector_offset_159 = DEFINED (__vector_dispatch_159)?(. - _ebase_address):__vector_offset_default
 *(.vector_159)
                0x000000009d000238                . = ALIGN (0x4)
                0x0000000000000250                __vector_offset_160 = DEFINED (__vector_dispatch_160)?(. - _ebase_address):__vector_offset_default
 *(.vector_160)
                0x000000009d000238                . = ALIGN (0x4)
                0x0000000000000250                __vector_offset_161 = DEFINED (__vector_dispatch_161)?(. - _ebase_address):__vector_offset_default
 *(.vector_161)
                0x000000009d000238                . = ALIGN (0x4)
                0x0000000000000250                __vector_offset_162 = DEFINED (__vector_dispatch_162)?(. - _ebase_address):__vector_offset_default
 *(.vector_162)
                0x000000009d000238                . = ALIGN (0x4)
                0x0000000000000250                __vector_offset_163 = DEFINED (__vector_dispatch_163)?(. - _ebase_address):__vector_offset_default
 *(.vector_163)
                0x000000009d000238                . = ALIGN (0x4)
                0x0000000000000250                __vector_offset_164 = DEFINED (__vector_dispatch_164)?(. - _ebase_address):__vector_offset_default
 *(.vector_164)
                0x000000009d000238                . = ALIGN (0x4)
                0x0000000000000250                __vector_offset_165 = DEFINED (__vector_dispatch_165)?(. - _ebase_address):__vector_offset_default
 *(.vector_165)
                0x000000009d000238                . = ALIGN (0x4)
                0x0000000000000250                __vector_offset_166 = DEFINED (__vector_dispatch_166)?(. - _ebase_address):__vector_offset_default
 *(.vector_166)
                0x000000009d000238                . = ALIGN (0x4)
                0x0000000000000250                __vector_offset_167 = DEFINED (__vector_dispatch_167)?(. - _ebase_address):__vector_offset_default
 *(.vector_167)
                0x000000009d000238                . = ALIGN (0x4)
                0x0000000000000250                __vector_offset_168 = DEFINED (__vector_dispatch_168)?(. - _ebase_address):__vector_offset_default
 *(.vector_168)
                0x000000009d000238                . = ALIGN (0x4)
                0x0000000000000250                __vector_offset_169 = DEFINED (__vector_dispatch_169)?(. - _ebase_address):__vector_offset_default
 *(.vector_169)
                0x000000009d000238                . = ALIGN (0x4)
                0x0000000000000250                __vector_offset_170 = DEFINED (__vector_dispatch_170)?(. - _ebase_address):__vector_offset_default
 *(.vector_170)
                0x000000009d000238                . = ALIGN (0x4)
                0x0000000000000250                __vector_offset_171 = DEFINED (__vector_dispatch_171)?(. - _ebase_address):__vector_offset_default
 *(.vector_171)
                0x000000009d000238                . = ALIGN (0x4)
                0x0000000000000250                __vector_offset_172 = DEFINED (__vector_dispatch_172)?(. - _ebase_address):__vector_offset_default
 *(.vector_172)
                0x000000009d000238                . = ALIGN (0x4)
                0x0000000000000250                __vector_offset_173 = DEFINED (__vector_dispatch_173)?(. - _ebase_address):__vector_offset_default
 *(.vector_173)
                0x000000009d000238                . = ALIGN (0x4)
                0x0000000000000250                __vector_offset_174 = DEFINED (__vector_dispatch_174)?(. - _ebase_address):__vector_offset_default
 *(.vector_174)
                0x000000009d000238                . = ALIGN (0x4)
                0x0000000000000250                __vector_offset_175 = DEFINED (__vector_dispatch_175)?(. - _ebase_address):__vector_offset_default
 *(.vector_175)
                0x000000009d000238                . = ALIGN (0x4)
                0x0000000000000250                __vector_offset_176 = DEFINED (__vector_dispatch_176)?(. - _ebase_address):__vector_offset_default
 *(.vector_176)
                0x000000009d000238                . = ALIGN (0x4)
                0x0000000000000250                __vector_offset_177 = DEFINED (__vector_dispatch_177)?(. - _ebase_address):__vector_offset_default
 *(.vector_177)
                0x000000009d000238                . = ALIGN (0x4)
                0x0000000000000250                __vector_offset_178 = DEFINED (__vector_dispatch_178)?(. - _ebase_address):__vector_offset_default
 *(.vector_178)
                0x000000009d000238                . = ALIGN (0x4)
                0x0000000000000238                __vector_offset_179 = DEFINED (__vector_dispatch_179)?(. - _ebase_address):__vector_offset_default
 *(.vector_179)
 .vector_179    0x000000009d000238        0x8 build/default/production/_ext/1171490990/interrupts.o
                0x000000009d000238                __vector_dispatch_179
                0x000000009d000240                . = ALIGN (0x4)
                0x0000000000000240                __vector_offset_180 = DEFINED (__vector_dispatch_180)?(. - _ebase_address):__vector_offset_default
 *(.vector_180)
 .vector_180    0x000000009d000240        0x8 build/default/production/_ext/1171490990/interrupts.o
                0x000000009d000240                __vector_dispatch_180
                0x000000009d000248                . = ALIGN (0x4)
                0x0000000000000248                __vector_offset_181 = DEFINED (__vector_dispatch_181)?(. - _ebase_address):__vector_offset_default
 *(.vector_181)
 .vector_181    0x000000009d000248        0x8 build/default/production/_ext/1171490990/interrupts.o
                0x000000009d000248                __vector_dispatch_181
                0x000000009d000250                . = ALIGN (0x4)
                0x0000000000000250                __vector_offset_182 = DEFINED (__vector_dispatch_182)?(. - _ebase_address):__vector_offset_default
 *(.vector_182)
                0x000000009d000250                . = ALIGN (0x4)
                0x0000000000000250                __vector_offset_183 = DEFINED (__vector_dispatch_183)?(. - _ebase_address):__vector_offset_default
 *(.vector_183)
                0x000000009d000250                . = ALIGN (0x4)
                0x0000000000000250                __vector_offset_184 = DEFINED (__vector_dispatch_184)?(. - _ebase_address):__vector_offset_default
 *(.vector_184)
                0x000000009d000250                . = ALIGN (0x4)
                0x0000000000000250                __vector_offset_185 = DEFINED (__vector_dispatch_185)?(. - _ebase_address):__vector_offset_default
 *(.vector_185)
                0x000000009d000250                . = ALIGN (0x4)
                0x0000000000000250                __vector_offset_186 = DEFINED (__vector_dispatch_186)?(. - _ebase_address):__vector_offset_default
 *(.vector_186)
                0x000000009d000250                . = ALIGN (0x4)
                0x0000000000000250                __vector_offset_187 = DEFINED (__vector_dispatch_187)?(. - _ebase_address):__vector_offset_default
 *(.vector_187)
                0x000000009d000250                . = ALIGN (0x4)
                0x0000000000000250                __vector_offset_188 = DEFINED (__vector_dispatch_188)?(. - _ebase_address):__vector_offset_default
 *(.vector_188)
                0x000000009d000250                . = ALIGN (0x4)
                0x0000000000000250                __vector_offset_189 = DEFINED (__vector_dispatch_189)?(. - _ebase_address):__vector_offset_default
 *(.vector_189)
                0x000000009d000250                . = ALIGN (0x4)
                0x0000000000000250                __vector_offset_190 = DEFINED (__vector_dispatch_190)?(. - _ebase_address):__vector_offset_default
 *(.vector_190)
                0x000000009d000250                . = ALIGN (0x4)
                0x0000000000000250                __vector_offset_191 = DEFINED (__vector_dispatch_191)?(. - _ebase_address):__vector_offset_default
 *(.vector_191)
                0x000000009d000250                . = ALIGN (0x4)
                0x0000000000000250                __vector_offset_192 = DEFINED (__vector_dispatch_192)?(. - _ebase_address):__vector_offset_default
 *(.vector_192)
                0x000000009d000250                . = ALIGN (0x4)
                0x0000000000000250                __vector_offset_193 = DEFINED (__vector_dispatch_193)?(. - _ebase_address):__vector_offset_default
 *(.vector_193)
                0x000000009d000250                . = ALIGN (0x4)
                0x0000000000000250                __vector_offset_194 = DEFINED (__vector_dispatch_194)?(. - _ebase_address):__vector_offset_default
 *(.vector_194)
                0x000000009d000250                . = ALIGN (0x4)
                0x0000000000000250                __vector_offset_195 = DEFINED (__vector_dispatch_195)?(. - _ebase_address):__vector_offset_default
 *(.vector_195)
                0x000000009d000250                . = ALIGN (0x4)
                0x0000000000000250                __vector_offset_196 = DEFINED (__vector_dispatch_196)?(. - _ebase_address):__vector_offset_default
 *(.vector_196)
                0x000000009d000250                . = ALIGN (0x4)
                0x0000000000000250                __vector_offset_197 = DEFINED (__vector_dispatch_197)?(. - _ebase_address):__vector_offset_default
 *(.vector_197)
                0x000000009d000250                . = ALIGN (0x4)
                0x0000000000000250                __vector_offset_198 = DEFINED (__vector_dispatch_198)?(. - _ebase_address):__vector_offset_default
 *(.vector_198)
                0x000000009d000250                . = ALIGN (0x4)
                0x0000000000000250                __vector_offset_199 = DEFINED (__vector_dispatch_199)?(. - _ebase_address):__vector_offset_default
 *(.vector_199)
                0x000000009d000250                . = ALIGN (0x4)
                0x0000000000000250                __vector_offset_200 = DEFINED (__vector_dispatch_200)?(. - _ebase_address):__vector_offset_default
 *(.vector_200)
                0x000000009d000250                . = ALIGN (0x4)
                0x0000000000000250                __vector_offset_201 = DEFINED (__vector_dispatch_201)?(. - _ebase_address):__vector_offset_default
 *(.vector_201)
                0x000000009d000250                . = ALIGN (0x4)
                0x0000000000000250                __vector_offset_202 = DEFINED (__vector_dispatch_202)?(. - _ebase_address):__vector_offset_default
 *(.vector_202)
                0x000000009d000250                . = ALIGN (0x4)
                0x0000000000000250                __vector_offset_203 = DEFINED (__vector_dispatch_203)?(. - _ebase_address):__vector_offset_default
 *(.vector_203)
                0x000000009d000250                . = ALIGN (0x4)
                0x0000000000000250                __vector_offset_204 = DEFINED (__vector_dispatch_204)?(. - _ebase_address):__vector_offset_default
 *(.vector_204)
                0x000000009d000250                . = ALIGN (0x4)
                0x0000000000000250                __vector_offset_205 = DEFINED (__vector_dispatch_205)?(. - _ebase_address):__vector_offset_default
 *(.vector_205)
                0x000000009d000250                . = ALIGN (0x4)
                0x0000000000000250                __vector_offset_206 = DEFINED (__vector_dispatch_206)?(. - _ebase_address):__vector_offset_default
 *(.vector_206)
                0x000000009d000250                . = ALIGN (0x4)
                0x0000000000000250                __vector_offset_207 = DEFINED (__vector_dispatch_207)?(. - _ebase_address):__vector_offset_default
 *(.vector_207)
                0x000000009d000250                . = ALIGN (0x4)
                0x0000000000000250                __vector_offset_208 = DEFINED (__vector_dispatch_208)?(. - _ebase_address):__vector_offset_default
 *(.vector_208)
                0x000000009d000250                . = ALIGN (0x4)
                0x0000000000000250                __vector_offset_209 = DEFINED (__vector_dispatch_209)?(. - _ebase_address):__vector_offset_default
 *(.vector_209)
                0x000000009d000250                . = ALIGN (0x4)
                0x0000000000000250                __vector_offset_210 = DEFINED (__vector_dispatch_210)?(. - _ebase_address):__vector_offset_default
 *(.vector_210)
                0x000000009d000250                . = ALIGN (0x4)
                0x0000000000000250                __vector_offset_211 = DEFINED (__vector_dispatch_211)?(. - _ebase_address):__vector_offset_default
 *(.vector_211)
                0x000000009d000250                . = ALIGN (0x4)
                0x0000000000000250                __vector_offset_212 = DEFINED (__vector_dispatch_212)?(. - _ebase_address):__vector_offset_default
 *(.vector_212)
                0x000000009d000250                . = ALIGN (0x4)
                0x0000000000000250                __vector_offset_213 = DEFINED (__vector_dispatch_213)?(. - _ebase_address):__vector_offset_default
 *(.vector_213)
                0x000000009d000250                . = ALIGN (0x4)
                0x0000000000000250                __vector_offset_214 = DEFINED (__vector_dispatch_214)?(. - _ebase_address):__vector_offset_default
 *(.vector_214)
                0x000000009d000250                . = ALIGN (0x4)
                0x0000000000000250                __vector_offset_215 = DEFINED (__vector_dispatch_215)?(. - _ebase_address):__vector_offset_default
 *(.vector_215)
                0x000000009d000250                . = ALIGN (0x4)
                0x0000000000000250                __vector_offset_216 = DEFINED (__vector_dispatch_216)?(. - _ebase_address):__vector_offset_default
 *(.vector_216)
                0x000000009d000250                . = ALIGN (0x4)
                0x0000000000000250                __vector_offset_217 = DEFINED (__vector_dispatch_217)?(. - _ebase_address):__vector_offset_default
 *(.vector_217)
                0x000000009d000250                . = ALIGN (0x4)
                0x0000000000000250                __vector_offset_218 = DEFINED (__vector_dispatch_218)?(. - _ebase_address):__vector_offset_default
 *(.vector_218)
                0x000000009d000250                . = ALIGN (0x4)
                0x0000000000000250                __vector_offset_219 = DEFINED (__vector_dispatch_219)?(. - _ebase_address):__vector_offset_default
 *(.vector_219)
                0x000000009d000250                . = ALIGN (0x4)
                0x0000000000000250                __vector_offset_220 = DEFINED (__vector_dispatch_220)?(. - _ebase_address):__vector_offset_default
 *(.vector_220)
                0x000000009d000250                . = ALIGN (0x4)
                0x0000000000000250                __vector_offset_221 = DEFINED (__vector_dispatch_221)?(. - _ebase_address):__vector_offset_default
 *(.vector_221)
                0x000000009d000250                . = ALIGN (0x4)
                0x0000000000000250                __vector_offset_222 = DEFINED (__vector_dispatch_222)?(. - _ebase_address):__vector_offset_default
 *(.vector_222)
                0x000000009d000250                . = ALIGN (0x4)
                0x0000000000000250                __vector_offset_223 = DEFINED (__vector_dispatch_223)?(. - _ebase_address):__vector_offset_default
 *(.vector_223)
                0x000000009d000250                . = ALIGN (0x4)
                0x0000000000000250                __vector_offset_224 = DEFINED (__vector_dispatch_224)?(. - _ebase_address):__vector_offset_default
 *(.vector_224)
                0x000000009d000250                . = ALIGN (0x4)
                0x0000000000000250                __vector_offset_225 = DEFINED (__vector_dispatch_225)?(. - _ebase_address):__vector_offset_default
 *(.vector_225)
                0x000000009d000250                . = ALIGN (0x4)
                0x0000000000000250                __vector_offset_226 = DEFINED (__vector_dispatch_226)?(. - _ebase_address):__vector_offset_default
 *(.vector_226)
                0x000000009d000250                . = ALIGN (0x4)
                0x0000000000000250                __vector_offset_227 = DEFINED (__vector_dispatch_227)?(. - _ebase_address):__vector_offset_default
 *(.vector_227)
                0x000000009d000250                . = ALIGN (0x4)
                0x0000000000000250                __vector_offset_228 = DEFINED (__vector_dispatch_228)?(. - _ebase_address):__vector_offset_default
 *(.vector_228)
                0x000000009d000250                . = ALIGN (0x4)
                0x0000000000000250                __vector_offset_229 = DEFINED (__vector_dispatch_229)?(. - _ebase_address):__vector_offset_default
 *(.vector_229)
                0x000000009d000250                . = ALIGN (0x4)
                0x0000000000000250                __vector_offset_230 = DEFINED (__vector_dispatch_230)?(. - _ebase_address):__vector_offset_default
 *(.vector_230)
                0x000000009d000250                . = ALIGN (0x4)
                0x0000000000000250                __vector_offset_231 = DEFINED (__vector_dispatch_231)?(. - _ebase_address):__vector_offset_default
 *(.vector_231)
                0x000000009d000250                . = ALIGN (0x4)
                0x0000000000000250                __vector_offset_232 = DEFINED (__vector_dispatch_232)?(. - _ebase_address):__vector_offset_default
 *(.vector_232)
                0x000000009d000250                . = ALIGN (0x4)
                0x0000000000000250                __vector_offset_233 = DEFINED (__vector_dispatch_233)?(. - _ebase_address):__vector_offset_default
 *(.vector_233)
                0x000000009d000250                . = ALIGN (0x4)
                0x0000000000000250                __vector_offset_234 = DEFINED (__vector_dispatch_234)?(. - _ebase_address):__vector_offset_default
 *(.vector_234)
                0x000000009d000250                . = ALIGN (0x4)
                0x0000000000000250                __vector_offset_235 = DEFINED (__vector_dispatch_235)?(. - _ebase_address):__vector_offset_default
 *(.vector_235)
                0x000000009d000250                . = ALIGN (0x4)
                0x0000000000000250                __vector_offset_236 = DEFINED (__vector_dispatch_236)?(. - _ebase_address):__vector_offset_default
 *(.vector_236)
                0x000000009d000250                . = ALIGN (0x4)
                0x0000000000000250                __vector_offset_237 = DEFINED (__vector_dispatch_237)?(. - _ebase_address):__vector_offset_default
 *(.vector_237)
                0x000000009d000250                . = ALIGN (0x4)
                0x0000000000000250                __vector_offset_238 = DEFINED (__vector_dispatch_238)?(. - _ebase_address):__vector_offset_default
 *(.vector_238)
                0x000000009d000250                . = ALIGN (0x4)
                0x0000000000000250                __vector_offset_239 = DEFINED (__vector_dispatch_239)?(. - _ebase_address):__vector_offset_default
 *(.vector_239)
                0x000000009d000250                . = ALIGN (0x4)
                0x0000000000000250                __vector_offset_240 = DEFINED (__vector_dispatch_240)?(. - _ebase_address):__vector_offset_default
 *(.vector_240)
                0x000000009d000250                . = ALIGN (0x4)
                0x0000000000000250                __vector_offset_241 = DEFINED (__vector_dispatch_241)?(. - _ebase_address):__vector_offset_default
 *(.vector_241)
                0x000000009d000250                . = ALIGN (0x4)
                0x0000000000000250                __vector_offset_242 = DEFINED (__vector_dispatch_242)?(. - _ebase_address):__vector_offset_default
 *(.vector_242)
                0x000000009d000250                . = ALIGN (0x4)
                0x0000000000000250                __vector_offset_243 = DEFINED (__vector_dispatch_243)?(. - _ebase_address):__vector_offset_default
 *(.vector_243)
                0x000000009d000250                . = ALIGN (0x4)
                0x0000000000000250                __vector_offset_244 = DEFINED (__vector_dispatch_244)?(. - _ebase_address):__vector_offset_default
 *(.vector_244)
                0x000000009d000250                . = ALIGN (0x4)
                0x0000000000000250                __vector_offset_245 = DEFINED (__vector_dispatch_245)?(. - _ebase_address):__vector_offset_default
 *(.vector_245)
                0x000000009d000250                . = ALIGN (0x4)
                0x0000000000000250                __vector_offset_246 = DEFINED (__vector_dispatch_246)?(. - _ebase_address):__vector_offset_default
 *(.vector_246)
                0x000000009d000250                . = ALIGN (0x4)
                0x0000000000000250                __vector_offset_247 = DEFINED (__vector_dispatch_247)?(. - _ebase_address):__vector_offset_default
 *(.vector_247)
                0x000000009d000250                . = ALIGN (0x4)
                0x0000000000000250                __vector_offset_248 = DEFINED (__vector_dispatch_248)?(. - _ebase_address):__vector_offset_default
 *(.vector_248)
                0x000000009d000250                . = ALIGN (0x4)
                0x0000000000000250                __vector_offset_249 = DEFINED (__vector_dispatch_249)?(. - _ebase_address):__vector_offset_default
 *(.vector_249)
                0x000000009d000250                . = ALIGN (0x4)
                0x0000000000000250                __vector_offset_250 = DEFINED (__vector_dispatch_250)?(. - _ebase_address):__vector_offset_default
 *(.vector_250)
                0x000000009d000250                . = ALIGN (0x4)
                0x0000000000000250                __vector_offset_251 = DEFINED (__vector_dispatch_251)?(. - _ebase_address):__vector_offset_default
 *(.vector_251)
                0x000000009d000250                . = ALIGN (0x4)
                0x0000000000000250                __vector_offset_252 = DEFINED (__vector_dispatch_252)?(. - _ebase_address):__vector_offset_default
 *(.vector_252)
                0x000000009d000250                . = ALIGN (0x4)
                0x0000000000000250                __vector_offset_253 = DEFINED (__vector_dispatch_253)?(. - _ebase_address):__vector_offset_default
 *(.vector_253)
                0x000000009d000250                . = ALIGN (0x4)
                0x0000000000000250                __vector_offset_254 = DEFINED (__vector_dispatch_254)?(. - _ebase_address):__vector_offset_default
 *(.vector_254)
                0x000000009d000250                . = ALIGN (0x4)
                0x0000000000000250                __vector_offset_255 = DEFINED (__vector_dispatch_255)?(. - _ebase_address):__vector_offset_default
 *(.vector_255)
                0x000000009d000250                . = ALIGN (0x4)
                0x0000000000000250                __vector_offset_default = (. - _ebase_address)
 *(.vector_default)
 .vector_default
                0x000000009d000250       0x48 /opt/microchip/xc32/v4.21/bin/bin/../../lib/gcc/pic32mx/8.3.1/../../../../pic32mx/lib/fpu64/libpic32.a(defaultinterrupt.o)
                0x000000009d000250                _DefaultInterrupt

.startup
 *(.startup)

.text           0x000000009d000298        0x0
 *(.stub .gnu.linkonce.t.*)
 *(.text.*personality*)
 *(.mips16.fn.*)
 *(.mips16.call.*)
 *(.gnu.warning)
                0x000000009d000298                . = ALIGN (0x4)

.init           0x000000009d000298        0x0
 *crti.o(.init)
 *crtbegin.o(.init)
 *(EXCLUDE_FILE(*crtn.o *crtend?.o *crtend.o) .init)
 *crtend.o(.init)
 *crtn.o(.init)
                0x000000009d000298                . = ALIGN (0x4)

.fini           0x000000009d000298        0x0
 *(.fini)
                0x000000009d000298                . = ALIGN (0x4)

.preinit_array  0x000000009d000298        0x0
                [!provide]                        PROVIDE (__preinit_array_start = .)
 *(.preinit_array)
                [!provide]                        PROVIDE (__preinit_array_end = .)
                0x000000009d000298                . = ALIGN (0x4)

.init_array     0x000000009d000298        0x0
                [!provide]                        PROVIDE (__init_array_start = .)
 *(SORT_BY_NAME(.init_array.*))
 *(.init_array)
                [!provide]                        PROVIDE (__init_array_end = .)
                0x000000009d000298                . = ALIGN (0x4)

.fini_array     0x000000009d000298        0x0
                [!provide]                        PROVIDE (__fini_array_start = .)
 *(SORT_BY_NAME(.fini_array.*))
 *(.fini_array)
                [!provide]                        PROVIDE (__fini_array_end = .)
                0x000000009d000298                . = ALIGN (0x4)

.ctors          0x000000009d000298        0x0
 *crtbegin.o(.ctors)
 *crtbegin?.o(.ctors)
 *(EXCLUDE_FILE(*crtend?.o *crtend.o) .ctors)
 *(SORT_BY_NAME(.ctors.*))
 *(.ctors)
                0x000000009d000298                . = ALIGN (0x4)

.dtors          0x000000009d000298        0x0
 *crtbegin.o(.dtors)
 *crtbegin?.o(.dtors)
 *(EXCLUDE_FILE(*crtend?.o *crtend.o) .dtors)
 *(SORT_BY_NAME(.dtors.*))
 *(.dtors)
                0x000000009d000298                . = ALIGN (0x4)

.rodata         0x000000009d000298        0x0
 *(.gnu.linkonce.r.*)
 *(.rodata1)
                0x000000009d000298                . = ALIGN (0x4)

.sdata2         0x000000009d000298        0x0
 *(.sdata2 .sdata2.* .gnu.linkonce.s2.*)
                0x000000009d000298                . = ALIGN (0x4)

.sbss2          0x000000009d000298        0x0
 *(.sbss2 .sbss2.* .gnu.linkonce.sb2.*)
                0x000000009d000298                . = ALIGN (0x4)

.eh_frame_hdr
 *(.eh_frame_hdr)
                0x000000009d000298                . = ALIGN (0x4)

.eh_frame
 *(.eh_frame)
                0x000000009d000298                . = ALIGN (0x4)

.gcc_except_table
 *(.gcc_except_table .gcc_except_table.*)
                0x000000009d000298                . = ALIGN (0x4)

.dbg_data       0x0000000080000000        0x0
                0x0000000080000000                . = (. + DEFINED (_DEBUGGER)?0x200:0x0)
                0x0000000080000000                . = (. + DEFINED (_DEBUGGER)?0x80:0x0)
                0x0000000080000000                . = (. + DEFINED (_DEBUGGER)?0x100:0x0)

.jcr            0x0000000080000000        0x0
 *(.jcr)
                0x0000000080000000                . = ALIGN (0x4)

.eh_frame
 *(.eh_frame)
                0x0000000080000000                . = ALIGN (0x4)

.gcc_except_table
 *(.gcc_except_table .gcc_except_table.*)
                0x0000000080000000                . = ALIGN (0x4)

.persist        0x0000000080000000        0x0
                0x0000000080000000                _persist_begin = .
 *(.persist .persist.*)
                0x0000000080000000                . = ALIGN (0x4)
                0x0000000080000000                _persist_end = .

.data           0x0000000080000000        0x0
 *(.gnu.linkonce.d.*)
 *(.data1)
                0x0000000080000000                . = ALIGN (0x4)
                0x0000000080000000                . = .
                0x0000000080007ff0                _gp = (ALIGN (0x10) + 0x7ff0)

.got            0x0000000080000000        0x0
 *(.got.plt)
 *(.got)
                0x0000000080000000                . = ALIGN (0x4)

.sdata          0x0000000080000000       0x2c
                0x0000000080000000                _sdata_begin = .
 *(.sdata .sdata.* .gnu.linkonce.s.*)
 .sdata         0x0000000080000000        0x2 build/default/production/_ext/1571292264/7segments.o
 *fill*         0x0000000080000002        0x2 
 .sdata         0x0000000080000004        0x4 build/default/production/_ext/1249264884/plib_coretimer.o
 .sdata         0x0000000080000008       0x24 /opt/microchip/xc32/v4.21/bin/bin/../../lib/gcc/pic32mx/8.3.1/../../../../pic32mx/lib/fpu64/libpic32.a(pic32_init_cache.o)
                0x0000000080000008                __pic32_icache_size
                0x000000008000000c                __pic32_icache_linesize
                0x0000000080000010                __pic32_icache_ways
                0x0000000080000014                __pic32_dcache_size
                0x0000000080000018                __pic32_dcache_linesize
                0x000000008000001c                __pic32_dcache_ways
                0x0000000080000020                __pic32_scache_size
                0x0000000080000024                __pic32_scache_linesize
                0x0000000080000028                __pic32_scache_ways
                0x000000008000002c                . = ALIGN (0x4)
                0x000000008000002c                _sdata_end = .

.lit8
 *(.lit8)

.lit4
 *(.lit4)
                0x000000008000002c                . = ALIGN (0x4)
                0x000000008000002c                _data_end = .
                0x000000008000002c                _bss_begin = .

.sbss           0x000000008000002c       0x60
                0x000000008000002c                _sbss_begin = .
 *(.dynsbss)
 *(.sbss .sbss.* .gnu.linkonce.sb.*)
 .sbss          0x000000008000002c        0x4 build/default/production/_ext/383772639/buffer.o
 .sbss          0x0000000080000030        0x8 build/default/production/_ext/92899495/system.o
 .sbss          0x0000000080000038        0x1 build/default/production/_ext/79239498/timer1.o
 *fill*         0x0000000080000039        0x3 
 .sbss          0x000000008000003c        0x9 build/default/production/_ext/1522154941/uart5.o
 *fill*         0x0000000080000045        0x3 
 .sbss          0x0000000080000048        0x8 build/default/production/_ext/60181895/plib_tmr4.o
 .sbss          0x0000000080000050        0x8 build/default/production/_ext/1865638794/plib_tmr1.o
 .sbss          0x0000000080000058       0x21 build/default/production/_ext/1019397905/mainCubeMeteo.o
                0x0000000080000074                nBytes
                0x0000000080000078                rxThresholdEventReceived
 .sbss          0x0000000080000079        0x1 build/default/production/_ext/428692892/HC-SR04.o
                0x0000000080000079                captureIndex
 *fill*         0x000000008000007a        0x2 
 .sbss          0x000000008000007c       0x10 build/default/production/_ext/1098102801/PCF8563.o
 *(.scommon)
                0x000000008000008c                _sbss_end = .
                0x000000008000008c                . = ALIGN (0x4)

.bss            0x000000008000008c       0x78
 *(.dynbss)
 *(COMMON)
 COMMON         0x000000008000008c       0x34 build/default/production/_ext/1865657120/plib_uart2.o
                0x000000008000008c                uart2Obj
 COMMON         0x00000000800000c0       0x44 build/default/production/_ext/1865657120/plib_uart5.o
                0x00000000800000c0                uart5Obj
                0x0000000080000104                . = ALIGN ((. != 0x0)?0x4:0x1)
                0x0000000080000104                . = ALIGN (0x4)
                0x0000000080000104                _end = .
                0x0000000080000104                _bss_end = .
                0x0000000000080000                _bmxdudba_address = LENGTH (kseg0_data_mem)
                0x0000000000080000                _bmxdupba_address = LENGTH (kseg0_data_mem)

/DISCARD/
 *(.pdr)
 *(.rel.dyn)
 *(.note.GNU-stack)
 *(.note.GNU-stack)
 *(.gnu_debuglink)
 *(.gnu.lto_*)
 *(.discard)

.gptab.sdata
 *(.gptab.data)
 *(.gptab.sdata)

.gptab.sbss
 *(.gptab.bss)
 *(.gptab.sbss)

.mdebug.abi32   0x0000000000000000        0x0
 *(.mdebug.abi32)
 .mdebug.abi32  0x0000000000000000        0x0 build/default/production/_ext/1571292264/7segments.o
 .mdebug.abi32  0x0000000000000000        0x0 build/default/production/_ext/1571292264/7segmentsOutputStream.o
 .mdebug.abi32  0x0000000000000000        0x0 build/default/production/_ext/1505855908/clock.o
 .mdebug.abi32  0x0000000000000000        0x0 build/default/production/_ext/1505855908/clockStream.o
 .mdebug.abi32  0x0000000000000000        0x0 build/default/production/_ext/1506567961/delay.o
 .mdebug.abi32  0x0000000000000000        0x0 build/default/production/_ext/529250520/displayUtils.o
 .mdebug.abi32  0x0000000000000000        0x0 build/default/production/_ext/529250520/displayStream.o
 .mdebug.abi32  0x0000000000000000        0x0 build/default/production/_ext/1507884958/error.o
 .mdebug.abi32  0x0000000000000000        0x0 build/default/production/_ext/383772639/buffer.o
 .mdebug.abi32  0x0000000000000000        0x0 build/default/production/_ext/242462784/outputStream.o
 .mdebug.abi32  0x0000000000000000        0x0 build/default/production/_ext/1038083393/printWriter.o
 .mdebug.abi32  0x0000000000000000        0x0 build/default/production/_ext/919093983/led.o
 .mdebug.abi32  0x0000000000000000        0x0 build/default/production/_ext/919119933/RGB.o
 .mdebug.abi32  0x0000000000000000        0x0 build/default/production/_ext/919119933/RGBStream.o
 .mdebug.abi32  0x0000000000000000        0x0 build/default/production/_ext/99833024/distance.o
 .mdebug.abi32  0x0000000000000000        0x0 build/default/production/_ext/99833024/distanceStream.o
 .mdebug.abi32  0x0000000000000000        0x0 build/default/production/_ext/991344331/frequencyCounterStream.o
 .mdebug.abi32  0x0000000000000000        0x0 build/default/production/_ext/991344331/frequencyCounterUtils.o
 .mdebug.abi32  0x0000000000000000        0x0 build/default/production/_ext/991344331/frequencyCounter.o
 .mdebug.abi32  0x0000000000000000        0x0 build/default/production/_ext/1240316727/temperatureStream.o
 .mdebug.abi32  0x0000000000000000        0x0 build/default/production/_ext/1240316727/temperature.o
 .mdebug.abi32  0x0000000000000000        0x0 build/default/production/_ext/111410402/serialOutpuStream.o
 .mdebug.abi32  0x0000000000000000        0x0 build/default/production/_ext/111410402/serial.o
 .mdebug.abi32  0x0000000000000000        0x0 build/default/production/_ext/92899495/system.o
 .mdebug.abi32  0x0000000000000000        0x0 build/default/production/_ext/79239498/timer1.o
 .mdebug.abi32  0x0000000000000000        0x0 build/default/production/_ext/1522154941/uart5.o
 .mdebug.abi32  0x0000000000000000        0x0 build/default/production/_ext/1982400153/plib_adchs.o
 .mdebug.abi32  0x0000000000000000        0x0 build/default/production/_ext/1984157808/plib_cache.o
 .mdebug.abi32  0x0000000000000000        0x0 build/default/production/_ext/60165520/plib_clk.o
 .mdebug.abi32  0x0000000000000000        0x0 build/default/production/_ext/1249264884/plib_coretimer.o
 .mdebug.abi32  0x0000000000000000        0x0 build/default/production/_ext/1865200349/plib_evic.o
 .mdebug.abi32  0x0000000000000000        0x0 build/default/production/_ext/1865254177/plib_gpio.o
 .mdebug.abi32  0x0000000000000000        0x0 build/default/production/_ext/513455433/plib_i2c1_master.o
 .mdebug.abi32  0x0000000000000000        0x0 build/default/production/_ext/1865301019/plib_icap1.o
 .mdebug.abi32  0x0000000000000000        0x0 build/default/production/_ext/1865301019/plib_icap2.o
 .mdebug.abi32  0x0000000000000000        0x0 build/default/production/_ext/1865480137/plib_ocmp3.o
 .mdebug.abi32  0x0000000000000000        0x0 build/default/production/_ext/60181895/plib_tmr2.o
 .mdebug.abi32  0x0000000000000000        0x0 build/default/production/_ext/60181895/plib_tmr4.o
 .mdebug.abi32  0x0000000000000000        0x0 build/default/production/_ext/1865638794/plib_tmr1.o
 .mdebug.abi32  0x0000000000000000        0x0 build/default/production/_ext/1865657120/plib_uart2.o
 .mdebug.abi32  0x0000000000000000        0x0 build/default/production/_ext/1865657120/plib_uart5.o
 .mdebug.abi32  0x0000000000000000        0x0 build/default/production/_ext/163028504/xc32_monitor.o
 .mdebug.abi32  0x0000000000000000        0x0 build/default/production/_ext/1171490990/initialization.o
 .mdebug.abi32  0x0000000000000000        0x0 build/default/production/_ext/1171490990/interrupts.o
 .mdebug.abi32  0x0000000000000000        0x0 build/default/production/_ext/1171490990/exceptions.o
 .mdebug.abi32  0x0000000000000000        0x0 build/default/production/_ext/1019397905/mainCubeMeteo.o
 .mdebug.abi32  0x0000000000000000        0x0 build/default/production/_ext/1019397905/cubeCommon.o
 .mdebug.abi32  0x0000000000000000        0x0 build/default/production/_ext/428692892/HC-SR04.o
 .mdebug.abi32  0x0000000000000000        0x0 build/default/production/_ext/1367680316/LM75A.o
 .mdebug.abi32  0x0000000000000000        0x0 build/default/production/_ext/1098102801/PCF8563.o
 .mdebug.abi32  0x0000000000000000        0x0 build/default/production/_ext/672751358/SAA1064T.o
 .mdebug.abi32  0x0000000000000000        0x0 build/default/production/_ext/780438209/TM1638.o
 .mdebug.abi32  0x0000000000000000        0x0 build/default/production/_ext/1259047745/WS2812b.o
 .mdebug.abi32  0x0000000000000000        0x0 build/default/production/_ext/1360937237/mainCube.o
 .mdebug.abi32  0x0000000000000000        0x0 /opt/microchip/xc32/v4.21/bin/bin/../../lib/gcc/pic32mx/8.3.1/fpu64/libgcc.a(_divdi3.o)
 .mdebug.abi32  0x0000000000000000        0x0 /opt/microchip/xc32/v4.21/bin/bin/../../lib/gcc/pic32mx/8.3.1/../../../../pic32mx/lib/fpu64/libpic32.a(default-on-reset.o)
 .mdebug.abi32  0x0000000000000000        0x0 /opt/microchip/xc32/v4.21/bin/bin/../../lib/gcc/pic32mx/8.3.1/../../../../pic32mx/lib/fpu64/libpic32.a(default-on-bootstrap.o)
 .mdebug.abi32  0x0000000000000000        0x0 /opt/microchip/xc32/v4.21/bin/bin/../../lib/gcc/pic32mx/8.3.1/../../../../pic32mx/lib/fpu64/libpic32.a(defaultinterrupt.o)
 .mdebug.abi32  0x0000000000000000        0x0 /opt/microchip/xc32/v4.21/bin/bin/../../lib/gcc/pic32mx/8.3.1/../../../../pic32mx/lib/fpu64/libc-musl.a(__sio_sprintf_doux.o)
 .mdebug.abi32  0x0000000000000000        0x0 /opt/microchip/xc32/v4.21/bin/bin/../../lib/gcc/pic32mx/8.3.1/../../../../pic32mx/lib/fpu64/libc-musl.a(__fmt_d.o)
 .mdebug.abi32  0x0000000000000000        0x0 /opt/microchip/xc32/v4.21/bin/bin/../../lib/gcc/pic32mx/8.3.1/../../../../pic32mx/lib/fpu64/libc-musl.a(__fmt_o.o)
 .mdebug.abi32  0x0000000000000000        0x0 /opt/microchip/xc32/v4.21/bin/bin/../../lib/gcc/pic32mx/8.3.1/../../../../pic32mx/lib/fpu64/libc-musl.a(__fmt_s.o)
 .mdebug.abi32  0x0000000000000000        0x0 /opt/microchip/xc32/v4.21/bin/bin/../../lib/gcc/pic32mx/8.3.1/../../../../pic32mx/lib/fpu64/libc-musl.a(__fmt_u.o)
 .mdebug.abi32  0x0000000000000000        0x0 /opt/microchip/xc32/v4.21/bin/bin/../../lib/gcc/pic32mx/8.3.1/../../../../pic32mx/lib/fpu64/libc-musl.a(__fmt_x.o)
 .mdebug.abi32  0x0000000000000000        0x0 /opt/microchip/xc32/v4.21/bin/bin/../../lib/gcc/pic32mx/8.3.1/../../../../pic32mx/lib/fpu64/libc-musl.a(__pop_int.o)
 .mdebug.abi32  0x0000000000000000        0x0 /opt/microchip/xc32/v4.21/bin/bin/../../lib/gcc/pic32mx/8.3.1/../../../../pic32mx/lib/fpu64/libc-musl.a(__pop_ptr.o)
 .mdebug.abi32  0x0000000000000000        0x0 /opt/microchip/xc32/v4.21/bin/bin/../../lib/gcc/pic32mx/8.3.1/../../../../pic32mx/lib/fpu64/libc-musl.a(__printf_core.o)
 .mdebug.abi32  0x0000000000000000        0x0 /opt/microchip/xc32/v4.21/bin/bin/../../lib/gcc/pic32mx/8.3.1/../../../../pic32mx/lib/fpu64/libc-musl.a(atoi.o)
 .mdebug.abi32  0x0000000000000000        0x0 /opt/microchip/xc32/v4.21/bin/bin/../../lib/gcc/pic32mx/8.3.1/../../../../pic32mx/lib/fpu64/libc-musl.a(memset.o)
 .mdebug.abi32  0x0000000000000000        0x0 /opt/microchip/xc32/v4.21/bin/bin/../../lib/gcc/pic32mx/8.3.1/../../../../pic32mx/lib/fpu64/libc-musl.a(tolower.o)
 .mdebug.abi32  0x0000000000000000        0x0 /opt/microchip/xc32/v4.21/bin/bin/../../lib/gcc/pic32mx/8.3.1/../../../../pic32mx/lib/fpu64/libc-musl.a(toupper.o)
 .mdebug.abi32  0x0000000000000000        0x0 /opt/microchip/xc32/v4.21/bin/bin/../../lib/gcc/pic32mx/8.3.1/../../../../pic32mx/lib/fpu64/libc-musl.a(__int_vsprintf.o)
 .mdebug.abi32  0x0000000000000000        0x0 /opt/microchip/xc32/v4.21/bin/bin/../../lib/gcc/pic32mx/8.3.1/../../../../pic32mx/lib/fpu64/libc-musl.a(__pop_float.o)
 .mdebug.abi32  0x0000000000000000        0x0 /opt/microchip/xc32/v4.21/bin/bin/../../lib/gcc/pic32mx/8.3.1/../../../../pic32mx/lib/fpu64/libc-musl.a(__int_vsnprintf.o)
 .mdebug.abi32  0x0000000000000000        0x0 /opt/microchip/xc32/v4.21/bin/bin/../../lib/gcc/pic32mx/8.3.1/../../../../pic32mx/lib/fpu64/libc-musl.a(__int_vfprintf.o)
 .mdebug.abi32  0x0000000000000000        0x0 /opt/microchip/xc32/v4.21/bin/bin/../../lib/gcc/pic32mx/8.3.1/fpu64/libgcc.a(_udivdi3.o)
 .mdebug.abi32  0x0000000000000000        0x0 /opt/microchip/xc32/v4.21/bin/bin/../../lib/gcc/pic32mx/8.3.1/fpu64/libgcc.a(_umoddi3.o)
 .mdebug.abi32  0x0000000000000000        0x0 /opt/microchip/xc32/v4.21/bin/bin/../../lib/gcc/pic32mx/8.3.1/../../../../pic32mx/lib/fpu64/libpic32.a(errno.o)

.mdebug.abiN32
 *(.mdebug.abiN32)

.mdebug.abi64
 *(.mdebug.abi64)

.mdebug.abiO64
 *(.mdebug.abiO64)

.mdebug.eabi32
 *(.mdebug.eabi32)

.mdebug.eabi64
 *(.mdebug.eabi64)

.gcc_compiled_long32
 *(.gcc_compiled_long32)

.gcc_compiled_long64
 *(.gcc_compiled_long64)

.stab
 *(.stab)

.stabstr
 *(.stabstr)

.stab.excl
 *(.stab.excl)

.stab.exclstr
 *(.stab.exclstr)

.stab.index
 *(.stab.index)

.stab.indexstr
 *(.stab.indexstr)

.comment        0x0000000000000000       0x44
 *(.comment)
 .comment       0x0000000000000000       0x2b build/default/production/_ext/1571292264/7segments.o
                                         0x2c (size before relaxing)
 .comment       0x000000000000002b       0x2c build/default/production/_ext/1571292264/7segmentsOutputStream.o
 .comment       0x000000000000002b       0x2c build/default/production/_ext/1505855908/clock.o
 .comment       0x000000000000002b       0x2c build/default/production/_ext/1505855908/clockStream.o
 .comment       0x000000000000002b       0x2c build/default/production/_ext/1506567961/delay.o
 .comment       0x000000000000002b       0x2c build/default/production/_ext/529250520/displayUtils.o
 .comment       0x000000000000002b       0x2c build/default/production/_ext/529250520/displayStream.o
 .comment       0x000000000000002b       0x2c build/default/production/_ext/1507884958/error.o
 .comment       0x000000000000002b       0x2c build/default/production/_ext/383772639/buffer.o
 .comment       0x000000000000002b       0x2c build/default/production/_ext/242462784/outputStream.o
 .comment       0x000000000000002b       0x2c build/default/production/_ext/1038083393/printWriter.o
 .comment       0x000000000000002b       0x2c build/default/production/_ext/919093983/led.o
 .comment       0x000000000000002b       0x2c build/default/production/_ext/919119933/RGB.o
 .comment       0x000000000000002b       0x2c build/default/production/_ext/919119933/RGBStream.o
 .comment       0x000000000000002b       0x2c build/default/production/_ext/99833024/distance.o
 .comment       0x000000000000002b       0x2c build/default/production/_ext/99833024/distanceStream.o
 .comment       0x000000000000002b       0x2c build/default/production/_ext/991344331/frequencyCounterStream.o
 .comment       0x000000000000002b       0x2c build/default/production/_ext/991344331/frequencyCounterUtils.o
 .comment       0x000000000000002b       0x2c build/default/production/_ext/991344331/frequencyCounter.o
 .comment       0x000000000000002b       0x2c build/default/production/_ext/1240316727/temperatureStream.o
 .comment       0x000000000000002b       0x2c build/default/production/_ext/1240316727/temperature.o
 .comment       0x000000000000002b       0x2c build/default/production/_ext/111410402/serialOutpuStream.o
 .comment       0x000000000000002b       0x2c build/default/production/_ext/111410402/serial.o
 .comment       0x000000000000002b       0x2c build/default/production/_ext/92899495/system.o
 .comment       0x000000000000002b       0x2c build/default/production/_ext/79239498/timer1.o
 .comment       0x000000000000002b       0x2c build/default/production/_ext/1522154941/uart5.o
 .comment       0x000000000000002b       0x2c build/default/production/_ext/1982400153/plib_adchs.o
 .comment       0x000000000000002b       0x2c build/default/production/_ext/1984157808/plib_cache.o
 .comment       0x000000000000002b       0x2c build/default/production/_ext/60165520/plib_clk.o
 .comment       0x000000000000002b       0x2c build/default/production/_ext/1249264884/plib_coretimer.o
 .comment       0x000000000000002b       0x2c build/default/production/_ext/1865200349/plib_evic.o
 .comment       0x000000000000002b       0x2c build/default/production/_ext/1865254177/plib_gpio.o
 .comment       0x000000000000002b       0x2c build/default/production/_ext/513455433/plib_i2c1_master.o
 .comment       0x000000000000002b       0x2c build/default/production/_ext/1865301019/plib_icap1.o
 .comment       0x000000000000002b       0x2c build/default/production/_ext/1865301019/plib_icap2.o
 .comment       0x000000000000002b       0x2c build/default/production/_ext/1865480137/plib_ocmp3.o
 .comment       0x000000000000002b       0x2c build/default/production/_ext/60181895/plib_tmr2.o
 .comment       0x000000000000002b       0x2c build/default/production/_ext/60181895/plib_tmr4.o
 .comment       0x000000000000002b       0x2c build/default/production/_ext/1865638794/plib_tmr1.o
 .comment       0x000000000000002b       0x2c build/default/production/_ext/1865657120/plib_uart2.o
 .comment       0x000000000000002b       0x2c build/default/production/_ext/1865657120/plib_uart5.o
 .comment       0x000000000000002b       0x2c build/default/production/_ext/163028504/xc32_monitor.o
 .comment       0x000000000000002b       0x2c build/default/production/_ext/1171490990/initialization.o
 .comment       0x000000000000002b       0x2c build/default/production/_ext/1171490990/interrupts.o
 .comment       0x000000000000002b       0x2c build/default/production/_ext/1171490990/exceptions.o
 .comment       0x000000000000002b       0x2c build/default/production/_ext/1019397905/mainCubeMeteo.o
 .comment       0x000000000000002b       0x2c build/default/production/_ext/1019397905/cubeCommon.o
 .comment       0x000000000000002b       0x2c build/default/production/_ext/428692892/HC-SR04.o
 .comment       0x000000000000002b       0x2c build/default/production/_ext/1367680316/LM75A.o
 .comment       0x000000000000002b       0x2c build/default/production/_ext/1098102801/PCF8563.o
 .comment       0x000000000000002b       0x2c build/default/production/_ext/672751358/SAA1064T.o
 .comment       0x000000000000002b       0x2c build/default/production/_ext/780438209/TM1638.o
 .comment       0x000000000000002b       0x2c build/default/production/_ext/1259047745/WS2812b.o
 .comment       0x000000000000002b       0x2c build/default/production/_ext/1360937237/mainCube.o
 .comment       0x000000000000002b       0x2c /opt/microchip/xc32/v4.21/bin/bin/../../lib/gcc/pic32mx/8.3.1/fpu64/libgcc.a(_divdi3.o)
 .comment       0x000000000000002b       0x19 /opt/microchip/xc32/v4.21/bin/bin/../../lib/gcc/pic32mx/8.3.1/../../../../pic32mx/lib/fpu64/libpic32.a(strlen.o)
                                         0x1a (size before relaxing)
 .comment       0x0000000000000044       0x2c /opt/microchip/xc32/v4.21/bin/bin/../../lib/gcc/pic32mx/8.3.1/../../../../pic32mx/lib/fpu64/libpic32.a(default-on-reset.o)
 .comment       0x0000000000000044       0x2c /opt/microchip/xc32/v4.21/bin/bin/../../lib/gcc/pic32mx/8.3.1/../../../../pic32mx/lib/fpu64/libpic32.a(default-on-bootstrap.o)
 .comment       0x0000000000000044       0x2c /opt/microchip/xc32/v4.21/bin/bin/../../lib/gcc/pic32mx/8.3.1/../../../../pic32mx/lib/fpu64/libpic32.a(defaultinterrupt.o)
 .comment       0x0000000000000044       0x2c /opt/microchip/xc32/v4.21/bin/bin/../../lib/gcc/pic32mx/8.3.1/../../../../pic32mx/lib/fpu64/libc-musl.a(__sio_sprintf_doux.o)
 .comment       0x0000000000000044       0x2c /opt/microchip/xc32/v4.21/bin/bin/../../lib/gcc/pic32mx/8.3.1/../../../../pic32mx/lib/fpu64/libc-musl.a(__fmt_d.o)
 .comment       0x0000000000000044       0x2c /opt/microchip/xc32/v4.21/bin/bin/../../lib/gcc/pic32mx/8.3.1/../../../../pic32mx/lib/fpu64/libc-musl.a(__fmt_o.o)
 .comment       0x0000000000000044       0x2c /opt/microchip/xc32/v4.21/bin/bin/../../lib/gcc/pic32mx/8.3.1/../../../../pic32mx/lib/fpu64/libc-musl.a(__fmt_s.o)
 .comment       0x0000000000000044       0x2c /opt/microchip/xc32/v4.21/bin/bin/../../lib/gcc/pic32mx/8.3.1/../../../../pic32mx/lib/fpu64/libc-musl.a(__fmt_u.o)
 .comment       0x0000000000000044       0x2c /opt/microchip/xc32/v4.21/bin/bin/../../lib/gcc/pic32mx/8.3.1/../../../../pic32mx/lib/fpu64/libc-musl.a(__fmt_x.o)
 .comment       0x0000000000000044       0x2c /opt/microchip/xc32/v4.21/bin/bin/../../lib/gcc/pic32mx/8.3.1/../../../../pic32mx/lib/fpu64/libc-musl.a(__pop_int.o)
 .comment       0x0000000000000044       0x2c /opt/microchip/xc32/v4.21/bin/bin/../../lib/gcc/pic32mx/8.3.1/../../../../pic32mx/lib/fpu64/libc-musl.a(__pop_ptr.o)
 .comment       0x0000000000000044       0x2c /opt/microchip/xc32/v4.21/bin/bin/../../lib/gcc/pic32mx/8.3.1/../../../../pic32mx/lib/fpu64/libc-musl.a(__printf_core.o)
 .comment       0x0000000000000044       0x2c /opt/microchip/xc32/v4.21/bin/bin/../../lib/gcc/pic32mx/8.3.1/../../../../pic32mx/lib/fpu64/libc-musl.a(atoi.o)
 .comment       0x0000000000000044       0x2c /opt/microchip/xc32/v4.21/bin/bin/../../lib/gcc/pic32mx/8.3.1/../../../../pic32mx/lib/fpu64/libc-musl.a(memset.o)
 .comment       0x0000000000000044       0x2c /opt/microchip/xc32/v4.21/bin/bin/../../lib/gcc/pic32mx/8.3.1/../../../../pic32mx/lib/fpu64/libc-musl.a(tolower.o)
 .comment       0x0000000000000044       0x2c /opt/microchip/xc32/v4.21/bin/bin/../../lib/gcc/pic32mx/8.3.1/../../../../pic32mx/lib/fpu64/libc-musl.a(toupper.o)
 .comment       0x0000000000000044       0x2c /opt/microchip/xc32/v4.21/bin/bin/../../lib/gcc/pic32mx/8.3.1/../../../../pic32mx/lib/fpu64/libc-musl.a(__int_vsprintf.o)
 .comment       0x0000000000000044       0x2c /opt/microchip/xc32/v4.21/bin/bin/../../lib/gcc/pic32mx/8.3.1/../../../../pic32mx/lib/fpu64/libc-musl.a(__pop_float.o)
 .comment       0x0000000000000044       0x2c /opt/microchip/xc32/v4.21/bin/bin/../../lib/gcc/pic32mx/8.3.1/../../../../pic32mx/lib/fpu64/libc-musl.a(__int_vsnprintf.o)
 .comment       0x0000000000000044       0x2c /opt/microchip/xc32/v4.21/bin/bin/../../lib/gcc/pic32mx/8.3.1/../../../../pic32mx/lib/fpu64/libc-musl.a(__int_vfprintf.o)
 .comment       0x0000000000000044       0x2c /opt/microchip/xc32/v4.21/bin/bin/../../lib/gcc/pic32mx/8.3.1/fpu64/libgcc.a(_udivdi3.o)
 .comment       0x0000000000000044       0x2c /opt/microchip/xc32/v4.21/bin/bin/../../lib/gcc/pic32mx/8.3.1/fpu64/libgcc.a(_umoddi3.o)
 .comment       0x0000000000000044       0x2c /opt/microchip/xc32/v4.21/bin/bin/../../lib/gcc/pic32mx/8.3.1/../../../../pic32mx/lib/fpu64/libpic32.a(errno.o)

.debug
 *.elf(.debug)
 *(.debug)

.line
 *.elf(.line)
 *(.line)

.debug_srcinfo
 *.elf(.debug_srcinfo)
 *(.debug_srcinfo)

.debug_sfnames
 *.elf(.debug_sfnames)
 *(.debug_sfnames)

.debug_aranges  0x0000000000000000     0x1330
 *.elf(.debug_aranges)
 *(.debug_aranges)
 .debug_aranges
                0x0000000000000000       0x28 build/default/production/_ext/1571292264/7segments.o
 .debug_aranges
                0x0000000000000028       0x78 build/default/production/_ext/1571292264/7segmentsOutputStream.o
 .debug_aranges
                0x00000000000000a0       0x48 build/default/production/_ext/1505855908/clock.o
 .debug_aranges
                0x00000000000000e8       0x28 build/default/production/_ext/1505855908/clockStream.o
 .debug_aranges
                0x0000000000000110       0x28 build/default/production/_ext/1506567961/delay.o
 .debug_aranges
                0x0000000000000138       0x60 build/default/production/_ext/529250520/displayUtils.o
 .debug_aranges
                0x0000000000000198       0x20 build/default/production/_ext/529250520/displayStream.o
 .debug_aranges
                0x00000000000001b8       0x48 build/default/production/_ext/383772639/buffer.o
 .debug_aranges
                0x0000000000000200       0x20 build/default/production/_ext/242462784/outputStream.o
 .debug_aranges
                0x0000000000000220      0x148 build/default/production/_ext/1038083393/printWriter.o
 .debug_aranges
                0x0000000000000368       0xa0 build/default/production/_ext/919093983/led.o
 .debug_aranges
                0x0000000000000408       0x30 build/default/production/_ext/919119933/RGB.o
 .debug_aranges
                0x0000000000000438       0x28 build/default/production/_ext/919119933/RGBStream.o
 .debug_aranges
                0x0000000000000460       0x20 build/default/production/_ext/99833024/distance.o
 .debug_aranges
                0x0000000000000480       0x30 build/default/production/_ext/99833024/distanceStream.o
 .debug_aranges
                0x00000000000004b0       0x20 build/default/production/_ext/991344331/frequencyCounterStream.o
 .debug_aranges
                0x00000000000004d0       0x30 build/default/production/_ext/991344331/frequencyCounterUtils.o
 .debug_aranges
                0x0000000000000500       0x28 build/default/production/_ext/991344331/frequencyCounter.o
 .debug_aranges
                0x0000000000000528       0x30 build/default/production/_ext/1240316727/temperatureStream.o
 .debug_aranges
                0x0000000000000558       0x28 build/default/production/_ext/1240316727/temperature.o
 .debug_aranges
                0x0000000000000580       0x58 build/default/production/_ext/111410402/serialOutpuStream.o
 .debug_aranges
                0x00000000000005d8       0x18 build/default/production/_ext/111410402/serial.o
 .debug_aranges
                0x00000000000005f0       0x38 build/default/production/_ext/92899495/system.o
 .debug_aranges
                0x0000000000000628       0x38 build/default/production/_ext/79239498/timer1.o
 .debug_aranges
                0x0000000000000660       0x90 build/default/production/_ext/1522154941/uart5.o
 .debug_aranges
                0x00000000000006f0       0x88 build/default/production/_ext/1982400153/plib_adchs.o
 .debug_aranges
                0x0000000000000778       0xc0 build/default/production/_ext/1984157808/plib_cache.o
 .debug_aranges
                0x0000000000000838       0x20 build/default/production/_ext/60165520/plib_clk.o
 .debug_aranges
                0x0000000000000858       0x60 build/default/production/_ext/1249264884/plib_coretimer.o
 .debug_aranges
                0x00000000000008b8       0x68 build/default/production/_ext/1865200349/plib_evic.o
 .debug_aranges
                0x0000000000000920       0x60 build/default/production/_ext/1865254177/plib_gpio.o
 .debug_aranges
                0x0000000000000980       0x68 build/default/production/_ext/513455433/plib_i2c1_master.o
 .debug_aranges
                0x00000000000009e8       0x48 build/default/production/_ext/1865301019/plib_icap1.o
 .debug_aranges
                0x0000000000000a30       0x48 build/default/production/_ext/1865301019/plib_icap2.o
 .debug_aranges
                0x0000000000000a78       0x48 build/default/production/_ext/1865480137/plib_ocmp3.o
 .debug_aranges
                0x0000000000000ac0       0x50 build/default/production/_ext/60181895/plib_tmr2.o
 .debug_aranges
                0x0000000000000b10       0x70 build/default/production/_ext/60181895/plib_tmr4.o
 .debug_aranges
                0x0000000000000b80       0x70 build/default/production/_ext/1865638794/plib_tmr1.o
 .debug_aranges
                0x0000000000000bf0       0xa8 build/default/production/_ext/1865657120/plib_uart2.o
 .debug_aranges
                0x0000000000000c98       0xd0 build/default/production/_ext/1865657120/plib_uart5.o
 .debug_aranges
                0x0000000000000d68       0x28 build/default/production/_ext/163028504/xc32_monitor.o
 .debug_aranges
                0x0000000000000d90       0x20 build/default/production/_ext/1171490990/initialization.o
 .debug_aranges
                0x0000000000000db0       0x68 build/default/production/_ext/1171490990/interrupts.o
 .debug_aranges
                0x0000000000000e18       0x38 build/default/production/_ext/1171490990/exceptions.o
 .debug_aranges
                0x0000000000000e50       0x30 build/default/production/_ext/1019397905/mainCubeMeteo.o
 .debug_aranges
                0x0000000000000e80       0x20 build/default/production/_ext/1019397905/cubeCommon.o
 .debug_aranges
                0x0000000000000ea0       0x28 build/default/production/_ext/428692892/HC-SR04.o
 .debug_aranges
                0x0000000000000ec8       0x38 build/default/production/_ext/1367680316/LM75A.o
 .debug_aranges
                0x0000000000000f00       0x30 build/default/production/_ext/1098102801/PCF8563.o
 .debug_aranges
                0x0000000000000f30       0x28 build/default/production/_ext/672751358/SAA1064T.o
 .debug_aranges
                0x0000000000000f58       0x38 build/default/production/_ext/780438209/TM1638.o
 .debug_aranges
                0x0000000000000f90       0x50 build/default/production/_ext/1259047745/WS2812b.o
 .debug_aranges
                0x0000000000000fe0       0x20 build/default/production/_ext/1360937237/mainCube.o
 .debug_aranges
                0x0000000000001000       0x20 /opt/microchip/xc32/v4.21/bin/bin/../../lib/gcc/pic32mx/8.3.1/fpu64/libgcc.a(_divdi3.o)
 .debug_aranges
                0x0000000000001020       0x20 /opt/microchip/xc32/v4.21/bin/bin/../../lib/gcc/pic32mx/8.3.1/../../../../pic32mx/lib/fpu64/libpic32.a(default-on-reset.o)
 .debug_aranges
                0x0000000000001040       0x20 /opt/microchip/xc32/v4.21/bin/bin/../../lib/gcc/pic32mx/8.3.1/../../../../pic32mx/lib/fpu64/libpic32.a(default-on-bootstrap.o)
 .debug_aranges
                0x0000000000001060       0x20 /opt/microchip/xc32/v4.21/bin/bin/../../lib/gcc/pic32mx/8.3.1/../../../../pic32mx/lib/fpu64/libpic32.a(defaultinterrupt.o)
 .debug_aranges
                0x0000000000001080       0x28 /opt/microchip/xc32/v4.21/bin/bin/../../lib/gcc/pic32mx/8.3.1/../../../../pic32mx/lib/fpu64/libc-musl.a(__sio_sprintf_doux.o)
 .debug_aranges
                0x00000000000010a8       0x20 /opt/microchip/xc32/v4.21/bin/bin/../../lib/gcc/pic32mx/8.3.1/../../../../pic32mx/lib/fpu64/libc-musl.a(__fmt_d.o)
 .debug_aranges
                0x00000000000010c8       0x20 /opt/microchip/xc32/v4.21/bin/bin/../../lib/gcc/pic32mx/8.3.1/../../../../pic32mx/lib/fpu64/libc-musl.a(__fmt_o.o)
 .debug_aranges
                0x00000000000010e8       0x20 /opt/microchip/xc32/v4.21/bin/bin/../../lib/gcc/pic32mx/8.3.1/../../../../pic32mx/lib/fpu64/libc-musl.a(__fmt_s.o)
 .debug_aranges
                0x0000000000001108       0x28 /opt/microchip/xc32/v4.21/bin/bin/../../lib/gcc/pic32mx/8.3.1/../../../../pic32mx/lib/fpu64/libc-musl.a(__fmt_u.o)
 .debug_aranges
                0x0000000000001130       0x20 /opt/microchip/xc32/v4.21/bin/bin/../../lib/gcc/pic32mx/8.3.1/../../../../pic32mx/lib/fpu64/libc-musl.a(__fmt_x.o)
 .debug_aranges
                0x0000000000001150       0x20 /opt/microchip/xc32/v4.21/bin/bin/../../lib/gcc/pic32mx/8.3.1/../../../../pic32mx/lib/fpu64/libc-musl.a(__pop_int.o)
 .debug_aranges
                0x0000000000001170       0x20 /opt/microchip/xc32/v4.21/bin/bin/../../lib/gcc/pic32mx/8.3.1/../../../../pic32mx/lib/fpu64/libc-musl.a(__pop_ptr.o)
 .debug_aranges
                0x0000000000001190       0x50 /opt/microchip/xc32/v4.21/bin/bin/../../lib/gcc/pic32mx/8.3.1/../../../../pic32mx/lib/fpu64/libc-musl.a(__printf_core.o)
 .debug_aranges
                0x00000000000011e0       0x20 /opt/microchip/xc32/v4.21/bin/bin/../../lib/gcc/pic32mx/8.3.1/../../../../pic32mx/lib/fpu64/libc-musl.a(atoi.o)
 .debug_aranges
                0x0000000000001200       0x20 /opt/microchip/xc32/v4.21/bin/bin/../../lib/gcc/pic32mx/8.3.1/../../../../pic32mx/lib/fpu64/libc-musl.a(memset.o)
 .debug_aranges
                0x0000000000001220       0x28 /opt/microchip/xc32/v4.21/bin/bin/../../lib/gcc/pic32mx/8.3.1/../../../../pic32mx/lib/fpu64/libc-musl.a(tolower.o)
 .debug_aranges
                0x0000000000001248       0x28 /opt/microchip/xc32/v4.21/bin/bin/../../lib/gcc/pic32mx/8.3.1/../../../../pic32mx/lib/fpu64/libc-musl.a(toupper.o)
 .debug_aranges
                0x0000000000001270       0x20 /opt/microchip/xc32/v4.21/bin/bin/../../lib/gcc/pic32mx/8.3.1/../../../../pic32mx/lib/fpu64/libc-musl.a(__int_vsprintf.o)
 .debug_aranges
                0x0000000000001290       0x20 /opt/microchip/xc32/v4.21/bin/bin/../../lib/gcc/pic32mx/8.3.1/../../../../pic32mx/lib/fpu64/libc-musl.a(__pop_float.o)
 .debug_aranges
                0x00000000000012b0       0x20 /opt/microchip/xc32/v4.21/bin/bin/../../lib/gcc/pic32mx/8.3.1/../../../../pic32mx/lib/fpu64/libc-musl.a(__int_vsnprintf.o)
 .debug_aranges
                0x00000000000012d0       0x20 /opt/microchip/xc32/v4.21/bin/bin/../../lib/gcc/pic32mx/8.3.1/../../../../pic32mx/lib/fpu64/libc-musl.a(__int_vfprintf.o)
 .debug_aranges
                0x00000000000012f0       0x20 /opt/microchip/xc32/v4.21/bin/bin/../../lib/gcc/pic32mx/8.3.1/fpu64/libgcc.a(_udivdi3.o)
 .debug_aranges
                0x0000000000001310       0x20 /opt/microchip/xc32/v4.21/bin/bin/../../lib/gcc/pic32mx/8.3.1/fpu64/libgcc.a(_umoddi3.o)

.debug_pubnames
 *.elf(.debug_pubnames)
 *(.debug_pubnames)

.debug_info     0x0000000000000000    0x12ce1
 *.elf(.debug_info .gnu.linkonce.wi.*)
 *(.debug_info .gnu.linkonce.wi.*)
 .debug_info    0x0000000000000000      0x25e build/default/production/_ext/1571292264/7segments.o
 .debug_info    0x000000000000025e      0x942 build/default/production/_ext/1571292264/7segmentsOutputStream.o
 .debug_info    0x0000000000000ba0      0x7fa build/default/production/_ext/1505855908/clock.o
 .debug_info    0x000000000000139a      0x2e9 build/default/production/_ext/1505855908/clockStream.o
 .debug_info    0x0000000000001683      0x133 build/default/production/_ext/1506567961/delay.o
 .debug_info    0x00000000000017b6      0x61f build/default/production/_ext/529250520/displayUtils.o
 .debug_info    0x0000000000001dd5      0x251 build/default/production/_ext/529250520/displayStream.o
 .debug_info    0x0000000000002026      0x1a6 build/default/production/_ext/383772639/buffer.o
 .debug_info    0x00000000000021cc      0x262 build/default/production/_ext/242462784/outputStream.o
 .debug_info    0x000000000000242e     0x1561 build/default/production/_ext/1038083393/printWriter.o
 .debug_info    0x000000000000398f      0x404 build/default/production/_ext/919093983/led.o
 .debug_info    0x0000000000003d93      0x698 build/default/production/_ext/919119933/RGB.o
 .debug_info    0x000000000000442b      0x1f2 build/default/production/_ext/919119933/RGBStream.o
 .debug_info    0x000000000000461d      0x17a build/default/production/_ext/99833024/distance.o
 .debug_info    0x0000000000004797      0x248 build/default/production/_ext/99833024/distanceStream.o
 .debug_info    0x00000000000049df      0x212 build/default/production/_ext/991344331/frequencyCounterStream.o
 .debug_info    0x0000000000004bf1      0x2f6 build/default/production/_ext/991344331/frequencyCounterUtils.o
 .debug_info    0x0000000000004ee7      0x33e build/default/production/_ext/991344331/frequencyCounter.o
 .debug_info    0x0000000000005225      0x2a8 build/default/production/_ext/1240316727/temperatureStream.o
 .debug_info    0x00000000000054cd      0x2c2 build/default/production/_ext/1240316727/temperature.o
 .debug_info    0x000000000000578f      0x4f9 build/default/production/_ext/111410402/serialOutpuStream.o
 .debug_info    0x0000000000005c88       0x25 build/default/production/_ext/111410402/serial.o
 .debug_info    0x0000000000005cad       0xd9 build/default/production/_ext/92899495/system.o
 .debug_info    0x0000000000005d86      0x1c0 build/default/production/_ext/79239498/timer1.o
 .debug_info    0x0000000000005f46      0x526 build/default/production/_ext/1522154941/uart5.o
 .debug_info    0x000000000000646c      0xa8f build/default/production/_ext/1982400153/plib_adchs.o
 .debug_info    0x0000000000006efb      0x690 build/default/production/_ext/1984157808/plib_cache.o
 .debug_info    0x000000000000758b      0x11c build/default/production/_ext/60165520/plib_clk.o
 .debug_info    0x00000000000076a7      0x4f0 build/default/production/_ext/1249264884/plib_coretimer.o
 .debug_info    0x0000000000007b97      0x85b build/default/production/_ext/1865200349/plib_evic.o
 .debug_info    0x00000000000083f2      0x5b4 build/default/production/_ext/1865254177/plib_gpio.o
 .debug_info    0x00000000000089a6      0x5be build/default/production/_ext/513455433/plib_i2c1_master.o
 .debug_info    0x0000000000008f64      0x1bf build/default/production/_ext/1865301019/plib_icap1.o
 .debug_info    0x0000000000009123      0x1bf build/default/production/_ext/1865301019/plib_icap2.o
 .debug_info    0x00000000000092e2      0x17b build/default/production/_ext/1865480137/plib_ocmp3.o
 .debug_info    0x000000000000945d      0x185 build/default/production/_ext/60181895/plib_tmr2.o
 .debug_info    0x00000000000095e2      0x576 build/default/production/_ext/60181895/plib_tmr4.o
 .debug_info    0x0000000000009b58      0x59b build/default/production/_ext/1865638794/plib_tmr1.o
 .debug_info    0x000000000000a0f3      0x773 build/default/production/_ext/1865657120/plib_uart2.o
 .debug_info    0x000000000000a866      0xdae build/default/production/_ext/1865657120/plib_uart5.o
 .debug_info    0x000000000000b614       0x8a build/default/production/_ext/163028504/xc32_monitor.o
 .debug_info    0x000000000000b69e      0x3bd build/default/production/_ext/1171490990/initialization.o
 .debug_info    0x000000000000ba5b      0x276 build/default/production/_ext/1171490990/interrupts.o
 .debug_info    0x000000000000bcd1      0x16b build/default/production/_ext/1171490990/exceptions.o
 .debug_info    0x000000000000be3c     0x16cc build/default/production/_ext/1019397905/mainCubeMeteo.o
 .debug_info    0x000000000000d508       0xa1 build/default/production/_ext/1019397905/cubeCommon.o
 .debug_info    0x000000000000d5a9      0x263 build/default/production/_ext/428692892/HC-SR04.o
 .debug_info    0x000000000000d80c      0x35e build/default/production/_ext/1367680316/LM75A.o
 .debug_info    0x000000000000db6a      0x411 build/default/production/_ext/1098102801/PCF8563.o
 .debug_info    0x000000000000df7b      0x32e build/default/production/_ext/672751358/SAA1064T.o
 .debug_info    0x000000000000e2a9      0x6cd build/default/production/_ext/780438209/TM1638.o
 .debug_info    0x000000000000e976      0x44c build/default/production/_ext/1259047745/WS2812b.o
 .debug_info    0x000000000000edc2       0xf9 build/default/production/_ext/1360937237/mainCube.o
 .debug_info    0x000000000000eebb      0x71c /opt/microchip/xc32/v4.21/bin/bin/../../lib/gcc/pic32mx/8.3.1/fpu64/libgcc.a(_divdi3.o)
 .debug_info    0x000000000000f5d7       0x3f /opt/microchip/xc32/v4.21/bin/bin/../../lib/gcc/pic32mx/8.3.1/../../../../pic32mx/lib/fpu64/libpic32.a(default-on-reset.o)
 .debug_info    0x000000000000f616       0x3f /opt/microchip/xc32/v4.21/bin/bin/../../lib/gcc/pic32mx/8.3.1/../../../../pic32mx/lib/fpu64/libpic32.a(default-on-bootstrap.o)
 .debug_info    0x000000000000f655       0x40 /opt/microchip/xc32/v4.21/bin/bin/../../lib/gcc/pic32mx/8.3.1/../../../../pic32mx/lib/fpu64/libpic32.a(defaultinterrupt.o)
 .debug_info    0x000000000000f695      0x1e7 /opt/microchip/xc32/v4.21/bin/bin/../../lib/gcc/pic32mx/8.3.1/../../../../pic32mx/lib/fpu64/libc-musl.a(__sio_sprintf_doux.o)
 .debug_info    0x000000000000f87c      0x327 /opt/microchip/xc32/v4.21/bin/bin/../../lib/gcc/pic32mx/8.3.1/../../../../pic32mx/lib/fpu64/libc-musl.a(__fmt_d.o)
 .debug_info    0x000000000000fba3      0x2f8 /opt/microchip/xc32/v4.21/bin/bin/../../lib/gcc/pic32mx/8.3.1/../../../../pic32mx/lib/fpu64/libc-musl.a(__fmt_o.o)
 .debug_info    0x000000000000fe9b      0x2a9 /opt/microchip/xc32/v4.21/bin/bin/../../lib/gcc/pic32mx/8.3.1/../../../../pic32mx/lib/fpu64/libc-musl.a(__fmt_s.o)
 .debug_info    0x0000000000010144      0x3cb /opt/microchip/xc32/v4.21/bin/bin/../../lib/gcc/pic32mx/8.3.1/../../../../pic32mx/lib/fpu64/libc-musl.a(__fmt_u.o)
 .debug_info    0x000000000001050f      0x322 /opt/microchip/xc32/v4.21/bin/bin/../../lib/gcc/pic32mx/8.3.1/../../../../pic32mx/lib/fpu64/libc-musl.a(__fmt_x.o)
 .debug_info    0x0000000000010831      0x14e /opt/microchip/xc32/v4.21/bin/bin/../../lib/gcc/pic32mx/8.3.1/../../../../pic32mx/lib/fpu64/libc-musl.a(__pop_int.o)
 .debug_info    0x000000000001097f      0x15e /opt/microchip/xc32/v4.21/bin/bin/../../lib/gcc/pic32mx/8.3.1/../../../../pic32mx/lib/fpu64/libc-musl.a(__pop_ptr.o)
 .debug_info    0x0000000000010add      0x9ee /opt/microchip/xc32/v4.21/bin/bin/../../lib/gcc/pic32mx/8.3.1/../../../../pic32mx/lib/fpu64/libc-musl.a(__printf_core.o)
 .debug_info    0x00000000000114cb       0xee /opt/microchip/xc32/v4.21/bin/bin/../../lib/gcc/pic32mx/8.3.1/../../../../pic32mx/lib/fpu64/libc-musl.a(atoi.o)
 .debug_info    0x00000000000115b9       0xba /opt/microchip/xc32/v4.21/bin/bin/../../lib/gcc/pic32mx/8.3.1/../../../../pic32mx/lib/fpu64/libc-musl.a(memset.o)
 .debug_info    0x0000000000011673      0x11b /opt/microchip/xc32/v4.21/bin/bin/../../lib/gcc/pic32mx/8.3.1/../../../../pic32mx/lib/fpu64/libc-musl.a(tolower.o)
 .debug_info    0x000000000001178e      0x11b /opt/microchip/xc32/v4.21/bin/bin/../../lib/gcc/pic32mx/8.3.1/../../../../pic32mx/lib/fpu64/libc-musl.a(toupper.o)
 .debug_info    0x00000000000118a9      0x127 /opt/microchip/xc32/v4.21/bin/bin/../../lib/gcc/pic32mx/8.3.1/../../../../pic32mx/lib/fpu64/libc-musl.a(__int_vsprintf.o)
 .debug_info    0x00000000000119d0      0x134 /opt/microchip/xc32/v4.21/bin/bin/../../lib/gcc/pic32mx/8.3.1/../../../../pic32mx/lib/fpu64/libc-musl.a(__pop_float.o)
 .debug_info    0x0000000000011b04      0x1f5 /opt/microchip/xc32/v4.21/bin/bin/../../lib/gcc/pic32mx/8.3.1/../../../../pic32mx/lib/fpu64/libc-musl.a(__int_vsnprintf.o)
 .debug_info    0x0000000000011cf9      0x1e0 /opt/microchip/xc32/v4.21/bin/bin/../../lib/gcc/pic32mx/8.3.1/../../../../pic32mx/lib/fpu64/libc-musl.a(__int_vfprintf.o)
 .debug_info    0x0000000000011ed9      0x6ca /opt/microchip/xc32/v4.21/bin/bin/../../lib/gcc/pic32mx/8.3.1/fpu64/libgcc.a(_udivdi3.o)
 .debug_info    0x00000000000125a3      0x73e /opt/microchip/xc32/v4.21/bin/bin/../../lib/gcc/pic32mx/8.3.1/fpu64/libgcc.a(_umoddi3.o)

.debug_abbrev   0x0000000000000000     0x5f67
 *.elf(.debug_abbrev)
 *(.debug_abbrev)
 .debug_abbrev  0x0000000000000000      0x133 build/default/production/_ext/1571292264/7segments.o
 .debug_abbrev  0x0000000000000133      0x25e build/default/production/_ext/1571292264/7segmentsOutputStream.o
 .debug_abbrev  0x0000000000000391      0x19b build/default/production/_ext/1505855908/clock.o
 .debug_abbrev  0x000000000000052c      0x16e build/default/production/_ext/1505855908/clockStream.o
 .debug_abbrev  0x000000000000069a       0x96 build/default/production/_ext/1506567961/delay.o
 .debug_abbrev  0x0000000000000730      0x1e9 build/default/production/_ext/529250520/displayUtils.o
 .debug_abbrev  0x0000000000000919       0xd7 build/default/production/_ext/529250520/displayStream.o
 .debug_abbrev  0x00000000000009f0       0xeb build/default/production/_ext/383772639/buffer.o
 .debug_abbrev  0x0000000000000adb       0xaa build/default/production/_ext/242462784/outputStream.o
 .debug_abbrev  0x0000000000000b85      0x2b2 build/default/production/_ext/1038083393/printWriter.o
 .debug_abbrev  0x0000000000000e37      0x107 build/default/production/_ext/919093983/led.o
 .debug_abbrev  0x0000000000000f3e      0x14c build/default/production/_ext/919119933/RGB.o
 .debug_abbrev  0x000000000000108a      0x163 build/default/production/_ext/919119933/RGBStream.o
 .debug_abbrev  0x00000000000011ed       0xf8 build/default/production/_ext/99833024/distance.o
 .debug_abbrev  0x00000000000012e5      0x179 build/default/production/_ext/99833024/distanceStream.o
 .debug_abbrev  0x000000000000145e       0xd7 build/default/production/_ext/991344331/frequencyCounterStream.o
 .debug_abbrev  0x0000000000001535      0x1b2 build/default/production/_ext/991344331/frequencyCounterUtils.o
 .debug_abbrev  0x00000000000016e7      0x1a0 build/default/production/_ext/991344331/frequencyCounter.o
 .debug_abbrev  0x0000000000001887      0x177 build/default/production/_ext/1240316727/temperatureStream.o
 .debug_abbrev  0x00000000000019fe      0x144 build/default/production/_ext/1240316727/temperature.o
 .debug_abbrev  0x0000000000001b42      0x1e1 build/default/production/_ext/111410402/serialOutpuStream.o
 .debug_abbrev  0x0000000000001d23       0x1b build/default/production/_ext/111410402/serial.o
 .debug_abbrev  0x0000000000001d3e       0x9e build/default/production/_ext/92899495/system.o
 .debug_abbrev  0x0000000000001ddc      0x15e build/default/production/_ext/79239498/timer1.o
 .debug_abbrev  0x0000000000001f3a      0x1d9 build/default/production/_ext/1522154941/uart5.o
 .debug_abbrev  0x0000000000002113      0x17c build/default/production/_ext/1982400153/plib_adchs.o
 .debug_abbrev  0x000000000000228f      0x172 build/default/production/_ext/1984157808/plib_cache.o
 .debug_abbrev  0x0000000000002401       0x6f build/default/production/_ext/60165520/plib_clk.o
 .debug_abbrev  0x0000000000002470      0x178 build/default/production/_ext/1249264884/plib_coretimer.o
 .debug_abbrev  0x00000000000025e8      0x102 build/default/production/_ext/1865200349/plib_evic.o
 .debug_abbrev  0x00000000000026ea      0x15e build/default/production/_ext/1865254177/plib_gpio.o
 .debug_abbrev  0x0000000000002848      0x1ce build/default/production/_ext/513455433/plib_i2c1_master.o
 .debug_abbrev  0x0000000000002a16       0xec build/default/production/_ext/1865301019/plib_icap1.o
 .debug_abbrev  0x0000000000002b02       0xec build/default/production/_ext/1865301019/plib_icap2.o
 .debug_abbrev  0x0000000000002bee       0xb8 build/default/production/_ext/1865480137/plib_ocmp3.o
 .debug_abbrev  0x0000000000002ca6       0xcb build/default/production/_ext/60181895/plib_tmr2.o
 .debug_abbrev  0x0000000000002d71      0x1bd build/default/production/_ext/60181895/plib_tmr4.o
 .debug_abbrev  0x0000000000002f2e      0x1f1 build/default/production/_ext/1865638794/plib_tmr1.o
 .debug_abbrev  0x000000000000311f      0x260 build/default/production/_ext/1865657120/plib_uart2.o
 .debug_abbrev  0x000000000000337f      0x379 build/default/production/_ext/1865657120/plib_uart5.o
 .debug_abbrev  0x00000000000036f8       0x88 build/default/production/_ext/163028504/xc32_monitor.o
 .debug_abbrev  0x0000000000003780      0x149 build/default/production/_ext/1171490990/initialization.o
 .debug_abbrev  0x00000000000038c9       0x67 build/default/production/_ext/1171490990/interrupts.o
 .debug_abbrev  0x0000000000003930       0x83 build/default/production/_ext/1171490990/exceptions.o
 .debug_abbrev  0x00000000000039b3      0x23c build/default/production/_ext/1019397905/mainCubeMeteo.o
 .debug_abbrev  0x0000000000003bef       0x46 build/default/production/_ext/1019397905/cubeCommon.o
 .debug_abbrev  0x0000000000003c35      0x167 build/default/production/_ext/428692892/HC-SR04.o
 .debug_abbrev  0x0000000000003d9c      0x188 build/default/production/_ext/1367680316/LM75A.o
 .debug_abbrev  0x0000000000003f24      0x1a0 build/default/production/_ext/1098102801/PCF8563.o
 .debug_abbrev  0x00000000000040c4      0x14f build/default/production/_ext/672751358/SAA1064T.o
 .debug_abbrev  0x0000000000004213      0x1df build/default/production/_ext/780438209/TM1638.o
 .debug_abbrev  0x00000000000043f2      0x1f4 build/default/production/_ext/1259047745/WS2812b.o
 .debug_abbrev  0x00000000000045e6       0x82 build/default/production/_ext/1360937237/mainCube.o
 .debug_abbrev  0x0000000000004668      0x1a3 /opt/microchip/xc32/v4.21/bin/bin/../../lib/gcc/pic32mx/8.3.1/fpu64/libgcc.a(_divdi3.o)
 .debug_abbrev  0x000000000000480b       0x2e /opt/microchip/xc32/v4.21/bin/bin/../../lib/gcc/pic32mx/8.3.1/../../../../pic32mx/lib/fpu64/libpic32.a(default-on-reset.o)
 .debug_abbrev  0x0000000000004839       0x2e /opt/microchip/xc32/v4.21/bin/bin/../../lib/gcc/pic32mx/8.3.1/../../../../pic32mx/lib/fpu64/libpic32.a(default-on-bootstrap.o)
 .debug_abbrev  0x0000000000004867       0x31 /opt/microchip/xc32/v4.21/bin/bin/../../lib/gcc/pic32mx/8.3.1/../../../../pic32mx/lib/fpu64/libpic32.a(defaultinterrupt.o)
 .debug_abbrev  0x0000000000004898      0x100 /opt/microchip/xc32/v4.21/bin/bin/../../lib/gcc/pic32mx/8.3.1/../../../../pic32mx/lib/fpu64/libc-musl.a(__sio_sprintf_doux.o)
 .debug_abbrev  0x0000000000004998      0x161 /opt/microchip/xc32/v4.21/bin/bin/../../lib/gcc/pic32mx/8.3.1/../../../../pic32mx/lib/fpu64/libc-musl.a(__fmt_d.o)
 .debug_abbrev  0x0000000000004af9      0x161 /opt/microchip/xc32/v4.21/bin/bin/../../lib/gcc/pic32mx/8.3.1/../../../../pic32mx/lib/fpu64/libc-musl.a(__fmt_o.o)
 .debug_abbrev  0x0000000000004c5a      0x14c /opt/microchip/xc32/v4.21/bin/bin/../../lib/gcc/pic32mx/8.3.1/../../../../pic32mx/lib/fpu64/libc-musl.a(__fmt_s.o)
 .debug_abbrev  0x0000000000004da6      0x193 /opt/microchip/xc32/v4.21/bin/bin/../../lib/gcc/pic32mx/8.3.1/../../../../pic32mx/lib/fpu64/libc-musl.a(__fmt_u.o)
 .debug_abbrev  0x0000000000004f39      0x150 /opt/microchip/xc32/v4.21/bin/bin/../../lib/gcc/pic32mx/8.3.1/../../../../pic32mx/lib/fpu64/libc-musl.a(__fmt_x.o)
 .debug_abbrev  0x0000000000005089       0xc3 /opt/microchip/xc32/v4.21/bin/bin/../../lib/gcc/pic32mx/8.3.1/../../../../pic32mx/lib/fpu64/libc-musl.a(__pop_int.o)
 .debug_abbrev  0x000000000000514c       0xd7 /opt/microchip/xc32/v4.21/bin/bin/../../lib/gcc/pic32mx/8.3.1/../../../../pic32mx/lib/fpu64/libc-musl.a(__pop_ptr.o)
 .debug_abbrev  0x0000000000005223      0x318 /opt/microchip/xc32/v4.21/bin/bin/../../lib/gcc/pic32mx/8.3.1/../../../../pic32mx/lib/fpu64/libc-musl.a(__printf_core.o)
 .debug_abbrev  0x000000000000553b       0xc4 /opt/microchip/xc32/v4.21/bin/bin/../../lib/gcc/pic32mx/8.3.1/../../../../pic32mx/lib/fpu64/libc-musl.a(atoi.o)
 .debug_abbrev  0x00000000000055ff       0xa2 /opt/microchip/xc32/v4.21/bin/bin/../../lib/gcc/pic32mx/8.3.1/../../../../pic32mx/lib/fpu64/libc-musl.a(memset.o)
 .debug_abbrev  0x00000000000056a1       0xf1 /opt/microchip/xc32/v4.21/bin/bin/../../lib/gcc/pic32mx/8.3.1/../../../../pic32mx/lib/fpu64/libc-musl.a(tolower.o)
 .debug_abbrev  0x0000000000005792       0xf1 /opt/microchip/xc32/v4.21/bin/bin/../../lib/gcc/pic32mx/8.3.1/../../../../pic32mx/lib/fpu64/libc-musl.a(toupper.o)
 .debug_abbrev  0x0000000000005883       0xb1 /opt/microchip/xc32/v4.21/bin/bin/../../lib/gcc/pic32mx/8.3.1/../../../../pic32mx/lib/fpu64/libc-musl.a(__int_vsprintf.o)
 .debug_abbrev  0x0000000000005934       0xc3 /opt/microchip/xc32/v4.21/bin/bin/../../lib/gcc/pic32mx/8.3.1/../../../../pic32mx/lib/fpu64/libc-musl.a(__pop_float.o)
 .debug_abbrev  0x00000000000059f7      0x13a /opt/microchip/xc32/v4.21/bin/bin/../../lib/gcc/pic32mx/8.3.1/../../../../pic32mx/lib/fpu64/libc-musl.a(__int_vsnprintf.o)
 .debug_abbrev  0x0000000000005b31      0x118 /opt/microchip/xc32/v4.21/bin/bin/../../lib/gcc/pic32mx/8.3.1/../../../../pic32mx/lib/fpu64/libc-musl.a(__int_vfprintf.o)
 .debug_abbrev  0x0000000000005c49      0x184 /opt/microchip/xc32/v4.21/bin/bin/../../lib/gcc/pic32mx/8.3.1/fpu64/libgcc.a(_udivdi3.o)
 .debug_abbrev  0x0000000000005dcd      0x19a /opt/microchip/xc32/v4.21/bin/bin/../../lib/gcc/pic32mx/8.3.1/fpu64/libgcc.a(_umoddi3.o)

.debug_line     0x0000000000000000     0xd562
 *.elf(.debug_line)
 *(.debug_line)
 .debug_line    0x0000000000000000      0x205 build/default/production/_ext/1571292264/7segments.o
 .debug_line    0x0000000000000205      0x4f9 build/default/production/_ext/1571292264/7segmentsOutputStream.o
 .debug_line    0x00000000000006fe      0x38d build/default/production/_ext/1505855908/clock.o
 .debug_line    0x0000000000000a8b      0x13e build/default/production/_ext/1505855908/clockStream.o
 .debug_line    0x0000000000000bc9      0x167 build/default/production/_ext/1506567961/delay.o
 .debug_line    0x0000000000000d30      0x298 build/default/production/_ext/529250520/displayUtils.o
 .debug_line    0x0000000000000fc8      0x168 build/default/production/_ext/529250520/displayStream.o
 .debug_line    0x0000000000001130        0x0 build/default/production/_ext/1507884958/error.o
 .debug_line    0x0000000000001130      0x16a build/default/production/_ext/383772639/buffer.o
 .debug_line    0x000000000000129a       0xde build/default/production/_ext/242462784/outputStream.o
 .debug_line    0x0000000000001378      0x8f0 build/default/production/_ext/1038083393/printWriter.o
 .debug_line    0x0000000000001c68      0x367 build/default/production/_ext/919093983/led.o
 .debug_line    0x0000000000001fcf      0x3cc build/default/production/_ext/919119933/RGB.o
 .debug_line    0x000000000000239b      0x124 build/default/production/_ext/919119933/RGBStream.o
 .debug_line    0x00000000000024bf       0xfd build/default/production/_ext/99833024/distance.o
 .debug_line    0x00000000000025bc      0x15f build/default/production/_ext/99833024/distanceStream.o
 .debug_line    0x000000000000271b      0x189 build/default/production/_ext/991344331/frequencyCounterStream.o
 .debug_line    0x00000000000028a4      0x1b9 build/default/production/_ext/991344331/frequencyCounterUtils.o
 .debug_line    0x0000000000002a5d      0x2ee build/default/production/_ext/991344331/frequencyCounter.o
 .debug_line    0x0000000000002d4b      0x177 build/default/production/_ext/1240316727/temperatureStream.o
 .debug_line    0x0000000000002ec2      0x173 build/default/production/_ext/1240316727/temperature.o
 .debug_line    0x0000000000003035      0x3c1 build/default/production/_ext/111410402/serialOutpuStream.o
 .debug_line    0x00000000000033f6       0x1d build/default/production/_ext/111410402/serial.o
 .debug_line    0x0000000000003413       0xd8 build/default/production/_ext/92899495/system.o
 .debug_line    0x00000000000034eb      0x1a0 build/default/production/_ext/79239498/timer1.o
 .debug_line    0x000000000000368b      0x37a build/default/production/_ext/1522154941/uart5.o
 .debug_line    0x0000000000003a05      0x43d build/default/production/_ext/1982400153/plib_adchs.o
 .debug_line    0x0000000000003e42      0x353 build/default/production/_ext/1984157808/plib_cache.o
 .debug_line    0x0000000000004195      0x19e build/default/production/_ext/60165520/plib_clk.o
 .debug_line    0x0000000000004333      0x296 build/default/production/_ext/1249264884/plib_coretimer.o
 .debug_line    0x00000000000045c9      0x322 build/default/production/_ext/1865200349/plib_evic.o
 .debug_line    0x00000000000048eb      0x33b build/default/production/_ext/1865254177/plib_gpio.o
 .debug_line    0x0000000000004c26      0x7c5 build/default/production/_ext/513455433/plib_i2c1_master.o
 .debug_line    0x00000000000053eb      0x209 build/default/production/_ext/1865301019/plib_icap1.o
 .debug_line    0x00000000000055f4      0x209 build/default/production/_ext/1865301019/plib_icap2.o
 .debug_line    0x00000000000057fd      0x1ec build/default/production/_ext/1865480137/plib_ocmp3.o
 .debug_line    0x00000000000059e9      0x20b build/default/production/_ext/60181895/plib_tmr2.o
 .debug_line    0x0000000000005bf4      0x2b6 build/default/production/_ext/60181895/plib_tmr4.o
 .debug_line    0x0000000000005eaa      0x2c3 build/default/production/_ext/1865638794/plib_tmr1.o
 .debug_line    0x000000000000616d      0x79e build/default/production/_ext/1865657120/plib_uart2.o
 .debug_line    0x000000000000690b      0xb0c build/default/production/_ext/1865657120/plib_uart5.o
 .debug_line    0x0000000000007417       0xb8 build/default/production/_ext/163028504/xc32_monitor.o
 .debug_line    0x00000000000074cf      0x69a build/default/production/_ext/1171490990/initialization.o
 .debug_line    0x0000000000007b69      0x1a1 build/default/production/_ext/1171490990/interrupts.o
 .debug_line    0x0000000000007d0a      0x117 build/default/production/_ext/1171490990/exceptions.o
 .debug_line    0x0000000000007e21      0xf42 build/default/production/_ext/1019397905/mainCubeMeteo.o
 .debug_line    0x0000000000008d63       0x89 build/default/production/_ext/1019397905/cubeCommon.o
 .debug_line    0x0000000000008dec      0x2bc build/default/production/_ext/428692892/HC-SR04.o
 .debug_line    0x00000000000090a8      0x286 build/default/production/_ext/1367680316/LM75A.o
 .debug_line    0x000000000000932e      0x2db build/default/production/_ext/1098102801/PCF8563.o
 .debug_line    0x0000000000009609      0x2b6 build/default/production/_ext/672751358/SAA1064T.o
 .debug_line    0x00000000000098bf      0x498 build/default/production/_ext/780438209/TM1638.o
 .debug_line    0x0000000000009d57      0x386 build/default/production/_ext/1259047745/WS2812b.o
 .debug_line    0x000000000000a0dd      0x148 build/default/production/_ext/1360937237/mainCube.o
 .debug_line    0x000000000000a225      0x32f /opt/microchip/xc32/v4.21/bin/bin/../../lib/gcc/pic32mx/8.3.1/fpu64/libgcc.a(_divdi3.o)
 .debug_line    0x000000000000a554       0xa6 /opt/microchip/xc32/v4.21/bin/bin/../../lib/gcc/pic32mx/8.3.1/../../../../pic32mx/lib/fpu64/libpic32.a(default-on-reset.o)
 .debug_line    0x000000000000a5fa       0xaa /opt/microchip/xc32/v4.21/bin/bin/../../lib/gcc/pic32mx/8.3.1/../../../../pic32mx/lib/fpu64/libpic32.a(default-on-bootstrap.o)
 .debug_line    0x000000000000a6a4       0xc9 /opt/microchip/xc32/v4.21/bin/bin/../../lib/gcc/pic32mx/8.3.1/../../../../pic32mx/lib/fpu64/libpic32.a(defaultinterrupt.o)
 .debug_line    0x000000000000a76d      0x1fc /opt/microchip/xc32/v4.21/bin/bin/../../lib/gcc/pic32mx/8.3.1/../../../../pic32mx/lib/fpu64/libc-musl.a(__sio_sprintf_doux.o)
 .debug_line    0x000000000000a969      0x25e /opt/microchip/xc32/v4.21/bin/bin/../../lib/gcc/pic32mx/8.3.1/../../../../pic32mx/lib/fpu64/libc-musl.a(__fmt_d.o)
 .debug_line    0x000000000000abc7      0x20f /opt/microchip/xc32/v4.21/bin/bin/../../lib/gcc/pic32mx/8.3.1/../../../../pic32mx/lib/fpu64/libc-musl.a(__fmt_o.o)
 .debug_line    0x000000000000add6      0x25d /opt/microchip/xc32/v4.21/bin/bin/../../lib/gcc/pic32mx/8.3.1/../../../../pic32mx/lib/fpu64/libc-musl.a(__fmt_s.o)
 .debug_line    0x000000000000b033      0x2a3 /opt/microchip/xc32/v4.21/bin/bin/../../lib/gcc/pic32mx/8.3.1/../../../../pic32mx/lib/fpu64/libc-musl.a(__fmt_u.o)
 .debug_line    0x000000000000b2d6      0x338 /opt/microchip/xc32/v4.21/bin/bin/../../lib/gcc/pic32mx/8.3.1/../../../../pic32mx/lib/fpu64/libc-musl.a(__fmt_x.o)
 .debug_line    0x000000000000b60e      0x25a /opt/microchip/xc32/v4.21/bin/bin/../../lib/gcc/pic32mx/8.3.1/../../../../pic32mx/lib/fpu64/libc-musl.a(__pop_int.o)
 .debug_line    0x000000000000b868      0x213 /opt/microchip/xc32/v4.21/bin/bin/../../lib/gcc/pic32mx/8.3.1/../../../../pic32mx/lib/fpu64/libc-musl.a(__pop_ptr.o)
 .debug_line    0x000000000000ba7b      0x71a /opt/microchip/xc32/v4.21/bin/bin/../../lib/gcc/pic32mx/8.3.1/../../../../pic32mx/lib/fpu64/libc-musl.a(__printf_core.o)
 .debug_line    0x000000000000c195      0x17c /opt/microchip/xc32/v4.21/bin/bin/../../lib/gcc/pic32mx/8.3.1/../../../../pic32mx/lib/fpu64/libc-musl.a(atoi.o)
 .debug_line    0x000000000000c311      0x137 /opt/microchip/xc32/v4.21/bin/bin/../../lib/gcc/pic32mx/8.3.1/../../../../pic32mx/lib/fpu64/libc-musl.a(memset.o)
 .debug_line    0x000000000000c448      0x1c1 /opt/microchip/xc32/v4.21/bin/bin/../../lib/gcc/pic32mx/8.3.1/../../../../pic32mx/lib/fpu64/libc-musl.a(tolower.o)
 .debug_line    0x000000000000c609      0x1c1 /opt/microchip/xc32/v4.21/bin/bin/../../lib/gcc/pic32mx/8.3.1/../../../../pic32mx/lib/fpu64/libc-musl.a(toupper.o)
 .debug_line    0x000000000000c7ca      0x1ab /opt/microchip/xc32/v4.21/bin/bin/../../lib/gcc/pic32mx/8.3.1/../../../../pic32mx/lib/fpu64/libc-musl.a(__int_vsprintf.o)
 .debug_line    0x000000000000c975      0x1bb /opt/microchip/xc32/v4.21/bin/bin/../../lib/gcc/pic32mx/8.3.1/../../../../pic32mx/lib/fpu64/libc-musl.a(__pop_float.o)
 .debug_line    0x000000000000cb30      0x272 /opt/microchip/xc32/v4.21/bin/bin/../../lib/gcc/pic32mx/8.3.1/../../../../pic32mx/lib/fpu64/libc-musl.a(__int_vsnprintf.o)
 .debug_line    0x000000000000cda2      0x1c9 /opt/microchip/xc32/v4.21/bin/bin/../../lib/gcc/pic32mx/8.3.1/../../../../pic32mx/lib/fpu64/libc-musl.a(__int_vfprintf.o)
 .debug_line    0x000000000000cf6b      0x2e0 /opt/microchip/xc32/v4.21/bin/bin/../../lib/gcc/pic32mx/8.3.1/fpu64/libgcc.a(_udivdi3.o)
 .debug_line    0x000000000000d24b      0x317 /opt/microchip/xc32/v4.21/bin/bin/../../lib/gcc/pic32mx/8.3.1/fpu64/libgcc.a(_umoddi3.o)
 .debug_line    0x000000000000d562        0x0 /opt/microchip/xc32/v4.21/bin/bin/../../lib/gcc/pic32mx/8.3.1/../../../../pic32mx/lib/fpu64/libpic32.a(errno.o)

.debug_frame    0x0000000000000000     0x2b00
 *.elf(.debug_frame)
 *(.debug_frame)
 .debug_frame   0x0000000000000000       0x3c build/default/production/_ext/1571292264/7segments.o
 .debug_frame   0x000000000000003c      0x144 build/default/production/_ext/1571292264/7segmentsOutputStream.o
 .debug_frame   0x0000000000000180       0xb8 build/default/production/_ext/1505855908/clock.o
 .debug_frame   0x0000000000000238       0x30 build/default/production/_ext/1505855908/clockStream.o
 .debug_frame   0x0000000000000268       0x48 build/default/production/_ext/1506567961/delay.o
 .debug_frame   0x00000000000002b0       0xa0 build/default/production/_ext/529250520/displayUtils.o
 .debug_frame   0x0000000000000350       0x20 build/default/production/_ext/529250520/displayStream.o
 .debug_frame   0x0000000000000370       0x80 build/default/production/_ext/383772639/buffer.o
 .debug_frame   0x00000000000003f0       0x20 build/default/production/_ext/242462784/outputStream.o
 .debug_frame   0x0000000000000410      0x478 build/default/production/_ext/1038083393/printWriter.o
 .debug_frame   0x0000000000000888      0x120 build/default/production/_ext/919093983/led.o
 .debug_frame   0x00000000000009a8       0x7c build/default/production/_ext/919119933/RGB.o
 .debug_frame   0x0000000000000a24       0x30 build/default/production/_ext/919119933/RGBStream.o
 .debug_frame   0x0000000000000a54       0x2c build/default/production/_ext/99833024/distance.o
 .debug_frame   0x0000000000000a80       0x4c build/default/production/_ext/99833024/distanceStream.o
 .debug_frame   0x0000000000000acc       0x20 build/default/production/_ext/991344331/frequencyCounterStream.o
 .debug_frame   0x0000000000000aec       0x40 build/default/production/_ext/991344331/frequencyCounterUtils.o
 .debug_frame   0x0000000000000b2c       0x48 build/default/production/_ext/991344331/frequencyCounter.o
 .debug_frame   0x0000000000000b74       0x4c build/default/production/_ext/1240316727/temperatureStream.o
 .debug_frame   0x0000000000000bc0       0x48 build/default/production/_ext/1240316727/temperature.o
 .debug_frame   0x0000000000000c08       0xb4 build/default/production/_ext/111410402/serialOutpuStream.o
 .debug_frame   0x0000000000000cbc       0x50 build/default/production/_ext/92899495/system.o
 .debug_frame   0x0000000000000d0c       0x5c build/default/production/_ext/79239498/timer1.o
 .debug_frame   0x0000000000000d68      0x130 build/default/production/_ext/1522154941/uart5.o
 .debug_frame   0x0000000000000e98       0xf0 build/default/production/_ext/1982400153/plib_adchs.o
 .debug_frame   0x0000000000000f88      0x25c build/default/production/_ext/1984157808/plib_cache.o
 .debug_frame   0x00000000000011e4       0x20 build/default/production/_ext/60165520/plib_clk.o
 .debug_frame   0x0000000000001204       0xf4 build/default/production/_ext/1249264884/plib_coretimer.o
 .debug_frame   0x00000000000012f8       0xd4 build/default/production/_ext/1865200349/plib_evic.o
 .debug_frame   0x00000000000013cc       0xa0 build/default/production/_ext/1865254177/plib_gpio.o
 .debug_frame   0x000000000000146c       0xc8 build/default/production/_ext/513455433/plib_i2c1_master.o
 .debug_frame   0x0000000000001534       0x70 build/default/production/_ext/1865301019/plib_icap1.o
 .debug_frame   0x00000000000015a4       0x70 build/default/production/_ext/1865301019/plib_icap2.o
 .debug_frame   0x0000000000001614       0x70 build/default/production/_ext/1865480137/plib_ocmp3.o
 .debug_frame   0x0000000000001684       0x80 build/default/production/_ext/60181895/plib_tmr2.o
 .debug_frame   0x0000000000001704       0xcc build/default/production/_ext/60181895/plib_tmr4.o
 .debug_frame   0x00000000000017d0       0xcc build/default/production/_ext/1865638794/plib_tmr1.o
 .debug_frame   0x000000000000189c      0x168 build/default/production/_ext/1865657120/plib_uart2.o
 .debug_frame   0x0000000000001a04      0x1f4 build/default/production/_ext/1865657120/plib_uart5.o
 .debug_frame   0x0000000000001bf8       0x30 build/default/production/_ext/163028504/xc32_monitor.o
 .debug_frame   0x0000000000001c28       0x2c build/default/production/_ext/1171490990/initialization.o
 .debug_frame   0x0000000000001c54      0x5d8 build/default/production/_ext/1171490990/interrupts.o
 .debug_frame   0x000000000000222c       0x70 build/default/production/_ext/1171490990/exceptions.o
 .debug_frame   0x000000000000229c       0x7c build/default/production/_ext/1019397905/mainCubeMeteo.o
 .debug_frame   0x0000000000002318       0x20 build/default/production/_ext/1019397905/cubeCommon.o
 .debug_frame   0x0000000000002338       0x54 build/default/production/_ext/428692892/HC-SR04.o
 .debug_frame   0x000000000000238c       0x78 build/default/production/_ext/1367680316/LM75A.o
 .debug_frame   0x0000000000002404       0x64 build/default/production/_ext/1098102801/PCF8563.o
 .debug_frame   0x0000000000002468       0x4c build/default/production/_ext/672751358/SAA1064T.o
 .debug_frame   0x00000000000024b4       0xa8 build/default/production/_ext/780438209/TM1638.o
 .debug_frame   0x000000000000255c       0xc8 build/default/production/_ext/1259047745/WS2812b.o
 .debug_frame   0x0000000000002624       0x28 build/default/production/_ext/1360937237/mainCube.o
 .debug_frame   0x000000000000264c       0x20 /opt/microchip/xc32/v4.21/bin/bin/../../lib/gcc/pic32mx/8.3.1/fpu64/libgcc.a(_divdi3.o)
 .debug_frame   0x000000000000266c       0x20 /opt/microchip/xc32/v4.21/bin/bin/../../lib/gcc/pic32mx/8.3.1/../../../../pic32mx/lib/fpu64/libpic32.a(default-on-reset.o)
 .debug_frame   0x000000000000268c       0x20 /opt/microchip/xc32/v4.21/bin/bin/../../lib/gcc/pic32mx/8.3.1/../../../../pic32mx/lib/fpu64/libpic32.a(default-on-bootstrap.o)
 .debug_frame   0x00000000000026ac       0x20 /opt/microchip/xc32/v4.21/bin/bin/../../lib/gcc/pic32mx/8.3.1/../../../../pic32mx/lib/fpu64/libpic32.a(defaultinterrupt.o)
 .debug_frame   0x00000000000026cc       0x48 /opt/microchip/xc32/v4.21/bin/bin/../../lib/gcc/pic32mx/8.3.1/../../../../pic32mx/lib/fpu64/libc-musl.a(__sio_sprintf_doux.o)
 .debug_frame   0x0000000000002714       0x38 /opt/microchip/xc32/v4.21/bin/bin/../../lib/gcc/pic32mx/8.3.1/../../../../pic32mx/lib/fpu64/libc-musl.a(__fmt_d.o)
 .debug_frame   0x000000000000274c       0x34 /opt/microchip/xc32/v4.21/bin/bin/../../lib/gcc/pic32mx/8.3.1/../../../../pic32mx/lib/fpu64/libc-musl.a(__fmt_o.o)
 .debug_frame   0x0000000000002780       0x34 /opt/microchip/xc32/v4.21/bin/bin/../../lib/gcc/pic32mx/8.3.1/../../../../pic32mx/lib/fpu64/libc-musl.a(__fmt_s.o)
 .debug_frame   0x00000000000027b4       0x64 /opt/microchip/xc32/v4.21/bin/bin/../../lib/gcc/pic32mx/8.3.1/../../../../pic32mx/lib/fpu64/libc-musl.a(__fmt_u.o)
 .debug_frame   0x0000000000002818       0x40 /opt/microchip/xc32/v4.21/bin/bin/../../lib/gcc/pic32mx/8.3.1/../../../../pic32mx/lib/fpu64/libc-musl.a(__fmt_x.o)
 .debug_frame   0x0000000000002858       0x20 /opt/microchip/xc32/v4.21/bin/bin/../../lib/gcc/pic32mx/8.3.1/../../../../pic32mx/lib/fpu64/libc-musl.a(__pop_int.o)
 .debug_frame   0x0000000000002878       0x20 /opt/microchip/xc32/v4.21/bin/bin/../../lib/gcc/pic32mx/8.3.1/../../../../pic32mx/lib/fpu64/libc-musl.a(__pop_ptr.o)
 .debug_frame   0x0000000000002898       0xcc /opt/microchip/xc32/v4.21/bin/bin/../../lib/gcc/pic32mx/8.3.1/../../../../pic32mx/lib/fpu64/libc-musl.a(__printf_core.o)
 .debug_frame   0x0000000000002964       0x20 /opt/microchip/xc32/v4.21/bin/bin/../../lib/gcc/pic32mx/8.3.1/../../../../pic32mx/lib/fpu64/libc-musl.a(atoi.o)
 .debug_frame   0x0000000000002984       0x20 /opt/microchip/xc32/v4.21/bin/bin/../../lib/gcc/pic32mx/8.3.1/../../../../pic32mx/lib/fpu64/libc-musl.a(memset.o)
 .debug_frame   0x00000000000029a4       0x3c /opt/microchip/xc32/v4.21/bin/bin/../../lib/gcc/pic32mx/8.3.1/../../../../pic32mx/lib/fpu64/libc-musl.a(tolower.o)
 .debug_frame   0x00000000000029e0       0x3c /opt/microchip/xc32/v4.21/bin/bin/../../lib/gcc/pic32mx/8.3.1/../../../../pic32mx/lib/fpu64/libc-musl.a(toupper.o)
 .debug_frame   0x0000000000002a1c       0x2c /opt/microchip/xc32/v4.21/bin/bin/../../lib/gcc/pic32mx/8.3.1/../../../../pic32mx/lib/fpu64/libc-musl.a(__int_vsprintf.o)
 .debug_frame   0x0000000000002a48       0x20 /opt/microchip/xc32/v4.21/bin/bin/../../lib/gcc/pic32mx/8.3.1/../../../../pic32mx/lib/fpu64/libc-musl.a(__pop_float.o)
 .debug_frame   0x0000000000002a68       0x2c /opt/microchip/xc32/v4.21/bin/bin/../../lib/gcc/pic32mx/8.3.1/../../../../pic32mx/lib/fpu64/libc-musl.a(__int_vsnprintf.o)
 .debug_frame   0x0000000000002a94       0x2c /opt/microchip/xc32/v4.21/bin/bin/../../lib/gcc/pic32mx/8.3.1/../../../../pic32mx/lib/fpu64/libc-musl.a(__int_vfprintf.o)
 .debug_frame   0x0000000000002ac0       0x20 /opt/microchip/xc32/v4.21/bin/bin/../../lib/gcc/pic32mx/8.3.1/fpu64/libgcc.a(_udivdi3.o)
 .debug_frame   0x0000000000002ae0       0x20 /opt/microchip/xc32/v4.21/bin/bin/../../lib/gcc/pic32mx/8.3.1/fpu64/libgcc.a(_umoddi3.o)

.debug_str      0x0000000000000000    0x16a00
 *.elf(.debug_str)
 *(.debug_str)
 .debug_str     0x0000000000000000      0x371 build/default/production/_ext/1571292264/7segments.o
 .debug_str     0x0000000000000371      0x65c build/default/production/_ext/1571292264/7segmentsOutputStream.o
 .debug_str     0x00000000000009cd      0x4ec build/default/production/_ext/1505855908/clock.o
 .debug_str     0x0000000000000eb9      0x3e5 build/default/production/_ext/1505855908/clockStream.o
 .debug_str     0x000000000000129e      0x350 build/default/production/_ext/1506567961/delay.o
 .debug_str     0x00000000000015ee      0x524 build/default/production/_ext/529250520/displayUtils.o
 .debug_str     0x0000000000001b12      0x3fb build/default/production/_ext/529250520/displayStream.o
 .debug_str     0x0000000000001f0d      0x249 build/default/production/_ext/1507884958/error.o
 .debug_str     0x0000000000002156      0x31c build/default/production/_ext/383772639/buffer.o
 .debug_str     0x0000000000002472      0x3e1 build/default/production/_ext/242462784/outputStream.o
 .debug_str     0x0000000000002853      0x6d8 build/default/production/_ext/1038083393/printWriter.o
 .debug_str     0x0000000000002f2b      0x420 build/default/production/_ext/919093983/led.o
 .debug_str     0x000000000000334b      0x38b build/default/production/_ext/919119933/RGB.o
 .debug_str     0x00000000000036d6      0x348 build/default/production/_ext/919119933/RGBStream.o
 .debug_str     0x0000000000003a1e      0x381 build/default/production/_ext/99833024/distance.o
 .debug_str     0x0000000000003d9f      0x3b5 build/default/production/_ext/99833024/distanceStream.o
 .debug_str     0x0000000000004154      0x455 build/default/production/_ext/991344331/frequencyCounterStream.o
 .debug_str     0x00000000000045a9      0x48d build/default/production/_ext/991344331/frequencyCounterUtils.o
 .debug_str     0x0000000000004a36      0x510 build/default/production/_ext/991344331/frequencyCounter.o
 .debug_str     0x0000000000004f46      0x41f build/default/production/_ext/1240316727/temperatureStream.o
 .debug_str     0x0000000000005365      0x414 build/default/production/_ext/1240316727/temperature.o
 .debug_str     0x0000000000005779      0x550 build/default/production/_ext/111410402/serialOutpuStream.o
 .debug_str     0x0000000000005cc9      0x258 build/default/production/_ext/111410402/serial.o
 .debug_str     0x0000000000005f21      0x2b4 build/default/production/_ext/92899495/system.o
 .debug_str     0x00000000000061d5      0x383 build/default/production/_ext/79239498/timer1.o
 .debug_str     0x0000000000006558      0x5fd build/default/production/_ext/1522154941/uart5.o
 .debug_str     0x0000000000006b55      0x9d5 build/default/production/_ext/1982400153/plib_adchs.o
 .debug_str     0x000000000000752a      0x770 build/default/production/_ext/1984157808/plib_cache.o
 .debug_str     0x0000000000007c9a      0x33b build/default/production/_ext/60165520/plib_clk.o
 .debug_str     0x0000000000007fd5      0x4e5 build/default/production/_ext/1249264884/plib_coretimer.o
 .debug_str     0x00000000000084ba     0x15f8 build/default/production/_ext/1865200349/plib_evic.o
 .debug_str     0x0000000000009ab2      0x554 build/default/production/_ext/1865254177/plib_gpio.o
 .debug_str     0x000000000000a006      0x701 build/default/production/_ext/513455433/plib_i2c1_master.o
 .debug_str     0x000000000000a707      0x3d8 build/default/production/_ext/1865301019/plib_icap1.o
 .debug_str     0x000000000000aadf      0x3d8 build/default/production/_ext/1865301019/plib_icap2.o
 .debug_str     0x000000000000aeb7      0x3b1 build/default/production/_ext/1865480137/plib_ocmp3.o
 .debug_str     0x000000000000b268      0x386 build/default/production/_ext/60181895/plib_tmr2.o
 .debug_str     0x000000000000b5ee      0x522 build/default/production/_ext/60181895/plib_tmr4.o
 .debug_str     0x000000000000bb10      0x52e build/default/production/_ext/1865638794/plib_tmr1.o
 .debug_str     0x000000000000c03e      0x770 build/default/production/_ext/1865657120/plib_uart2.o
 .debug_str     0x000000000000c7ae      0xa6e build/default/production/_ext/1865657120/plib_uart5.o
 .debug_str     0x000000000000d21c      0x27a build/default/production/_ext/163028504/xc32_monitor.o
 .debug_str     0x000000000000d496      0x4ba build/default/production/_ext/1171490990/initialization.o
 .debug_str     0x000000000000d950      0x4ae build/default/production/_ext/1171490990/interrupts.o
 .debug_str     0x000000000000ddfe      0x421 build/default/production/_ext/1171490990/exceptions.o
 .debug_str     0x000000000000e21f      0xddf build/default/production/_ext/1019397905/mainCubeMeteo.o
 .debug_str     0x000000000000effe      0x2f7 build/default/production/_ext/1019397905/cubeCommon.o
 .debug_str     0x000000000000f2f5      0x3ff build/default/production/_ext/428692892/HC-SR04.o
 .debug_str     0x000000000000f6f4      0x463 build/default/production/_ext/1367680316/LM75A.o
 .debug_str     0x000000000000fb57      0x431 build/default/production/_ext/1098102801/PCF8563.o
 .debug_str     0x000000000000ff88      0x466 build/default/production/_ext/672751358/SAA1064T.o
 .debug_str     0x00000000000103ee      0x4e8 build/default/production/_ext/780438209/TM1638.o
 .debug_str     0x00000000000108d6      0x3ea build/default/production/_ext/1259047745/WS2812b.o
 .debug_str     0x0000000000010cc0      0x30b build/default/production/_ext/1360937237/mainCube.o
 .debug_str     0x0000000000010fcb      0x42c /opt/microchip/xc32/v4.21/bin/bin/../../lib/gcc/pic32mx/8.3.1/fpu64/libgcc.a(_divdi3.o)
 .debug_str     0x00000000000113f7      0x35a /opt/microchip/xc32/v4.21/bin/bin/../../lib/gcc/pic32mx/8.3.1/../../../../pic32mx/lib/fpu64/libpic32.a(default-on-reset.o)
 .debug_str     0x0000000000011751      0x362 /opt/microchip/xc32/v4.21/bin/bin/../../lib/gcc/pic32mx/8.3.1/../../../../pic32mx/lib/fpu64/libpic32.a(default-on-bootstrap.o)
 .debug_str     0x0000000000011ab3      0x374 /opt/microchip/xc32/v4.21/bin/bin/../../lib/gcc/pic32mx/8.3.1/../../../../pic32mx/lib/fpu64/libpic32.a(defaultinterrupt.o)
 .debug_str     0x0000000000011e27      0x429 /opt/microchip/xc32/v4.21/bin/bin/../../lib/gcc/pic32mx/8.3.1/../../../../pic32mx/lib/fpu64/libc-musl.a(__sio_sprintf_doux.o)
 .debug_str     0x0000000000012250      0x3ee /opt/microchip/xc32/v4.21/bin/bin/../../lib/gcc/pic32mx/8.3.1/../../../../pic32mx/lib/fpu64/libc-musl.a(__fmt_d.o)
 .debug_str     0x000000000001263e      0x3ee /opt/microchip/xc32/v4.21/bin/bin/../../lib/gcc/pic32mx/8.3.1/../../../../pic32mx/lib/fpu64/libc-musl.a(__fmt_o.o)
 .debug_str     0x0000000000012a2c      0x3da /opt/microchip/xc32/v4.21/bin/bin/../../lib/gcc/pic32mx/8.3.1/../../../../pic32mx/lib/fpu64/libc-musl.a(__fmt_s.o)
 .debug_str     0x0000000000012e06      0x3f3 /opt/microchip/xc32/v4.21/bin/bin/../../lib/gcc/pic32mx/8.3.1/../../../../pic32mx/lib/fpu64/libc-musl.a(__fmt_u.o)
 .debug_str     0x00000000000131f9      0x3ee /opt/microchip/xc32/v4.21/bin/bin/../../lib/gcc/pic32mx/8.3.1/../../../../pic32mx/lib/fpu64/libc-musl.a(__fmt_x.o)
 .debug_str     0x00000000000135e7      0x3c7 /opt/microchip/xc32/v4.21/bin/bin/../../lib/gcc/pic32mx/8.3.1/../../../../pic32mx/lib/fpu64/libc-musl.a(__pop_int.o)
 .debug_str     0x00000000000139ae      0x3c9 /opt/microchip/xc32/v4.21/bin/bin/../../lib/gcc/pic32mx/8.3.1/../../../../pic32mx/lib/fpu64/libc-musl.a(__pop_ptr.o)
 .debug_str     0x0000000000013d77      0x4d6 /opt/microchip/xc32/v4.21/bin/bin/../../lib/gcc/pic32mx/8.3.1/../../../../pic32mx/lib/fpu64/libc-musl.a(__printf_core.o)
 .debug_str     0x000000000001424d      0x327 /opt/microchip/xc32/v4.21/bin/bin/../../lib/gcc/pic32mx/8.3.1/../../../../pic32mx/lib/fpu64/libc-musl.a(atoi.o)
 .debug_str     0x0000000000014574      0x318 /opt/microchip/xc32/v4.21/bin/bin/../../lib/gcc/pic32mx/8.3.1/../../../../pic32mx/lib/fpu64/libc-musl.a(memset.o)
 .debug_str     0x000000000001488c      0x354 /opt/microchip/xc32/v4.21/bin/bin/../../lib/gcc/pic32mx/8.3.1/../../../../pic32mx/lib/fpu64/libc-musl.a(tolower.o)
 .debug_str     0x0000000000014be0      0x354 /opt/microchip/xc32/v4.21/bin/bin/../../lib/gcc/pic32mx/8.3.1/../../../../pic32mx/lib/fpu64/libc-musl.a(toupper.o)
 .debug_str     0x0000000000014f34      0x3a2 /opt/microchip/xc32/v4.21/bin/bin/../../lib/gcc/pic32mx/8.3.1/../../../../pic32mx/lib/fpu64/libc-musl.a(__int_vsprintf.o)
 .debug_str     0x00000000000152d6      0x3bc /opt/microchip/xc32/v4.21/bin/bin/../../lib/gcc/pic32mx/8.3.1/../../../../pic32mx/lib/fpu64/libc-musl.a(__pop_float.o)
 .debug_str     0x0000000000015692      0x3ea /opt/microchip/xc32/v4.21/bin/bin/../../lib/gcc/pic32mx/8.3.1/../../../../pic32mx/lib/fpu64/libc-musl.a(__int_vsnprintf.o)
 .debug_str     0x0000000000015a7c      0x3e5 /opt/microchip/xc32/v4.21/bin/bin/../../lib/gcc/pic32mx/8.3.1/../../../../pic32mx/lib/fpu64/libc-musl.a(__int_vfprintf.o)
 .debug_str     0x0000000000015e61      0x42d /opt/microchip/xc32/v4.21/bin/bin/../../lib/gcc/pic32mx/8.3.1/fpu64/libgcc.a(_udivdi3.o)
 .debug_str     0x000000000001628e      0x42d /opt/microchip/xc32/v4.21/bin/bin/../../lib/gcc/pic32mx/8.3.1/fpu64/libgcc.a(_umoddi3.o)
 .debug_str     0x00000000000166bb      0x345 /opt/microchip/xc32/v4.21/bin/bin/../../lib/gcc/pic32mx/8.3.1/../../../../pic32mx/lib/fpu64/libpic32.a(errno.o)

.debug_loc      0x0000000000000000     0x869e
 *.elf(.debug_loc)
 *(.debug_loc)
 .debug_loc     0x0000000000000000       0xbc build/default/production/_ext/1571292264/7segments.o
 .debug_loc     0x00000000000000bc      0x577 build/default/production/_ext/1571292264/7segmentsOutputStream.o
 .debug_loc     0x0000000000000633      0x297 build/default/production/_ext/1505855908/clock.o
 .debug_loc     0x00000000000008ca       0x87 build/default/production/_ext/1505855908/clockStream.o
 .debug_loc     0x0000000000000951       0x4a build/default/production/_ext/1506567961/delay.o
 .debug_loc     0x000000000000099b      0x113 build/default/production/_ext/529250520/displayUtils.o
 .debug_loc     0x0000000000000aae       0x89 build/default/production/_ext/383772639/buffer.o
 .debug_loc     0x0000000000000b37     0x1556 build/default/production/_ext/1038083393/printWriter.o
 .debug_loc     0x000000000000208d       0x70 build/default/production/_ext/919093983/led.o
 .debug_loc     0x00000000000020fd      0x83c build/default/production/_ext/919119933/RGB.o
 .debug_loc     0x0000000000002939       0x63 build/default/production/_ext/919119933/RGBStream.o
 .debug_loc     0x000000000000299c       0x3a build/default/production/_ext/99833024/distance.o
 .debug_loc     0x00000000000029d6       0xac build/default/production/_ext/99833024/distanceStream.o
 .debug_loc     0x0000000000002a82       0x89 build/default/production/_ext/991344331/frequencyCounterUtils.o
 .debug_loc     0x0000000000002b0b      0x13f build/default/production/_ext/991344331/frequencyCounter.o
 .debug_loc     0x0000000000002c4a       0xdc build/default/production/_ext/1240316727/temperatureStream.o
 .debug_loc     0x0000000000002d26       0xac build/default/production/_ext/1240316727/temperature.o
 .debug_loc     0x0000000000002dd2      0x140 build/default/production/_ext/111410402/serialOutpuStream.o
 .debug_loc     0x0000000000002f12       0x16 build/default/production/_ext/79239498/timer1.o
 .debug_loc     0x0000000000002f28      0x13d build/default/production/_ext/1522154941/uart5.o
 .debug_loc     0x0000000000003065       0xd2 build/default/production/_ext/1982400153/plib_adchs.o
 .debug_loc     0x0000000000003137      0x284 build/default/production/_ext/1984157808/plib_cache.o
 .debug_loc     0x00000000000033bb       0xb3 build/default/production/_ext/1249264884/plib_coretimer.o
 .debug_loc     0x000000000000346e       0xc5 build/default/production/_ext/1865200349/plib_evic.o
 .debug_loc     0x0000000000003533      0x172 build/default/production/_ext/1865254177/plib_gpio.o
 .debug_loc     0x00000000000036a5       0xb0 build/default/production/_ext/513455433/plib_i2c1_master.o
 .debug_loc     0x0000000000003755       0x52 build/default/production/_ext/1865301019/plib_icap1.o
 .debug_loc     0x00000000000037a7       0x52 build/default/production/_ext/1865301019/plib_icap2.o
 .debug_loc     0x00000000000037f9       0x16 build/default/production/_ext/60181895/plib_tmr4.o
 .debug_loc     0x000000000000380f      0x39a build/default/production/_ext/1865657120/plib_uart2.o
 .debug_loc     0x0000000000003ba9      0xa85 build/default/production/_ext/1865657120/plib_uart5.o
 .debug_loc     0x000000000000462e       0x25 build/default/production/_ext/1171490990/initialization.o
 .debug_loc     0x0000000000004653      0x197 build/default/production/_ext/1019397905/mainCubeMeteo.o
 .debug_loc     0x00000000000047ea       0xe4 build/default/production/_ext/428692892/HC-SR04.o
 .debug_loc     0x00000000000048ce      0x13d build/default/production/_ext/1367680316/LM75A.o
 .debug_loc     0x0000000000004a0b      0x178 build/default/production/_ext/1098102801/PCF8563.o
 .debug_loc     0x0000000000004b83       0xeb build/default/production/_ext/672751358/SAA1064T.o
 .debug_loc     0x0000000000004c6e      0x528 build/default/production/_ext/780438209/TM1638.o
 .debug_loc     0x0000000000005196      0x2d2 build/default/production/_ext/1259047745/WS2812b.o
 .debug_loc     0x0000000000005468      0xb60 /opt/microchip/xc32/v4.21/bin/bin/../../lib/gcc/pic32mx/8.3.1/fpu64/libgcc.a(_divdi3.o)
 .debug_loc     0x0000000000005fc8       0x5f /opt/microchip/xc32/v4.21/bin/bin/../../lib/gcc/pic32mx/8.3.1/../../../../pic32mx/lib/fpu64/libc-musl.a(__sio_sprintf_doux.o)
 .debug_loc     0x0000000000006027      0x241 /opt/microchip/xc32/v4.21/bin/bin/../../lib/gcc/pic32mx/8.3.1/../../../../pic32mx/lib/fpu64/libc-musl.a(__fmt_d.o)
 .debug_loc     0x0000000000006268       0xf2 /opt/microchip/xc32/v4.21/bin/bin/../../lib/gcc/pic32mx/8.3.1/../../../../pic32mx/lib/fpu64/libc-musl.a(__fmt_o.o)
 .debug_loc     0x000000000000635a      0x11f /opt/microchip/xc32/v4.21/bin/bin/../../lib/gcc/pic32mx/8.3.1/../../../../pic32mx/lib/fpu64/libc-musl.a(__fmt_s.o)
 .debug_loc     0x0000000000006479      0x2f0 /opt/microchip/xc32/v4.21/bin/bin/../../lib/gcc/pic32mx/8.3.1/../../../../pic32mx/lib/fpu64/libc-musl.a(__fmt_u.o)
 .debug_loc     0x0000000000006769      0x2b8 /opt/microchip/xc32/v4.21/bin/bin/../../lib/gcc/pic32mx/8.3.1/../../../../pic32mx/lib/fpu64/libc-musl.a(__fmt_x.o)
 .debug_loc     0x0000000000006a21       0x40 /opt/microchip/xc32/v4.21/bin/bin/../../lib/gcc/pic32mx/8.3.1/../../../../pic32mx/lib/fpu64/libc-musl.a(__pop_ptr.o)
 .debug_loc     0x0000000000006a61      0x51f /opt/microchip/xc32/v4.21/bin/bin/../../lib/gcc/pic32mx/8.3.1/../../../../pic32mx/lib/fpu64/libc-musl.a(__printf_core.o)
 .debug_loc     0x0000000000006f80       0xbe /opt/microchip/xc32/v4.21/bin/bin/../../lib/gcc/pic32mx/8.3.1/../../../../pic32mx/lib/fpu64/libc-musl.a(atoi.o)
 .debug_loc     0x000000000000703e       0x96 /opt/microchip/xc32/v4.21/bin/bin/../../lib/gcc/pic32mx/8.3.1/../../../../pic32mx/lib/fpu64/libc-musl.a(memset.o)
 .debug_loc     0x00000000000070d4       0x89 /opt/microchip/xc32/v4.21/bin/bin/../../lib/gcc/pic32mx/8.3.1/../../../../pic32mx/lib/fpu64/libc-musl.a(__int_vsprintf.o)
 .debug_loc     0x000000000000715d      0x113 /opt/microchip/xc32/v4.21/bin/bin/../../lib/gcc/pic32mx/8.3.1/../../../../pic32mx/lib/fpu64/libc-musl.a(__int_vsnprintf.o)
 .debug_loc     0x0000000000007270       0x9f /opt/microchip/xc32/v4.21/bin/bin/../../lib/gcc/pic32mx/8.3.1/../../../../pic32mx/lib/fpu64/libc-musl.a(__int_vfprintf.o)
 .debug_loc     0x000000000000730f      0x9f5 /opt/microchip/xc32/v4.21/bin/bin/../../lib/gcc/pic32mx/8.3.1/fpu64/libgcc.a(_udivdi3.o)
 .debug_loc     0x0000000000007d04      0x99a /opt/microchip/xc32/v4.21/bin/bin/../../lib/gcc/pic32mx/8.3.1/fpu64/libgcc.a(_umoddi3.o)

.debug_macinfo
 *.elf(.debug_macinfo)
 *(.debug_macinfo)

.debug_weaknames
 *.elf(.debug_weaknames)
 *(.debug_weaknames)

.debug_funcnames
 *.elf(.debug_funcnames)
 *(.debug_funcnames)

.debug_typenames
 *.elf(.debug_typenames)
 *(.debug_typenames)

.debug_varnames
 *.elf(.debug_varnames)
 *(.debug_varnames)

.debug_pubtypes
 *.elf(.debug_pubtypes)
 *(.debug_pubtypes)

.debug_ranges   0x0000000000000000     0x1378
 *.elf(.debug_ranges)
 *(.debug_ranges)
 .debug_ranges  0x0000000000000000       0x18 build/default/production/_ext/1571292264/7segments.o
 .debug_ranges  0x0000000000000018       0x68 build/default/production/_ext/1571292264/7segmentsOutputStream.o
 .debug_ranges  0x0000000000000080       0x38 build/default/production/_ext/1505855908/clock.o
 .debug_ranges  0x00000000000000b8       0x18 build/default/production/_ext/1505855908/clockStream.o
 .debug_ranges  0x00000000000000d0       0x18 build/default/production/_ext/1506567961/delay.o
 .debug_ranges  0x00000000000000e8       0x50 build/default/production/_ext/529250520/displayUtils.o
 .debug_ranges  0x0000000000000138       0x10 build/default/production/_ext/529250520/displayStream.o
 .debug_ranges  0x0000000000000148       0x38 build/default/production/_ext/383772639/buffer.o
 .debug_ranges  0x0000000000000180       0x10 build/default/production/_ext/242462784/outputStream.o
 .debug_ranges  0x0000000000000190      0x168 build/default/production/_ext/1038083393/printWriter.o
 .debug_ranges  0x00000000000002f8       0x90 build/default/production/_ext/919093983/led.o
 .debug_ranges  0x0000000000000388       0x20 build/default/production/_ext/919119933/RGB.o
 .debug_ranges  0x00000000000003a8       0x18 build/default/production/_ext/919119933/RGBStream.o
 .debug_ranges  0x00000000000003c0       0x10 build/default/production/_ext/99833024/distance.o
 .debug_ranges  0x00000000000003d0       0x20 build/default/production/_ext/99833024/distanceStream.o
 .debug_ranges  0x00000000000003f0       0x10 build/default/production/_ext/991344331/frequencyCounterStream.o
 .debug_ranges  0x0000000000000400       0x20 build/default/production/_ext/991344331/frequencyCounterUtils.o
 .debug_ranges  0x0000000000000420       0x30 build/default/production/_ext/991344331/frequencyCounter.o
 .debug_ranges  0x0000000000000450       0x20 build/default/production/_ext/1240316727/temperatureStream.o
 .debug_ranges  0x0000000000000470       0x18 build/default/production/_ext/1240316727/temperature.o
 .debug_ranges  0x0000000000000488       0x48 build/default/production/_ext/111410402/serialOutpuStream.o
 .debug_ranges  0x00000000000004d0       0x28 build/default/production/_ext/92899495/system.o
 .debug_ranges  0x00000000000004f8       0x28 build/default/production/_ext/79239498/timer1.o
 .debug_ranges  0x0000000000000520       0x80 build/default/production/_ext/1522154941/uart5.o
 .debug_ranges  0x00000000000005a0       0x78 build/default/production/_ext/1982400153/plib_adchs.o
 .debug_ranges  0x0000000000000618       0xb0 build/default/production/_ext/1984157808/plib_cache.o
 .debug_ranges  0x00000000000006c8       0x10 build/default/production/_ext/60165520/plib_clk.o
 .debug_ranges  0x00000000000006d8       0x50 build/default/production/_ext/1249264884/plib_coretimer.o
 .debug_ranges  0x0000000000000728       0x58 build/default/production/_ext/1865200349/plib_evic.o
 .debug_ranges  0x0000000000000780       0x50 build/default/production/_ext/1865254177/plib_gpio.o
 .debug_ranges  0x00000000000007d0      0x118 build/default/production/_ext/513455433/plib_i2c1_master.o
 .debug_ranges  0x00000000000008e8       0x38 build/default/production/_ext/1865301019/plib_icap1.o
 .debug_ranges  0x0000000000000920       0x38 build/default/production/_ext/1865301019/plib_icap2.o
 .debug_ranges  0x0000000000000958       0x38 build/default/production/_ext/1865480137/plib_ocmp3.o
 .debug_ranges  0x0000000000000990       0x40 build/default/production/_ext/60181895/plib_tmr2.o
 .debug_ranges  0x00000000000009d0       0x60 build/default/production/_ext/60181895/plib_tmr4.o
 .debug_ranges  0x0000000000000a30       0x60 build/default/production/_ext/1865638794/plib_tmr1.o
 .debug_ranges  0x0000000000000a90       0x98 build/default/production/_ext/1865657120/plib_uart2.o
 .debug_ranges  0x0000000000000b28      0x1a0 build/default/production/_ext/1865657120/plib_uart5.o
 .debug_ranges  0x0000000000000cc8       0x18 build/default/production/_ext/163028504/xc32_monitor.o
 .debug_ranges  0x0000000000000ce0       0x10 build/default/production/_ext/1171490990/initialization.o
 .debug_ranges  0x0000000000000cf0       0x58 build/default/production/_ext/1171490990/interrupts.o
 .debug_ranges  0x0000000000000d48       0x28 build/default/production/_ext/1171490990/exceptions.o
 .debug_ranges  0x0000000000000d70       0x38 build/default/production/_ext/1019397905/mainCubeMeteo.o
 .debug_ranges  0x0000000000000da8       0x10 build/default/production/_ext/1019397905/cubeCommon.o
 .debug_ranges  0x0000000000000db8       0x18 build/default/production/_ext/428692892/HC-SR04.o
 .debug_ranges  0x0000000000000dd0       0x28 build/default/production/_ext/1367680316/LM75A.o
 .debug_ranges  0x0000000000000df8       0x20 build/default/production/_ext/1098102801/PCF8563.o
 .debug_ranges  0x0000000000000e18       0x18 build/default/production/_ext/672751358/SAA1064T.o
 .debug_ranges  0x0000000000000e30       0x40 build/default/production/_ext/780438209/TM1638.o
 .debug_ranges  0x0000000000000e70       0x40 build/default/production/_ext/1259047745/WS2812b.o
 .debug_ranges  0x0000000000000eb0       0x10 build/default/production/_ext/1360937237/mainCube.o
 .debug_ranges  0x0000000000000ec0       0xc0 /opt/microchip/xc32/v4.21/bin/bin/../../lib/gcc/pic32mx/8.3.1/fpu64/libgcc.a(_divdi3.o)
 .debug_ranges  0x0000000000000f80       0x10 /opt/microchip/xc32/v4.21/bin/bin/../../lib/gcc/pic32mx/8.3.1/../../../../pic32mx/lib/fpu64/libpic32.a(default-on-reset.o)
 .debug_ranges  0x0000000000000f90       0x10 /opt/microchip/xc32/v4.21/bin/bin/../../lib/gcc/pic32mx/8.3.1/../../../../pic32mx/lib/fpu64/libpic32.a(default-on-bootstrap.o)
 .debug_ranges  0x0000000000000fa0       0x10 /opt/microchip/xc32/v4.21/bin/bin/../../lib/gcc/pic32mx/8.3.1/../../../../pic32mx/lib/fpu64/libpic32.a(defaultinterrupt.o)
 .debug_ranges  0x0000000000000fb0       0x18 /opt/microchip/xc32/v4.21/bin/bin/../../lib/gcc/pic32mx/8.3.1/../../../../pic32mx/lib/fpu64/libc-musl.a(__sio_sprintf_doux.o)
 .debug_ranges  0x0000000000000fc8       0x10 /opt/microchip/xc32/v4.21/bin/bin/../../lib/gcc/pic32mx/8.3.1/../../../../pic32mx/lib/fpu64/libc-musl.a(__fmt_d.o)
 .debug_ranges  0x0000000000000fd8       0x10 /opt/microchip/xc32/v4.21/bin/bin/../../lib/gcc/pic32mx/8.3.1/../../../../pic32mx/lib/fpu64/libc-musl.a(__fmt_o.o)
 .debug_ranges  0x0000000000000fe8       0x10 /opt/microchip/xc32/v4.21/bin/bin/../../lib/gcc/pic32mx/8.3.1/../../../../pic32mx/lib/fpu64/libc-musl.a(__fmt_s.o)
 .debug_ranges  0x0000000000000ff8       0x18 /opt/microchip/xc32/v4.21/bin/bin/../../lib/gcc/pic32mx/8.3.1/../../../../pic32mx/lib/fpu64/libc-musl.a(__fmt_u.o)
 .debug_ranges  0x0000000000001010       0x10 /opt/microchip/xc32/v4.21/bin/bin/../../lib/gcc/pic32mx/8.3.1/../../../../pic32mx/lib/fpu64/libc-musl.a(__fmt_x.o)
 .debug_ranges  0x0000000000001020       0x10 /opt/microchip/xc32/v4.21/bin/bin/../../lib/gcc/pic32mx/8.3.1/../../../../pic32mx/lib/fpu64/libc-musl.a(__pop_int.o)
 .debug_ranges  0x0000000000001030       0x10 /opt/microchip/xc32/v4.21/bin/bin/../../lib/gcc/pic32mx/8.3.1/../../../../pic32mx/lib/fpu64/libc-musl.a(__pop_ptr.o)
 .debug_ranges  0x0000000000001040       0xf8 /opt/microchip/xc32/v4.21/bin/bin/../../lib/gcc/pic32mx/8.3.1/../../../../pic32mx/lib/fpu64/libc-musl.a(__printf_core.o)
 .debug_ranges  0x0000000000001138       0x28 /opt/microchip/xc32/v4.21/bin/bin/../../lib/gcc/pic32mx/8.3.1/../../../../pic32mx/lib/fpu64/libc-musl.a(atoi.o)
 .debug_ranges  0x0000000000001160       0x10 /opt/microchip/xc32/v4.21/bin/bin/../../lib/gcc/pic32mx/8.3.1/../../../../pic32mx/lib/fpu64/libc-musl.a(memset.o)
 .debug_ranges  0x0000000000001170       0x18 /opt/microchip/xc32/v4.21/bin/bin/../../lib/gcc/pic32mx/8.3.1/../../../../pic32mx/lib/fpu64/libc-musl.a(tolower.o)
 .debug_ranges  0x0000000000001188       0x18 /opt/microchip/xc32/v4.21/bin/bin/../../lib/gcc/pic32mx/8.3.1/../../../../pic32mx/lib/fpu64/libc-musl.a(toupper.o)
 .debug_ranges  0x00000000000011a0       0x10 /opt/microchip/xc32/v4.21/bin/bin/../../lib/gcc/pic32mx/8.3.1/../../../../pic32mx/lib/fpu64/libc-musl.a(__int_vsprintf.o)
 .debug_ranges  0x00000000000011b0       0x10 /opt/microchip/xc32/v4.21/bin/bin/../../lib/gcc/pic32mx/8.3.1/../../../../pic32mx/lib/fpu64/libc-musl.a(__pop_float.o)
 .debug_ranges  0x00000000000011c0       0x10 /opt/microchip/xc32/v4.21/bin/bin/../../lib/gcc/pic32mx/8.3.1/../../../../pic32mx/lib/fpu64/libc-musl.a(__int_vsnprintf.o)
 .debug_ranges  0x00000000000011d0       0x10 /opt/microchip/xc32/v4.21/bin/bin/../../lib/gcc/pic32mx/8.3.1/../../../../pic32mx/lib/fpu64/libc-musl.a(__int_vfprintf.o)
 .debug_ranges  0x00000000000011e0       0xd8 /opt/microchip/xc32/v4.21/bin/bin/../../lib/gcc/pic32mx/8.3.1/fpu64/libgcc.a(_udivdi3.o)
 .debug_ranges  0x00000000000012b8       0xc0 /opt/microchip/xc32/v4.21/bin/bin/../../lib/gcc/pic32mx/8.3.1/fpu64/libgcc.a(_umoddi3.o)

.gnu.attributes
                0x0000000000000000       0x10
 *(.gnu.attributes)
 .gnu.attributes
                0x0000000000000000       0x10 /opt/microchip/xc32/v4.21/bin/bin/../../lib/gcc/pic32mx/8.3.1/../../../../pic32mx/lib/fpu64/debug-exception-return.o
 .gnu.attributes
                0x0000000000000010       0x10 build/default/production/_ext/1571292264/7segments.o
 .gnu.attributes
                0x0000000000000020       0x10 build/default/production/_ext/1571292264/7segmentsOutputStream.o
 .gnu.attributes
                0x0000000000000030       0x10 build/default/production/_ext/1505855908/clock.o
 .gnu.attributes
                0x0000000000000040       0x10 build/default/production/_ext/1505855908/clockStream.o
 .gnu.attributes
                0x0000000000000050       0x10 build/default/production/_ext/1506567961/delay.o
 .gnu.attributes
                0x0000000000000060       0x10 build/default/production/_ext/529250520/displayUtils.o
 .gnu.attributes
                0x0000000000000070       0x10 build/default/production/_ext/529250520/displayStream.o
 .gnu.attributes
                0x0000000000000080       0x10 build/default/production/_ext/1507884958/error.o
 .gnu.attributes
                0x0000000000000090       0x10 build/default/production/_ext/383772639/buffer.o
 .gnu.attributes
                0x00000000000000a0       0x10 build/default/production/_ext/242462784/outputStream.o
 .gnu.attributes
                0x00000000000000b0       0x10 build/default/production/_ext/1038083393/printWriter.o
 .gnu.attributes
                0x00000000000000c0       0x10 build/default/production/_ext/919093983/led.o
 .gnu.attributes
                0x00000000000000d0       0x10 build/default/production/_ext/919119933/RGB.o
 .gnu.attributes
                0x00000000000000e0       0x10 build/default/production/_ext/919119933/RGBStream.o
 .gnu.attributes
                0x00000000000000f0       0x10 build/default/production/_ext/99833024/distance.o
 .gnu.attributes
                0x0000000000000100       0x10 build/default/production/_ext/99833024/distanceStream.o
 .gnu.attributes
                0x0000000000000110       0x10 build/default/production/_ext/991344331/frequencyCounterStream.o
 .gnu.attributes
                0x0000000000000120       0x10 build/default/production/_ext/991344331/frequencyCounterUtils.o
 .gnu.attributes
                0x0000000000000130       0x10 build/default/production/_ext/991344331/frequencyCounter.o
 .gnu.attributes
                0x0000000000000140       0x10 build/default/production/_ext/1240316727/temperatureStream.o
 .gnu.attributes
                0x0000000000000150       0x10 build/default/production/_ext/1240316727/temperature.o
 .gnu.attributes
                0x0000000000000160       0x10 build/default/production/_ext/111410402/serialOutpuStream.o
 .gnu.attributes
                0x0000000000000170       0x10 build/default/production/_ext/111410402/serial.o
 .gnu.attributes
                0x0000000000000180       0x10 build/default/production/_ext/92899495/system.o
 .gnu.attributes
                0x0000000000000190       0x10 build/default/production/_ext/79239498/timer1.o
 .gnu.attributes
                0x00000000000001a0       0x10 build/default/production/_ext/1522154941/uart5.o
 .gnu.attributes
                0x00000000000001b0       0x10 build/default/production/_ext/1982400153/plib_adchs.o
 .gnu.attributes
                0x00000000000001c0       0x10 build/default/production/_ext/1984157808/plib_cache.o
 .gnu.attributes
                0x00000000000001d0       0x10 build/default/production/_ext/1984157808/plib_cache_pic32mz.o
 .gnu.attributes
                0x00000000000001e0       0x10 build/default/production/_ext/60165520/plib_clk.o
 .gnu.attributes
                0x00000000000001f0       0x10 build/default/production/_ext/1249264884/plib_coretimer.o
 .gnu.attributes
                0x0000000000000200       0x10 build/default/production/_ext/1865200349/plib_evic.o
 .gnu.attributes
                0x0000000000000210       0x10 build/default/production/_ext/1865254177/plib_gpio.o
 .gnu.attributes
                0x0000000000000220       0x10 build/default/production/_ext/513455433/plib_i2c1_master.o
 .gnu.attributes
                0x0000000000000230       0x10 build/default/production/_ext/1865301019/plib_icap1.o
 .gnu.attributes
                0x0000000000000240       0x10 build/default/production/_ext/1865301019/plib_icap2.o
 .gnu.attributes
                0x0000000000000250       0x10 build/default/production/_ext/1865480137/plib_ocmp3.o
 .gnu.attributes
                0x0000000000000260       0x10 build/default/production/_ext/60181895/plib_tmr2.o
 .gnu.attributes
                0x0000000000000270       0x10 build/default/production/_ext/60181895/plib_tmr4.o
 .gnu.attributes
                0x0000000000000280       0x10 build/default/production/_ext/1865638794/plib_tmr1.o
 .gnu.attributes
                0x0000000000000290       0x10 build/default/production/_ext/1865657120/plib_uart2.o
 .gnu.attributes
                0x00000000000002a0       0x10 build/default/production/_ext/1865657120/plib_uart5.o
 .gnu.attributes
                0x00000000000002b0       0x10 build/default/production/_ext/163028504/xc32_monitor.o
 .gnu.attributes
                0x00000000000002c0       0x10 build/default/production/_ext/1171490990/initialization.o
 .gnu.attributes
                0x00000000000002d0       0x10 build/default/production/_ext/1171490990/interrupts.o
 .gnu.attributes
                0x00000000000002e0       0x10 build/default/production/_ext/1171490990/exceptions.o
 .gnu.attributes
                0x00000000000002f0       0x10 build/default/production/_ext/1019397905/mainCubeMeteo.o
 .gnu.attributes
                0x0000000000000300       0x10 build/default/production/_ext/1019397905/cubeCommon.o
 .gnu.attributes
                0x0000000000000310       0x10 build/default/production/_ext/428692892/HC-SR04.o
 .gnu.attributes
                0x0000000000000320       0x10 build/default/production/_ext/1367680316/LM75A.o
 .gnu.attributes
                0x0000000000000330       0x10 build/default/production/_ext/1098102801/PCF8563.o
 .gnu.attributes
                0x0000000000000340       0x10 build/default/production/_ext/672751358/SAA1064T.o
 .gnu.attributes
                0x0000000000000350       0x10 build/default/production/_ext/780438209/TM1638.o
 .gnu.attributes
                0x0000000000000360       0x10 build/default/production/_ext/1259047745/WS2812b.o
 .gnu.attributes
                0x0000000000000370       0x10 build/default/production/_ext/1360937237/mainCube.o
 .gnu.attributes
                0x0000000000000380       0x10 /tmp/cc2DRTQz.o
 .gnu.attributes
                0x0000000000000390       0x10 /tmp/cciM6ozx.o
 .gnu.attributes
                0x00000000000003a0       0x10 /tmp/ccGKBfTB.o
 .gnu.attributes
                0x00000000000003b0       0x10 /tmp/cccIVjSB.o
 .gnu.attributes
                0x00000000000003c0       0x10 /opt/microchip/xc32/v4.21/bin/bin/../../lib/gcc/pic32mx/8.3.1/../../../../pic32mx/lib/fpu64/pic32_software_reset.o
 .gnu.attributes
                0x00000000000003d0       0x10 /opt/microchip/xc32/v4.21/bin/bin/../../lib/gcc/pic32mx/8.3.1/fpu64/libgcc.a(_divdi3.o)
 .gnu.attributes
                0x00000000000003e0       0x10 /opt/microchip/xc32/v4.21/bin/bin/../../lib/gcc/pic32mx/8.3.1/../../../../pic32mx/lib/fpu64/libpic32.a(memcpy.o)
 .gnu.attributes
                0x00000000000003f0       0x10 /opt/microchip/xc32/v4.21/bin/bin/../../lib/gcc/pic32mx/8.3.1/../../../../pic32mx/lib/fpu64/libpic32.a(strlen.o)
 .gnu.attributes
                0x0000000000000400       0x10 /opt/microchip/xc32/v4.21/bin/bin/../../lib/gcc/pic32mx/8.3.1/../../../../pic32mx/lib/fpu64/libpic32.a(default-on-reset.o)
 .gnu.attributes
                0x0000000000000410       0x10 /opt/microchip/xc32/v4.21/bin/bin/../../lib/gcc/pic32mx/8.3.1/../../../../pic32mx/lib/fpu64/libpic32.a(default-on-bootstrap.o)
 .gnu.attributes
                0x0000000000000420       0x10 /opt/microchip/xc32/v4.21/bin/bin/../../lib/gcc/pic32mx/8.3.1/../../../../pic32mx/lib/fpu64/libpic32.a(default-nmi-handler.o)
 .gnu.attributes
                0x0000000000000430       0x10 /opt/microchip/xc32/v4.21/bin/bin/../../lib/gcc/pic32mx/8.3.1/../../../../pic32mx/lib/fpu64/libpic32.a(pic32_data_init_wrapper.o)
 .gnu.attributes
                0x0000000000000440       0x10 /opt/microchip/xc32/v4.21/bin/bin/../../lib/gcc/pic32mx/8.3.1/../../../../pic32mx/lib/fpu64/libpic32.a(pic32_data_init_0_1.o)
 .gnu.attributes
                0x0000000000000450       0x10 /opt/microchip/xc32/v4.21/bin/bin/../../lib/gcc/pic32mx/8.3.1/../../../../pic32mx/lib/fpu64/libpic32.a(pic32_init_cache.o)
 .gnu.attributes
                0x0000000000000460       0x10 /opt/microchip/xc32/v4.21/bin/bin/../../lib/gcc/pic32mx/8.3.1/../../../../pic32mx/lib/fpu64/libpic32.a(pic32_init_tlb_ebi_sqi.o)
 .gnu.attributes
                0x0000000000000470       0x10 /opt/microchip/xc32/v4.21/bin/bin/../../lib/gcc/pic32mx/8.3.1/../../../../pic32mx/lib/fpu64/libpic32.a(general-exception.o)
 .gnu.attributes
                0x0000000000000480       0x10 /opt/microchip/xc32/v4.21/bin/bin/../../lib/gcc/pic32mx/8.3.1/../../../../pic32mx/lib/fpu64/libpic32.a(cache-err-exception.o)
 .gnu.attributes
                0x0000000000000490       0x10 /opt/microchip/xc32/v4.21/bin/bin/../../lib/gcc/pic32mx/8.3.1/../../../../pic32mx/lib/fpu64/libpic32.a(simple-tlb-refill-exception.o)
 .gnu.attributes
                0x00000000000004a0       0x10 /opt/microchip/xc32/v4.21/bin/bin/../../lib/gcc/pic32mx/8.3.1/../../../../pic32mx/lib/fpu64/libpic32.a(defaultinterrupt.o)
 .gnu.attributes
                0x00000000000004b0       0x10 /opt/microchip/xc32/v4.21/bin/bin/../../lib/gcc/pic32mx/8.3.1/../../../../pic32mx/lib/fpu64/libc-musl.a(__sio_sprintf_doux.o)
 .gnu.attributes
                0x00000000000004c0       0x10 /opt/microchip/xc32/v4.21/bin/bin/../../lib/gcc/pic32mx/8.3.1/../../../../pic32mx/lib/fpu64/libc-musl.a(__fmt_d.o)
 .gnu.attributes
                0x00000000000004d0       0x10 /opt/microchip/xc32/v4.21/bin/bin/../../lib/gcc/pic32mx/8.3.1/../../../../pic32mx/lib/fpu64/libc-musl.a(__fmt_o.o)
 .gnu.attributes
                0x00000000000004e0       0x10 /opt/microchip/xc32/v4.21/bin/bin/../../lib/gcc/pic32mx/8.3.1/../../../../pic32mx/lib/fpu64/libc-musl.a(__fmt_s.o)
 .gnu.attributes
                0x00000000000004f0       0x10 /opt/microchip/xc32/v4.21/bin/bin/../../lib/gcc/pic32mx/8.3.1/../../../../pic32mx/lib/fpu64/libc-musl.a(__fmt_u.o)
 .gnu.attributes
                0x0000000000000500       0x10 /opt/microchip/xc32/v4.21/bin/bin/../../lib/gcc/pic32mx/8.3.1/../../../../pic32mx/lib/fpu64/libc-musl.a(__fmt_x.o)
 .gnu.attributes
                0x0000000000000510       0x10 /opt/microchip/xc32/v4.21/bin/bin/../../lib/gcc/pic32mx/8.3.1/../../../../pic32mx/lib/fpu64/libc-musl.a(__pop_int.o)
 .gnu.attributes
                0x0000000000000520       0x10 /opt/microchip/xc32/v4.21/bin/bin/../../lib/gcc/pic32mx/8.3.1/../../../../pic32mx/lib/fpu64/libc-musl.a(__pop_ptr.o)
 .gnu.attributes
                0x0000000000000530       0x10 /opt/microchip/xc32/v4.21/bin/bin/../../lib/gcc/pic32mx/8.3.1/../../../../pic32mx/lib/fpu64/libc-musl.a(__printf_core.o)
 .gnu.attributes
                0x0000000000000540       0x10 /opt/microchip/xc32/v4.21/bin/bin/../../lib/gcc/pic32mx/8.3.1/../../../../pic32mx/lib/fpu64/libc-musl.a(atoi.o)
 .gnu.attributes
                0x0000000000000550       0x10 /opt/microchip/xc32/v4.21/bin/bin/../../lib/gcc/pic32mx/8.3.1/../../../../pic32mx/lib/fpu64/libc-musl.a(memset.o)
 .gnu.attributes
                0x0000000000000560       0x10 /opt/microchip/xc32/v4.21/bin/bin/../../lib/gcc/pic32mx/8.3.1/../../../../pic32mx/lib/fpu64/libc-musl.a(tolower.o)
 .gnu.attributes
                0x0000000000000570       0x10 /opt/microchip/xc32/v4.21/bin/bin/../../lib/gcc/pic32mx/8.3.1/../../../../pic32mx/lib/fpu64/libc-musl.a(toupper.o)
 .gnu.attributes
                0x0000000000000580       0x10 /opt/microchip/xc32/v4.21/bin/bin/../../lib/gcc/pic32mx/8.3.1/../../../../pic32mx/lib/fpu64/libc-musl.a(__int_vsprintf.o)
 .gnu.attributes
                0x0000000000000590       0x10 /opt/microchip/xc32/v4.21/bin/bin/../../lib/gcc/pic32mx/8.3.1/../../../../pic32mx/lib/fpu64/libc-musl.a(__pop_float.o)
 .gnu.attributes
                0x00000000000005a0       0x10 /opt/microchip/xc32/v4.21/bin/bin/../../lib/gcc/pic32mx/8.3.1/../../../../pic32mx/lib/fpu64/libc-musl.a(__int_vsnprintf.o)
 .gnu.attributes
                0x00000000000005b0       0x10 /opt/microchip/xc32/v4.21/bin/bin/../../lib/gcc/pic32mx/8.3.1/../../../../pic32mx/lib/fpu64/libc-musl.a(__int_vfprintf.o)
 .gnu.attributes
                0x00000000000005c0       0x10 /opt/microchip/xc32/v4.21/bin/bin/../../lib/gcc/pic32mx/8.3.1/fpu64/libgcc.a(_udivdi3.o)
 .gnu.attributes
                0x00000000000005d0       0x10 /opt/microchip/xc32/v4.21/bin/bin/../../lib/gcc/pic32mx/8.3.1/fpu64/libgcc.a(_umoddi3.o)
 .gnu.attributes
                0x00000000000005e0       0x10 /opt/microchip/xc32/v4.21/bin/bin/../../lib/gcc/pic32mx/8.3.1/../../../../pic32mx/lib/fpu64/libpic32.a(errno.o)
                0x000000009d000000                PROVIDE (__pic32_init_cache_program_base_addr = 0x9d000000)
                0x0000000080000000                PROVIDE (__pic32_init_cache_data_base_addr = 0x80000000)
                0x00000000d0000000                PROVIDE (__pic32_init_sqi_kseg2_virtual_base_addr = 0xd0000000)
                0x0000000030000000                PROVIDE (__pic32_init_sqi_kseg2_physical_base_addr = 0x30000000)
                0x000000000000001f                PROVIDE (__pic32_init_sqi_kseg2_entrylo0_bitset = 0x1f)
                0x00000000d0000000                __pic32_tlb_0_entryhi = __pic32_init_sqi_kseg2_virtual_base_addr
                0x0000000000c0001f                __pic32_tlb_0_entrylo0 = ((__pic32_init_sqi_kseg2_physical_base_addr >> 0x6) | __pic32_init_sqi_kseg2_entrylo0_bitset)
                0x0000000000c4001f                __pic32_tlb_0_entrylo1 = (__pic32_tlb_0_entrylo0 | ((__pic32_init_sqi_kseg2_physical_base_addr + 0x1000000) >> 0x6))
                0x00000000d2000000                __pic32_tlb_1_entryhi = (__pic32_init_sqi_kseg2_virtual_base_addr + 0x2000000)
                0x0000000000c8001f                __pic32_tlb_1_entrylo0 = (((__pic32_init_sqi_kseg2_physical_base_addr + 0x2000000) >> 0x6) | __pic32_init_sqi_kseg2_entrylo0_bitset)
                0x0000000000cc001f                __pic32_tlb_1_entrylo1 = (__pic32_tlb_1_entrylo0 | 0x40000)
                0x00000000f0000000                PROVIDE (__pic32_init_sqi_kseg3_virtual_base_addr = 0xf0000000)
                0x0000000030000000                PROVIDE (__pic32_init_sqi_kseg3_physical_base_addr = 0x30000000)
                0x0000000000000017                PROVIDE (__pic32_init_sqi_kseg3_entrylo0_bitset = 0x17)
                0x00000000f0000000                __pic32_tlb_2_entryhi = __pic32_init_sqi_kseg3_virtual_base_addr
                0x0000000000c00017                __pic32_tlb_2_entrylo0 = ((__pic32_init_sqi_kseg3_physical_base_addr >> 0x6) | __pic32_init_sqi_kseg3_entrylo0_bitset)
                0x0000000000c40017                __pic32_tlb_2_entrylo1 = (__pic32_tlb_2_entrylo0 | ((__pic32_init_sqi_kseg3_physical_base_addr + 0x1000000) >> 0x6))
                0x00000000f2000000                __pic32_tlb_3_entryhi = (__pic32_init_sqi_kseg3_virtual_base_addr + 0x2000000)
                0x0000000000c80017                __pic32_tlb_3_entrylo0 = (((__pic32_init_sqi_kseg3_physical_base_addr + 0x2000000) >> 0x6) | __pic32_init_sqi_kseg3_entrylo0_bitset)
                0x0000000000cc0017                __pic32_tlb_3_entrylo1 = (__pic32_tlb_3_entrylo0 | 0x40000)
                0x00000000c0000000                PROVIDE (__pic32_init_ebi_kseg2_virtual_base_addr = 0xc0000000)
                0x0000000020000000                PROVIDE (__pic32_init_ebi_kseg2_physical_base_addr = 0x20000000)
                0x000000000000001f                PROVIDE (__pic32_init_ebi_kseg2_entrylo0_bitset = 0x1f)
                0x00000000c0000000                __pic32_tlb_4_entryhi = __pic32_init_ebi_kseg2_virtual_base_addr
                0x000000000080001f                __pic32_tlb_4_entrylo0 = ((__pic32_init_ebi_kseg2_physical_base_addr >> 0x6) | __pic32_init_ebi_kseg2_entrylo0_bitset)
                0x000000000084001f                __pic32_tlb_4_entrylo1 = (__pic32_tlb_4_entrylo0 | ((__pic32_init_ebi_kseg2_physical_base_addr + 0x1000000) >> 0x6))
                0x00000000c2000000                __pic32_tlb_5_entryhi = (__pic32_init_ebi_kseg2_virtual_base_addr + 0x2000000)
                0x000000000088001f                __pic32_tlb_5_entrylo0 = (((__pic32_init_ebi_kseg2_physical_base_addr + 0x2000000) >> 0x6) | __pic32_init_ebi_kseg2_entrylo0_bitset)
                0x00000000008c001f                __pic32_tlb_5_entrylo1 = (__pic32_tlb_5_entrylo0 | 0x40000)
                0x00000000e0000000                PROVIDE (__pic32_init_ebi_kseg3_virtual_base_addr = 0xe0000000)
                0x0000000020000000                PROVIDE (__pic32_init_ebi_kseg3_physical_base_addr = 0x20000000)
                0x0000000000000017                PROVIDE (__pic32_init_ebi_kseg3_entrylo0_bitset = 0x17)
                0x00000000e0000000                __pic32_tlb_6_entryhi = __pic32_init_ebi_kseg3_virtual_base_addr
                0x0000000000800017                __pic32_tlb_6_entrylo0 = ((__pic32_init_ebi_kseg3_physical_base_addr >> 0x6) | __pic32_init_ebi_kseg3_entrylo0_bitset)
                0x0000000000840017                __pic32_tlb_6_entrylo1 = (__pic32_tlb_6_entrylo0 | ((__pic32_init_ebi_kseg3_physical_base_addr + 0x1000000) >> 0x6))
                0x00000000e2000000                __pic32_tlb_7_entryhi = (__pic32_init_ebi_kseg3_virtual_base_addr + 0x2000000)
                0x0000000000880017                __pic32_tlb_7_entrylo0 = (((__pic32_init_ebi_kseg3_physical_base_addr + 0x2000000) >> 0x6) | __pic32_init_ebi_kseg3_entrylo0_bitset)
                0x00000000008c0017                __pic32_tlb_7_entrylo1 = (__pic32_tlb_7_entrylo0 | 0x40000)

.tlb_init_values
                0x00000000bfc00670       0x60
                0x00000000bfc00670                . = ALIGN (0x4)
                0x00000000bfc00670                __pic32_tlb_init_values_begin = ABSOLUTE (.)
                0x00000000bfc00670        0x4 LONG 0xd0000000 __pic32_tlb_0_entryhi
                0x00000000bfc00674        0x4 LONG 0xc0001f __pic32_tlb_0_entrylo0
                0x00000000bfc00678        0x4 LONG 0xc4001f __pic32_tlb_0_entrylo1
                0x00000000bfc0067c        0x4 LONG 0xd2000000 __pic32_tlb_1_entryhi
                0x00000000bfc00680        0x4 LONG 0xc8001f __pic32_tlb_1_entrylo0
                0x00000000bfc00684        0x4 LONG 0xcc001f __pic32_tlb_1_entrylo1
                0x00000000bfc00688        0x4 LONG 0xf0000000 __pic32_tlb_2_entryhi
                0x00000000bfc0068c        0x4 LONG 0xc00017 __pic32_tlb_2_entrylo0
                0x00000000bfc00690        0x4 LONG 0xc40017 __pic32_tlb_2_entrylo1
                0x00000000bfc00694        0x4 LONG 0xf2000000 __pic32_tlb_3_entryhi
                0x00000000bfc00698        0x4 LONG 0xc80017 __pic32_tlb_3_entrylo0
                0x00000000bfc0069c        0x4 LONG 0xcc0017 __pic32_tlb_3_entrylo1
                0x00000000bfc006a0        0x4 LONG 0xc0000000 __pic32_tlb_4_entryhi
                0x00000000bfc006a4        0x4 LONG 0x80001f __pic32_tlb_4_entrylo0
                0x00000000bfc006a8        0x4 LONG 0x84001f __pic32_tlb_4_entrylo1
                0x00000000bfc006ac        0x4 LONG 0xc2000000 __pic32_tlb_5_entryhi
                0x00000000bfc006b0        0x4 LONG 0x88001f __pic32_tlb_5_entrylo0
                0x00000000bfc006b4        0x4 LONG 0x8c001f __pic32_tlb_5_entrylo1
                0x00000000bfc006b8        0x4 LONG 0xe0000000 __pic32_tlb_6_entryhi
                0x00000000bfc006bc        0x4 LONG 0x800017 __pic32_tlb_6_entrylo0
                0x00000000bfc006c0        0x4 LONG 0x840017 __pic32_tlb_6_entrylo1
                0x00000000bfc006c4        0x4 LONG 0xe2000000 __pic32_tlb_7_entryhi
                0x00000000bfc006c8        0x4 LONG 0x880017 __pic32_tlb_7_entrylo0
                0x00000000bfc006cc        0x4 LONG 0x8c0017 __pic32_tlb_7_entrylo1
                0x00000000bfc006d0                __pic32_tlb_init_values_end = ABSOLUTE (.)
                0x00000000bfc00678                __pic32_tlb_init_values_count = 0x8
                0x0000000000000200                _min_heap_size = 0x200
LOAD /tmp/cc2DRTQz.o
LOAD /tmp/cciM6ozx.o
LOAD /tmp/ccGKBfTB.o
LOAD /tmp/cccIVjSB.o
LOAD /opt/microchip/xc32/v4.21/bin/bin/../../lib/gcc/pic32mx/8.3.1/../../../../pic32mx/lib/fpu64/pic32_software_reset.o
LOAD /opt/microchip/xc32/v4.21/bin/bin/../../lib/gcc/pic32mx/8.3.1/fpu64/libgcc.a
START GROUP
LOAD /opt/microchip/xc32/v4.21/bin/bin/../../lib/gcc/pic32mx/8.3.1/../../../../pic32mx/lib/fpu64/libpic32.a
LOAD /opt/microchip/xc32/v4.21/bin/bin/../../lib/gcc/pic32mx/8.3.1/../../../../pic32mx/lib/fpu64/libdebug.a
LOAD /opt/microchip/xc32/v4.21/bin/bin/../../lib/gcc/pic32mx/8.3.1/../../../../pic32mx/lib/fpu64/libc-musl.a
LOAD /opt/microchip/xc32/v4.21/bin/bin/../../lib/gcc/pic32mx/8.3.1/../../../../pic32mx/lib/fpu64/libm-musl.a
LOAD /opt/microchip/xc32/v4.21/bin/bin/../../lib/gcc/pic32mx/8.3.1/../../../../pic32mx/lib/fpu64/libdspr2.a
LOAD /opt/microchip/xc32/v4.21/bin/bin/../../lib/gcc/pic32mx/8.3.1/../../../../pic32mx/lib/fpu64/libdsp.a
LOAD /opt/microchip/xc32/v4.21/bin/bin/../../lib/gcc/pic32mx/8.3.1/fpu64/libgcc.a
END GROUP
LOAD /opt/microchip/xc32/v4.21/bin/bin/../../lib/gcc/pic32mx/8.3.1/fpu64/libgcc.a
OUTPUT(dist/default/production/CubeDebMeteo.X.production.elf elf32-tradlittlemips)
LOAD stack
LOAD data_init

.reginfo        0x0000000000000000       0x18
 .reginfo       0x0000000000000000       0x18 /opt/microchip/xc32/v4.21/bin/bin/../../lib/gcc/pic32mx/8.3.1/../../../../pic32mx/lib/fpu64/debug-exception-return.o

.stack          0x0000000080001c88      0x400
 .stack         0x0000000080001c88      0x400 stack

.__vector_offset_BF810540_data
                0x00000000bf810540      0x178
 .__vector_offset_BF810540_data
                0x00000000bf810540      0x178 /tmp/ccGKBfTB.o

.__vector_offset_BF810740_data
                0x00000000bf810740       0xfc
 .__vector_offset_BF810740_data
                0x00000000bf810740       0xfc /tmp/ccGKBfTB.o

.__vector_offset_BF8106F4_data
                0x00000000bf8106f4       0x40
 .__vector_offset_BF8106F4_data
                0x00000000bf8106f4       0x40 /tmp/ccGKBfTB.o

.__vector_offset_BF8106D8_data
                0x00000000bf8106d8       0x18
 .__vector_offset_BF8106D8_data
                0x00000000bf8106d8       0x18 /tmp/ccGKBfTB.o

.__vector_offset_BF810874_data
                0x00000000bf810874       0x18
 .__vector_offset_BF810874_data
                0x00000000bf810874       0x18 /tmp/ccGKBfTB.o

.__vector_offset_BF810858_data
                0x00000000bf810858       0x14
 .__vector_offset_BF810858_data
                0x00000000bf810858       0x14 /tmp/ccGKBfTB.o

.__vector_offset_BF810840_data
                0x00000000bf810840        0xc
 .__vector_offset_BF810840_data
                0x00000000bf810840        0xc /tmp/ccGKBfTB.o

.__vector_offset_BF810850_data
                0x00000000bf810850        0x4
 .__vector_offset_BF810850_data
                0x00000000bf810850        0x4 /tmp/ccGKBfTB.o

.__vector_offset_BF810894_data
                0x00000000bf810894        0x4
 .__vector_offset_BF810894_data
                0x00000000bf810894        0x4 /tmp/ccGKBfTB.o

.bss            0x0000000080000104      0xe60
 .bss           0x0000000080000104      0xb40 build/default/production/_ext/1505855908/clockStream.o
 .bss           0x0000000080000c44      0x320 build/default/production/_ext/1571292264/7segmentsOutputStream.o

.bss            0x0000000080000f64      0x370
 .bss           0x0000000080000f64      0x1e0 build/default/production/_ext/1240316727/temperatureStream.o
 .bss           0x0000000080001144      0x190 build/default/production/_ext/529250520/displayUtils.o

.bss            0x00000000800012d4      0x320
 .bss           0x00000000800012d4      0x190 build/default/production/_ext/919119933/RGBStream.o
 .bss           0x0000000080001464      0x190 build/default/production/_ext/991344331/frequencyCounterUtils.o

.bss            0x00000000800015f4      0x2b0
 .bss           0x00000000800015f4      0x190 build/default/production/_ext/111410402/serialOutpuStream.o
 .bss           0x0000000080001784      0x120 build/default/production/_ext/99833024/distanceStream.o

.bss            0x00000000800018a4      0x150
 .bss           0x00000000800018a4      0x100 build/default/production/_ext/1865657120/plib_uart5.o
 .bss           0x00000000800019a4       0x50 build/default/production/_ext/428692892/HC-SR04.o

.bss            0x00000000800019f4       0x54
 .bss           0x00000000800019f4       0x34 build/default/production/_ext/513455433/plib_i2c1_master.o
 .bss           0x0000000080001a28       0x20 build/default/production/_ext/1367680316/LM75A.o

.bss            0x0000000080001a48       0x1d
 .bss           0x0000000080001a48       0x1d build/default/production/_ext/1522154941/uart5.o

.bss.errno      0x0000000080001a68        0x4
 .bss.errno     0x0000000080001a68        0x4 /opt/microchip/xc32/v4.21/bin/bin/../../lib/gcc/pic32mx/8.3.1/../../../../pic32mx/lib/fpu64/libpic32.a(errno.o)
                0x0000000080001a68                errno

._debug_exception
                0x00000000bfc00480       0x2c
 ._debug_exception
                0x00000000bfc00480       0x2c /opt/microchip/xc32/v4.21/bin/bin/../../lib/gcc/pic32mx/8.3.1/../../../../pic32mx/lib/fpu64/debug-exception-return.o
                0x00000000bfc00480                __DbgExecReturn

.dinit          0x000000009d000298      0x5f0
 .dinit         0x000000009d000298      0x5f0 data_init

.text.__printf_core
                0x000000009d000888      0x580
 .text.__printf_core
                0x000000009d000888      0x580 /opt/microchip/xc32/v4.21/bin/bin/../../lib/gcc/pic32mx/8.3.1/../../../../pic32mx/lib/fpu64/libc-musl.a(__printf_core.o)
                0x000000009d000888                __printf_core

.text.I2C1_MASTER_InterruptHandler
                0x000000009d000e08      0x4b4
 .text.I2C1_MASTER_InterruptHandler
                0x000000009d000e08      0x4b4 build/default/production/_ext/513455433/plib_i2c1_master.o
                0x000000009d000e08                I2C1_MASTER_InterruptHandler

.text           0x000000009d0012bc      0x800
 .text          0x000000009d0012bc      0x444 /opt/microchip/xc32/v4.21/bin/bin/../../lib/gcc/pic32mx/8.3.1/fpu64/libgcc.a(_divdi3.o)
                0x000000009d0012bc                __divdi3
 .text          0x000000009d001700      0x3bc /opt/microchip/xc32/v4.21/bin/bin/../../lib/gcc/pic32mx/8.3.1/fpu64/libgcc.a(_udivdi3.o)
                0x000000009d001700                __udivdi3

.text           0x000000009d001abc      0x3b8
 .text          0x000000009d001abc      0x3b8 /opt/microchip/xc32/v4.21/bin/bin/../../lib/gcc/pic32mx/8.3.1/fpu64/libgcc.a(_umoddi3.o)
                0x000000009d001abc                __umoddi3

.text.mainCube  0x000000009d001e74      0x34c
 .text.mainCube
                0x000000009d001e74      0x34c build/default/production/_ext/1019397905/mainCubeMeteo.o
                0x000000009d001e74                mainCube

.text.appendDecf
                0x000000009d0021c0      0x208
 .text.appendDecf
                0x000000009d0021c0      0x208 build/default/production/_ext/1038083393/printWriter.o
                0x000000009d0021c0                appendDecf

.text.__fmt_x   0x000000009d0023c8      0x208
 .text.__fmt_x  0x000000009d0023c8      0x208 /opt/microchip/xc32/v4.21/bin/bin/../../lib/gcc/pic32mx/8.3.1/../../../../pic32mx/lib/fpu64/libc-musl.a(__fmt_x.o)
                0x000000009d0023c8                __fmt_x
                0x000000009d0023c8                __fmt_x_needed

.text.initMainCube
                0x000000009d0025d0      0x1e8
 .text.initMainCube
                0x000000009d0025d0      0x1e8 build/default/production/_ext/1019397905/mainCubeMeteo.o
                0x000000009d0025d0                initMainCube

.text.TIMER_1_Handler
                0x000000009d0027b8      0x1d0
 .text.TIMER_1_Handler
                0x000000009d0027b8      0x1d0 build/default/production/_ext/1171490990/interrupts.o
                0x000000009d0027b8                TIMER_1_Handler

.text.TIMER_5_Handler
                0x000000009d002988      0x1d0
 .text.TIMER_5_Handler
                0x000000009d002988      0x1d0 build/default/production/_ext/1171490990/interrupts.o
                0x000000009d002988                TIMER_5_Handler

.text.I2C1_BUS_Handler
                0x000000009d002b58      0x1d0
 .text.I2C1_BUS_Handler
                0x000000009d002b58      0x1d0 build/default/production/_ext/1171490990/interrupts.o
                0x000000009d002b58                I2C1_BUS_Handler

.text.I2C1_MASTER_Handler
                0x000000009d002d28      0x1d0
 .text.I2C1_MASTER_Handler
                0x000000009d002d28      0x1d0 build/default/production/_ext/1171490990/interrupts.o
                0x000000009d002d28                I2C1_MASTER_Handler

.text.UART2_FAULT_Handler
                0x000000009d002ef8      0x1d0
 .text.UART2_FAULT_Handler
                0x000000009d002ef8      0x1d0 build/default/production/_ext/1171490990/interrupts.o
                0x000000009d002ef8                UART2_FAULT_Handler

.text.UART2_RX_Handler
                0x000000009d0030c8      0x1d0
 .text.UART2_RX_Handler
                0x000000009d0030c8      0x1d0 build/default/production/_ext/1171490990/interrupts.o
                0x000000009d0030c8                UART2_RX_Handler

.text.UART2_TX_Handler
                0x000000009d003298      0x1d0
 .text.UART2_TX_Handler
                0x000000009d003298      0x1d0 build/default/production/_ext/1171490990/interrupts.o
                0x000000009d003298                UART2_TX_Handler

.text.UART5_FAULT_Handler
                0x000000009d003468      0x1d0
 .text.UART5_FAULT_Handler
                0x000000009d003468      0x1d0 build/default/production/_ext/1171490990/interrupts.o
                0x000000009d003468                UART5_FAULT_Handler

.text.UART5_RX_Handler
                0x000000009d003638      0x1d0
 .text.UART5_RX_Handler
                0x000000009d003638      0x1d0 build/default/production/_ext/1171490990/interrupts.o
                0x000000009d003638                UART5_RX_Handler

.text.UART5_TX_Handler
                0x000000009d003808      0x1d0
 .text.UART5_TX_Handler
                0x000000009d003808      0x1d0 build/default/production/_ext/1171490990/interrupts.o
                0x000000009d003808                UART5_TX_Handler

.text.printFrequency
                0x000000009d0039d8      0x1c4
 .text.printFrequency
                0x000000009d0039d8      0x1c4 build/default/production/_ext/1019397905/mainCubeMeteo.o
                0x000000009d0039d8                printFrequency

.text.__pop_int
                0x000000009d003b9c      0x188
 .text.__pop_int
                0x000000009d003b9c      0x188 /opt/microchip/xc32/v4.21/bin/bin/../../lib/gcc/pic32mx/8.3.1/../../../../pic32mx/lib/fpu64/libc-musl.a(__pop_int.o)
                0x000000009d003b9c                __pop_int
                0x000000009d003b9c                __pop_int_needed

.text.UART5_RX_InterruptHandler
                0x000000009d003d24      0x184
 .text.UART5_RX_InterruptHandler
                0x000000009d003d24      0x184 build/default/production/_ext/1865657120/plib_uart5.o
                0x000000009d003d24                UART5_RX_InterruptHandler

.text.UART5_TX_InterruptHandler
                0x000000009d003ea8      0x184
 .text.UART5_TX_InterruptHandler
                0x000000009d003ea8      0x184 build/default/production/_ext/1865657120/plib_uart5.o
                0x000000009d003ea8                UART5_TX_InterruptHandler

.text           0x000000009d00402c      0x2d0
 .text          0x000000009d00402c      0x168 /opt/microchip/xc32/v4.21/bin/bin/../../lib/gcc/pic32mx/8.3.1/../../../../pic32mx/lib/fpu64/libpic32.a(memcpy.o)
                0x000000009d00402c                memcpy
 .text          0x000000009d004194      0x168 /opt/microchip/xc32/v4.21/bin/bin/../../lib/gcc/pic32mx/8.3.1/../../../../pic32mx/lib/fpu64/libpic32.a(strlen.o)
                0x000000009d004194                strlen

.text.__fmt_d   0x000000009d0042fc      0x150
 .text.__fmt_d  0x000000009d0042fc      0x150 /opt/microchip/xc32/v4.21/bin/bin/../../lib/gcc/pic32mx/8.3.1/../../../../pic32mx/lib/fpu64/libc-musl.a(__fmt_d.o)
                0x000000009d0042fc                __fmt_d
                0x000000009d0042fc                __fmt_d_needed

.text.UART5_Write
                0x000000009d00444c      0x140
 .text.UART5_Write
                0x000000009d00444c      0x140 build/default/production/_ext/1865657120/plib_uart5.o
                0x000000009d00444c                UART5_Write

.text.frequencyCounter
                0x000000009d00458c      0x13c
 .text.frequencyCounter
                0x000000009d00458c      0x13c build/default/production/_ext/991344331/frequencyCounter.o
                0x000000009d00458c                frequencyCounter

.text.__cvt_u   0x000000009d0046c8      0x13c
 .text.__cvt_u  0x000000009d0046c8      0x13c /opt/microchip/xc32/v4.21/bin/bin/../../lib/gcc/pic32mx/8.3.1/../../../../pic32mx/lib/fpu64/libc-musl.a(__fmt_u.o)
                0x000000009d0046c8                __cvt_u

.text.appendDec
                0x000000009d004804      0x120
 .text.appendDec
                0x000000009d004804      0x120 build/default/production/_ext/1038083393/printWriter.o
                0x000000009d004804                appendDec

.text.GPIO_Initialize
                0x000000009d004924      0x120
 .text.GPIO_Initialize
                0x000000009d004924      0x120 build/default/production/_ext/1865254177/plib_gpio.o
                0x000000009d004924                GPIO_Initialize

.text._HCSR04_readDistanceValue
                0x000000009d004a44      0x120
 .text._HCSR04_readDistanceValue
                0x000000009d004a44      0x120 build/default/production/_ext/428692892/HC-SR04.o
                0x000000009d004a44                _HCSR04_readDistanceValue

.text.UART2_RX_InterruptHandler
                0x000000009d004b64      0x118
 .text.UART2_RX_InterruptHandler
                0x000000009d004b64      0x118 build/default/production/_ext/1865657120/plib_uart2.o
                0x000000009d004b64                UART2_RX_InterruptHandler

.text.UART2_TX_InterruptHandler
                0x000000009d004c7c      0x10c
 .text.UART2_TX_InterruptHandler
                0x000000009d004c7c      0x10c build/default/production/_ext/1865657120/plib_uart2.o
                0x000000009d004c7c                UART2_TX_InterruptHandler

.text.ADCHS_Initialize
                0x000000009d004d88      0x104
 .text.ADCHS_Initialize
                0x000000009d004d88      0x104 build/default/production/_ext/1982400153/plib_adchs.o
                0x000000009d004d88                ADCHS_Initialize

.rodata         0x000000009d004e8c      0x100
 .rodata        0x000000009d004e8c      0x100 build/default/production/_ext/1571292264/7segments.o

.text.strToTM1638AnnodeCommon
                0x000000009d004f8c      0x100
 .text.strToTM1638AnnodeCommon
                0x000000009d004f8c      0x100 build/default/production/_ext/780438209/TM1638.o
                0x000000009d004f8c                strToTM1638AnnodeCommon

.text.__pad     0x000000009d00508c      0x100
 .text.__pad    0x000000009d00508c      0x100 /opt/microchip/xc32/v4.21/bin/bin/../../lib/gcc/pic32mx/8.3.1/../../../../pic32mx/lib/fpu64/libc-musl.a(__printf_core.o)
                0x000000009d00508c                __pad

.text.__fmt_o   0x000000009d00518c       0xf4
 .text.__fmt_o  0x000000009d00518c       0xf4 /opt/microchip/xc32/v4.21/bin/bin/../../lib/gcc/pic32mx/8.3.1/../../../../pic32mx/lib/fpu64/libc-musl.a(__fmt_o.o)
                0x000000009d00518c                __fmt_o
                0x000000009d00518c                __fmt_o_needed

.text.__pop_ptr
                0x000000009d000010       0xe4
 .text.__pop_ptr
                0x000000009d000010       0xe4 /opt/microchip/xc32/v4.21/bin/bin/../../lib/gcc/pic32mx/8.3.1/../../../../pic32mx/lib/fpu64/libc-musl.a(__pop_ptr.o)
                0x000000009d000010                __pop_ptr
                0x000000009d000010                __pop_ptr_needed

.text.init7SegOutputStream
                0x000000009d005280       0xdc
 .text.init7SegOutputStream
                0x000000009d005280       0xdc build/default/production/_ext/1571292264/7segmentsOutputStream.o
                0x000000009d005280                init7SegOutputStream

.text.UART5_Initialize
                0x000000009d00535c       0xdc
 .text.UART5_Initialize
                0x000000009d00535c       0xdc build/default/production/_ext/1865657120/plib_uart5.o
                0x000000009d00535c                UART5_Initialize

.text.general_exception
                0x000000009d005438       0xdc
 .text.general_exception
                0x000000009d005438       0xdc /opt/microchip/xc32/v4.21/bin/bin/../../lib/gcc/pic32mx/8.3.1/../../../../pic32mx/lib/fpu64/libpic32.a(general-exception.o)
                0x000000009d005438                _general_exception_context

.text._cache_err_exception_context
                0x000000009d005514       0xd8
 .text._cache_err_exception_context
                0x000000009d005514       0xd8 /opt/microchip/xc32/v4.21/bin/bin/../../lib/gcc/pic32mx/8.3.1/../../../../pic32mx/lib/fpu64/libpic32.a(cache-err-exception.o)
                0x000000009d005514                _cache_err_exception_context

.text.simple_tlb_refill_context
                0x000000009d0055ec       0xd8
 .text.simple_tlb_refill_context
                0x000000009d0055ec       0xd8 /opt/microchip/xc32/v4.21/bin/bin/../../lib/gcc/pic32mx/8.3.1/../../../../pic32mx/lib/fpu64/libpic32.a(simple-tlb-refill-exception.o)
                0x000000009d0055ec                _simple_tlb_refill_exception_context

.text.sendCommandTM1638
                0x000000009d0056c4       0xd4
 .text.sendCommandTM1638
                0x000000009d0056c4       0xd4 build/default/production/_ext/780438209/TM1638.o
                0x000000009d0056c4                sendCommandTM1638

.text.printClock
                0x000000009d005798       0xc4
 .text.printClock
                0x000000009d005798       0xc4 build/default/production/_ext/1505855908/clock.o
                0x000000009d005798                printClock

.text.SYS_Initialize
                0x000000009d00585c       0xc0
 .text.SYS_Initialize
                0x000000009d00585c       0xc0 build/default/production/_ext/1171490990/initialization.o
                0x000000009d00585c                SYS_Initialize

.text.UART5_FAULT_InterruptHandler
                0x000000009d00591c       0xbc
 .text.UART5_FAULT_InterruptHandler
                0x000000009d00591c       0xbc build/default/production/_ext/1865657120/plib_uart5.o
                0x000000009d00591c                UART5_FAULT_InterruptHandler

.tlb.__pic32_tlb_init_ebi_sqi
                0x000000009d0059d8       0xbc
 .tlb.__pic32_tlb_init_ebi_sqi
                0x000000009d0059d8       0xbc /opt/microchip/xc32/v4.21/bin/bin/../../lib/gcc/pic32mx/8.3.1/../../../../pic32mx/lib/fpu64/libpic32.a(pic32_init_tlb_ebi_sqi.o)
                0x000000009d0059d8                __pic32_tlb_init_ebi_sqi

.text.__fmt_u   0x000000009d005a94       0xbc
 .text.__fmt_u  0x000000009d005a94       0xbc /opt/microchip/xc32/v4.21/bin/bin/../../lib/gcc/pic32mx/8.3.1/../../../../pic32mx/lib/fpu64/libc-musl.a(__fmt_u.o)
                0x000000009d005a94                __fmt_u
                0x000000009d005a94                __fmt_u_needed

.text.UART5_Read
                0x000000009d005b50       0xb8
 .text.UART5_Read
                0x000000009d005b50       0xb8 build/default/production/_ext/1865657120/plib_uart5.o
                0x000000009d005b50                UART5_Read

.text.sendDataTM1638
                0x000000009d005c08       0xb8
 .text.sendDataTM1638
                0x000000009d005c08       0xb8 build/default/production/_ext/780438209/TM1638.o
                0x000000009d005c08                sendDataTM1638

.rodata.str1.4  0x000000009d005cc0       0xa8
 .rodata.str1.4
                0x000000009d005cc0       0xa8 build/default/production/_ext/1019397905/mainCubeMeteo.o

.text._readPcf8563Clock
                0x000000009d005d68       0xa4
 .text._readPcf8563Clock
                0x000000009d005d68       0xa4 build/default/production/_ext/1098102801/PCF8563.o
                0x000000009d005d68                _readPcf8563Clock

.text.__fmt_s   0x000000009d005e0c       0xa4
 .text.__fmt_s  0x000000009d005e0c       0xa4 /opt/microchip/xc32/v4.21/bin/bin/../../lib/gcc/pic32mx/8.3.1/../../../../pic32mx/lib/fpu64/libc-musl.a(__fmt_s.o)
                0x000000009d005e0c                __fmt_s
                0x000000009d005e0c                __fmt_0_needed
                0x000000009d005e0c                __fmt_s_needed

.text.initLed   0x000000009d005eb0       0x98
 .text.initLed  0x000000009d005eb0       0x98 build/default/production/_ext/919093983/led.o
                0x000000009d005eb0                initLed

.text.print7Seg
                0x000000009d005f48       0x94
 .text.print7Seg
                0x000000009d005f48       0x94 build/default/production/_ext/1571292264/7segments.o
                0x000000009d005f48                print7Seg

.text.CLK_Initialize
                0x000000009d005fdc       0x94
 .text.CLK_Initialize
                0x000000009d005fdc       0x94 build/default/production/_ext/60165520/plib_clk.o
                0x000000009d005fdc                CLK_Initialize

.text.I2C1_WriteRead
                0x000000009d006070       0x88
 .text.I2C1_WriteRead
                0x000000009d006070       0x88 build/default/production/_ext/513455433/plib_i2c1_master.o
                0x000000009d006070                I2C1_WriteRead

.text.UART2_Initialize
                0x000000009d0060f8       0x88
 .text.UART2_Initialize
                0x000000009d0060f8       0x88 build/default/production/_ext/1865657120/plib_uart2.o
                0x000000009d0060f8                UART2_Initialize

.text.I2C1_Write
                0x000000009d006180       0x84
 .text.I2C1_Write
                0x000000009d006180       0x84 build/default/production/_ext/513455433/plib_i2c1_master.o
                0x000000009d006180                I2C1_Write

.text._writePcf8563Clock
                0x000000009d006204       0x80
 .text._writePcf8563Clock
                0x000000009d006204       0x80 build/default/production/_ext/1098102801/PCF8563.o
                0x000000009d006204                _writePcf8563Clock

.rodata         0x000000009d006284       0x80
 .rodata        0x000000009d006284       0x80 build/default/production/_ext/780438209/TM1638.o

.text.dinit.startup
                0x000000009d006304       0x80
 .text.dinit.startup
                0x000000009d006304       0x80 /opt/microchip/xc32/v4.21/bin/bin/../../lib/gcc/pic32mx/8.3.1/../../../../pic32mx/lib/fpu64/libpic32.a(pic32_data_init_0_1.o)
                0x000000009d006304                __copy_needed
                0x000000009d006304                __pic32_data_init_impl

.text.__vsnprintf
                0x000000009d006384       0x80
 .text.__vsnprintf
                0x000000009d006384       0x80 /opt/microchip/xc32/v4.21/bin/bin/../../lib/gcc/pic32mx/8.3.1/../../../../pic32mx/lib/fpu64/libc-musl.a(__int_vsnprintf.o)
                0x000000009d006384                __vsnprintf

.text.atoi      0x000000009d006404       0x7c
 .text.atoi     0x000000009d006404       0x7c /opt/microchip/xc32/v4.21/bin/bin/../../lib/gcc/pic32mx/8.3.1/../../../../pic32mx/lib/fpu64/libc-musl.a(atoi.o)
                0x000000009d006404                atoi

.text.EVIC_Initialize
                0x000000009d006480       0x78
 .text.EVIC_Initialize
                0x000000009d006480       0x78 build/default/production/_ext/1865200349/plib_evic.o
                0x000000009d006480                EVIC_Initialize

.text._LM75A_readSensorValue
                0x000000009d0064f8       0x78
 .text._LM75A_readSensorValue
                0x000000009d0064f8       0x78 build/default/production/_ext/1367680316/LM75A.o
                0x000000009d0064f8                _LM75A_readSensorValue

.text.NZR0      0x000000009d006570       0x78
 .text.NZR0     0x000000009d006570       0x78 build/default/production/_ext/1259047745/WS2812b.o
                0x000000009d006570                NZR0

.text.NZR1      0x000000009d0065e8       0x78
 .text.NZR1     0x000000009d0065e8       0x78 build/default/production/_ext/1259047745/WS2812b.o
                0x000000009d0065e8                NZR1

.text.UART2_ErrorClear
                0x000000009d006660       0x74
 .text.UART2_ErrorClear
                0x000000009d006660       0x74 build/default/production/_ext/1865657120/plib_uart2.o

.text.internalAppendHex
                0x000000009d000110       0x70
 .text.internalAppendHex
                0x000000009d000110       0x70 build/default/production/_ext/1038083393/printWriter.o
                0x000000009d000110                internalAppendHex

.text.printTimeTo7Seg
                0x000000009d000190       0x6c
 .text.printTimeTo7Seg
                0x000000009d000190       0x6c build/default/production/_ext/1505855908/clock.o
                0x000000009d000190                printTimeTo7Seg

.text.GRBcolor  0x000000009d0066d4       0x68
 .text.GRBcolor
                0x000000009d0066d4       0x68 build/default/production/_ext/1259047745/WS2812b.o
                0x000000009d0066d4                GRBcolor

.text.initSerialOutputStream
                0x000000009d00673c       0x64
 .text.initSerialOutputStream
                0x000000009d00673c       0x64 build/default/production/_ext/111410402/serialOutpuStream.o
                0x000000009d00673c                initSerialOutputStream

.text.I2C1_Initialize
                0x000000009d0067a0       0x64
 .text.I2C1_Initialize
                0x000000009d0067a0       0x64 build/default/production/_ext/513455433/plib_i2c1_master.o
                0x000000009d0067a0                I2C1_Initialize

.text.UART2_FAULT_InterruptHandler
                0x000000009d006804       0x64
 .text.UART2_FAULT_InterruptHandler
                0x000000009d006804       0x64 build/default/production/_ext/1865657120/plib_uart2.o
                0x000000009d006804                UART2_FAULT_InterruptHandler

.text.init7SegOutputStreamTM1638
                0x000000009d006868       0x60
 .text.init7SegOutputStreamTM1638
                0x000000009d006868       0x60 build/default/production/_ext/1571292264/7segmentsOutputStream.o
                0x000000009d006868                init7SegOutputStreamTM1638

.text.I2C1_BUS_InterruptHandler
                0x000000009d0068c8       0x60
 .text.I2C1_BUS_InterruptHandler
                0x000000009d0068c8       0x60 build/default/production/_ext/513455433/plib_i2c1_master.o
                0x000000009d0068c8                I2C1_BUS_InterruptHandler

.text.readSensorValueAsString
                0x000000009d006928       0x5c
 .text.readSensorValueAsString
                0x000000009d006928       0x5c build/default/production/_ext/1240316727/temperature.o
                0x000000009d006928                readSensorValueAsString

.text.__string_out
                0x000000009d006984       0x5c
 .text.__string_out
                0x000000009d006984       0x5c /opt/microchip/xc32/v4.21/bin/bin/../../lib/gcc/pic32mx/8.3.1/../../../../pic32mx/lib/fpu64/libc-musl.a(__printf_core.o)
                0x000000009d006984                __out

.text.__fmt_state
                0x000000009d0069e0       0x58
 .text.__fmt_state
                0x000000009d0069e0       0x58 /opt/microchip/xc32/v4.21/bin/bin/../../lib/gcc/pic32mx/8.3.1/../../../../pic32mx/lib/fpu64/libc-musl.a(__printf_core.o)
                0x000000009d0069e0                __fmt_state

.text.main_entry
                0x000000009d006a38       0x54
 .text.main_entry
                0x000000009d006a38       0x54 /tmp/cc2DRTQz.o
                0x000000009d006a6c                __crt0_exit

.text._openOutputStreamTM1638
                0x000000009d006a8c       0x50
 .text._openOutputStreamTM1638
                0x000000009d006a8c       0x50 build/default/production/_ext/1571292264/7segmentsOutputStream.o
                0x000000009d006a8c                _openOutputStreamTM1638

.text.usartReadEventHandler
                0x000000009d006adc       0x50
 .text.usartReadEventHandler
                0x000000009d006adc       0x50 build/default/production/_ext/1522154941/uart5.o
                0x000000009d006adc                usartReadEventHandler

.text.I2C1_IsBusy
                0x000000009d006b2c       0x50
 .text.I2C1_IsBusy
                0x000000009d006b2c       0x50 build/default/production/_ext/513455433/plib_i2c1_master.o
                0x000000009d006b2c                I2C1_IsBusy

.text._LM75A_writeAlertLimit
                0x000000009d006b7c       0x50
 .text._LM75A_writeAlertLimit
                0x000000009d006b7c       0x50 build/default/production/_ext/1367680316/LM75A.o
                0x000000009d006b7c                _LM75A_writeAlertLimit

.text.SAA1064Twrite4DIGIT
                0x000000009d006bcc       0x50
 .text.SAA1064Twrite4DIGIT
                0x000000009d006bcc       0x50 build/default/production/_ext/672751358/SAA1064T.o
                0x000000009d006bcc                SAA1064Twrite4DIGIT

.text.appendStringLN
                0x000000009d006c1c       0x4c
 .text.appendStringLN
                0x000000009d006c1c       0x4c build/default/production/_ext/1038083393/printWriter.o
                0x000000009d006c1c                appendStringLN

.text.initSerialOutputStream5
                0x000000009d006c68       0x48
 .text.initSerialOutputStream5
                0x000000009d006c68       0x48 build/default/production/_ext/111410402/serialOutpuStream.o
                0x000000009d006c68                initSerialOutputStream5

.text.__pop_float
                0x000000009d006cb0       0x48
 .text.__pop_float
                0x000000009d006cb0       0x48 /opt/microchip/xc32/v4.21/bin/bin/../../lib/gcc/pic32mx/8.3.1/../../../../pic32mx/lib/fpu64/libc-musl.a(__pop_float.o)
                0x000000009d006cb0                __pop_float
                0x000000009d006cb0                __pop_float_needed

.text.appendStringAndDecLN
                0x000000009d006cf8       0x44
 .text.appendStringAndDecLN
                0x000000009d006cf8       0x44 build/default/production/_ext/1038083393/printWriter.o
                0x000000009d006cf8                appendStringAndDecLN

.text.readSensorValueAsStringFor7Seg
                0x000000009d006d3c       0x44
 .text.readSensorValueAsStringFor7Seg
                0x000000009d006d3c       0x44 build/default/production/_ext/1240316727/temperature.o
                0x000000009d006d3c                readSensorValueAsStringFor7Seg

.text.TMR4_Initialize
                0x000000009d006d80       0x44
 .text.TMR4_Initialize
                0x000000009d006d80       0x44 build/default/production/_ext/60181895/plib_tmr4.o
                0x000000009d006d80                TMR4_Initialize

.text._WS2812b_write
                0x000000009d006dc4       0x44
 .text._WS2812b_write
                0x000000009d006dc4       0x44 build/default/production/_ext/1259047745/WS2812b.o
                0x000000009d006dc4                _WS2812b_write

.text           0x000000009d006e08       0x44
 .text          0x000000009d006e08       0x44 /opt/microchip/xc32/v4.21/bin/bin/../../lib/gcc/pic32mx/8.3.1/../../../../pic32mx/lib/fpu64/pic32_software_reset.o
                0x000000009d006e08                __pic32_software_reset

.text.appendHex
                0x000000009d006e4c       0x40
 .text.appendHex
                0x000000009d006e4c       0x40 build/default/production/_ext/1038083393/printWriter.o
                0x000000009d006e4c                appendHex

.text.TIMER_5_InterruptHandler
                0x000000009d006e8c       0x40
 .text.TIMER_5_InterruptHandler
                0x000000009d006e8c       0x40 build/default/production/_ext/60181895/plib_tmr4.o
                0x000000009d006e8c                TIMER_5_InterruptHandler

.text.TMR1_Initialize
                0x000000009d006ecc       0x40
 .text.TMR1_Initialize
                0x000000009d006ecc       0x40 build/default/production/_ext/1865638794/plib_tmr1.o
                0x000000009d006ecc                TMR1_Initialize

.text.TIMER_1_InterruptHandler
                0x000000009d006f0c       0x40
 .text.TIMER_1_InterruptHandler
                0x000000009d006f0c       0x40 build/default/production/_ext/1865638794/plib_tmr1.o
                0x000000009d006f0c                TIMER_1_InterruptHandler

.text._write7SegStreamCharTM1638
                0x000000009d006f4c       0x3c
 .text._write7SegStreamCharTM1638
                0x000000009d006f4c       0x3c build/default/production/_ext/1571292264/7segmentsOutputStream.o
                0x000000009d006f4c                _write7SegStreamCharTM1638

.text.initClockStream
                0x000000009d006f88       0x3c
 .text.initClockStream
                0x000000009d006f88       0x3c build/default/production/_ext/1505855908/clockStream.o
                0x000000009d006f88                initClockStream

.text.appendString
                0x000000009d006fc4       0x3c
 .text.appendString
                0x000000009d006fc4       0x3c build/default/production/_ext/1038083393/printWriter.o
                0x000000009d006fc4                appendString

.text.appendStringAndDecf
                0x000000009d007000       0x3c
 .text.appendStringAndDecf
                0x000000009d007000       0x3c build/default/production/_ext/1038083393/printWriter.o
                0x000000009d007000                appendStringAndDecf

.text.initTemperatureStream
                0x000000009d00703c       0x3c
 .text.initTemperatureStream
                0x000000009d00703c       0x3c build/default/production/_ext/1240316727/temperatureStream.o
                0x000000009d00703c                initTemperatureStream

.text.CORETIMER_Initialize
                0x000000009d007078       0x3c
 .text.CORETIMER_Initialize
                0x000000009d007078       0x3c build/default/production/_ext/1249264884/plib_coretimer.o
                0x000000009d007078                CORETIMER_Initialize

.text.CORETIMER_DelayUs
                0x000000009d0070b4       0x3c
 .text.CORETIMER_DelayUs
                0x000000009d0070b4       0x3c build/default/production/_ext/1249264884/plib_coretimer.o
                0x000000009d0070b4                CORETIMER_DelayUs

.text.__vfprintf
                0x000000009d0070f0       0x3c
 .text.__vfprintf
                0x000000009d0070f0       0x3c /opt/microchip/xc32/v4.21/bin/bin/../../lib/gcc/pic32mx/8.3.1/../../../../pic32mx/lib/fpu64/libc-musl.a(__int_vfprintf.o)
                0x000000009d0070f0                __vfprintf

.text.appendCRLF
                0x000000009d00712c       0x38
 .text.appendCRLF
                0x000000009d00712c       0x38 build/default/production/_ext/1038083393/printWriter.o
                0x000000009d00712c                appendCRLF

.text.TMR2_Initialize
                0x000000009d007164       0x38
 .text.TMR2_Initialize
                0x000000009d007164       0x38 build/default/production/_ext/60181895/plib_tmr2.o
                0x000000009d007164                TMR2_Initialize

.text.writeString5
                0x000000009d00719c       0x34
 .text.writeString5
                0x000000009d00719c       0x34 build/default/production/_ext/111410402/serialOutpuStream.o
                0x000000009d00719c                writeString5

.text.UART5_WritePendingBytesGet
                0x000000009d0071d0       0x34
 .text.UART5_WritePendingBytesGet
                0x000000009d0071d0       0x34 build/default/production/_ext/1865657120/plib_uart5.o

.text.UART5_ReadCountGet
                0x000000009d007204       0x34
 .text.UART5_ReadCountGet
                0x000000009d007204       0x34 build/default/production/_ext/1865657120/plib_uart5.o
                0x000000009d007204                UART5_ReadCountGet

.text.append    0x000000009d007238       0x30
 .text.append   0x000000009d007238       0x30 build/default/production/_ext/1038083393/printWriter.o
                0x000000009d007238                append

.text.convertToHex
                0x000000009d007268       0x30
 .text.convertToHex
                0x000000009d007268       0x30 build/default/production/_ext/1038083393/printWriter.o
                0x000000009d007268                convertToHex

.text.initDistanceStream
                0x000000009d007298       0x30
 .text.initDistanceStream
                0x000000009d007298       0x30 build/default/production/_ext/99833024/distanceStream.o
                0x000000009d007298                initDistanceStream

.text.ADCHS_ChannelResultIsReady
                0x000000009d0072c8       0x30
 .text.ADCHS_ChannelResultIsReady
                0x000000009d0072c8       0x30 build/default/production/_ext/1982400153/plib_adchs.o
                0x000000009d0072c8                ADCHS_ChannelResultIsReady

.text.UART5_WriteFreeBufferCountGet
                0x000000009d0072f8       0x30
 .text.UART5_WriteFreeBufferCountGet
                0x000000009d0072f8       0x30 build/default/production/_ext/1865657120/plib_uart5.o
                0x000000009d0072f8                UART5_WriteFreeBufferCountGet

.text.initTemperatureLM75A
                0x000000009d007328       0x30
 .text.initTemperatureLM75A
                0x000000009d007328       0x30 build/default/production/_ext/1367680316/LM75A.o
                0x000000009d007328                initTemperatureLM75A

.text.initClockPCF8563
                0x000000009d007358       0x30
 .text.initClockPCF8563
                0x000000009d007358       0x30 build/default/production/_ext/1098102801/PCF8563.o
                0x000000009d007358                initClockPCF8563

.text._write7SegStreamStringTM1638
                0x000000009d007388       0x2c
 .text._write7SegStreamStringTM1638
                0x000000009d007388       0x2c build/default/production/_ext/1571292264/7segmentsOutputStream.o
                0x000000009d007388                _write7SegStreamStringTM1638

.text.getTemperatureSensor
                0x000000009d0073b4       0x2c
 .text.getTemperatureSensor
                0x000000009d0073b4       0x2c build/default/production/_ext/1240316727/temperatureStream.o
                0x000000009d0073b4                getTemperatureSensor

.text.initTmr1  0x000000009d0073e0       0x2c
 .text.initTmr1
                0x000000009d0073e0       0x2c build/default/production/_ext/79239498/timer1.o
                0x000000009d0073e0                initTmr1

.text.writeUart5
                0x000000009d00740c       0x2c
 .text.writeUart5
                0x000000009d00740c       0x2c build/default/production/_ext/1522154941/uart5.o
                0x000000009d00740c                writeUart5

.text._openOutputStream7Seg
                0x000000009d007438       0x28
 .text._openOutputStream7Seg
                0x000000009d007438       0x28 build/default/production/_ext/1571292264/7segmentsOutputStream.o
                0x000000009d007438                _openOutputStream7Seg

.text._closeOutputStream7Seg
                0x000000009d007460       0x28
 .text._closeOutputStream7Seg
                0x000000009d007460       0x28 build/default/production/_ext/1571292264/7segmentsOutputStream.o
                0x000000009d007460                _closeOutputStream7Seg

.text._write7SegStreamChar
                0x000000009d007488       0x28
 .text._write7SegStreamChar
                0x000000009d007488       0x28 build/default/production/_ext/1571292264/7segmentsOutputStream.o
                0x000000009d007488                _write7SegStreamChar

.text._write7SegStreamString
                0x000000009d0074b0       0x28
 .text._write7SegStreamString
                0x000000009d0074b0       0x28 build/default/production/_ext/1571292264/7segmentsOutputStream.o
                0x000000009d0074b0                _write7SegStreamString

.text.writeChar5
                0x000000009d0074d8       0x28
 .text.writeChar5
                0x000000009d0074d8       0x28 build/default/production/_ext/111410402/serialOutpuStream.o
                0x000000009d0074d8                writeChar5

.text.ADCHS_ChannelConversionStart
                0x000000009d007500       0x28
 .text.ADCHS_ChannelConversionStart
                0x000000009d007500       0x28 build/default/production/_ext/1982400153/plib_adchs.o
                0x000000009d007500                ADCHS_ChannelConversionStart

.text.ICAP1_Initialize
                0x000000009d007528       0x28
 .text.ICAP1_Initialize
                0x000000009d007528       0x28 build/default/production/_ext/1865301019/plib_icap1.o
                0x000000009d007528                ICAP1_Initialize

.text.ICAP2_Initialize
                0x000000009d007550       0x28
 .text.ICAP2_Initialize
                0x000000009d007550       0x28 build/default/production/_ext/1865301019/plib_icap2.o
                0x000000009d007550                ICAP2_Initialize

.text.OCMP3_Initialize
                0x000000009d007578       0x28
 .text.OCMP3_Initialize
                0x000000009d007578       0x28 build/default/production/_ext/1865480137/plib_ocmp3.o
                0x000000009d007578                OCMP3_Initialize

.text.initRGBWS2812b
                0x000000009d0075a0       0x28
 .text.initRGBWS2812b
                0x000000009d0075a0       0x28 build/default/production/_ext/1259047745/WS2812b.o
                0x000000009d0075a0                initRGBWS2812b

.text.main      0x000000009d0075c8       0x28
 .text.main     0x000000009d0075c8       0x28 build/default/production/_ext/1360937237/mainCube.o
                0x000000009d0075c8                main

.text.__wrap_sprintf
                0x000000009d0075f0       0x28
 .text.__wrap_sprintf
                0x000000009d0075f0       0x28 /opt/microchip/xc32/v4.21/bin/bin/../../lib/gcc/pic32mx/8.3.1/../../../../pic32mx/lib/fpu64/libc-musl.a(__sio_sprintf_doux.o)
                0x000000009d0075f0                _dsprintf_cdnopuxX
                0x000000009d0075f0                _sprintf_cdnopuxX

.text.__vsprintf
                0x000000009d007618       0x28
 .text.__vsprintf
                0x000000009d007618       0x28 /opt/microchip/xc32/v4.21/bin/bin/../../lib/gcc/pic32mx/8.3.1/../../../../pic32mx/lib/fpu64/libc-musl.a(__int_vsprintf.o)
                0x000000009d007618                __vsprintf

.rodata.str1.4  0x000000009d007640       0x24
 .rodata.str1.4
                0x000000009d007640       0x24 build/default/production/_ext/1038083393/printWriter.o

.text.initDistanceHCSR04
                0x000000009d007664       0x24
 .text.initDistanceHCSR04
                0x000000009d007664       0x24 build/default/production/_ext/428692892/HC-SR04.o
                0x000000009d007664                initDistanceHCSR04

.text.memset    0x000000009d007688       0x24
 .text.memset   0x000000009d007688       0x24 /opt/microchip/xc32/v4.21/bin/bin/../../lib/gcc/pic32mx/8.3.1/../../../../pic32mx/lib/fpu64/libc-musl.a(memset.o)
                0x000000009d007688                memset

.text.initRGBStream
                0x000000009d0076ac       0x20
 .text.initRGBStream
                0x000000009d0076ac       0x20 build/default/production/_ext/919119933/RGBStream.o
                0x000000009d0076ac                initRGBStream

.text.dinit.startup
                0x000000009d0076cc       0x20
 .text.dinit.startup
                0x000000009d0076cc       0x20 /opt/microchip/xc32/v4.21/bin/bin/../../lib/gcc/pic32mx/8.3.1/../../../../pic32mx/lib/fpu64/libpic32.a(pic32_data_init_wrapper.o)
                0x000000009d0076cc                __pic32_data_init

.text.getClockStream
                0x000000009d0076ec       0x1c
 .text.getClockStream
                0x000000009d0076ec       0x1c build/default/production/_ext/1505855908/clockStream.o
                0x000000009d0076ec                getClockStream

.text.delayMicroSecs
                0x000000009d007708       0x1c
 .text.delayMicroSecs
                0x000000009d007708       0x1c build/default/production/_ext/1506567961/delay.o
                0x000000009d007708                delayMicroSecs

.text.appendSpace
                0x000000009d007724       0x1c
 .text.appendSpace
                0x000000009d007724       0x1c build/default/production/_ext/1038083393/printWriter.o
                0x000000009d007724                appendSpace

.text.println   0x000000009d007740       0x1c
 .text.println  0x000000009d007740       0x1c build/default/production/_ext/1038083393/printWriter.o
                0x000000009d007740                println

.text.appendHex2
                0x000000009d00775c       0x1c
 .text.appendHex2
                0x000000009d00775c       0x1c build/default/production/_ext/1038083393/printWriter.o
                0x000000009d00775c                appendHex2

.text.getDistanceStream
                0x000000009d007778       0x1c
 .text.getDistanceStream
                0x000000009d007778       0x1c build/default/production/_ext/99833024/distanceStream.o
                0x000000009d007778                getDistanceStream

.text.getTemperatureStream
                0x000000009d007794       0x1c
 .text.getTemperatureStream
                0x000000009d007794       0x1c build/default/production/_ext/1240316727/temperatureStream.o
                0x000000009d007794                getTemperatureStream

.rodata.str1.4  0x000000009d0077b0       0x1c
 .rodata.str1.4
                0x000000009d0077b0       0x1c build/default/production/_ext/1240316727/temperature.o

.text.I2C1_CallbackRegister
                0x000000009d0077cc       0x1c
 .text.I2C1_CallbackRegister
                0x000000009d0077cc       0x1c build/default/production/_ext/513455433/plib_i2c1_master.o
                0x000000009d0077cc                I2C1_CallbackRegister

.text.UART5_WriteCountGet
                0x000000009d0077e8       0x1c
 .text.UART5_WriteCountGet
                0x000000009d0077e8       0x1c build/default/production/_ext/1865657120/plib_uart5.o
                0x000000009d0077e8                UART5_WriteCountGet

.text.initSAA1064T
                0x000000009d007804       0x1c
 .text.initSAA1064T
                0x000000009d007804       0x1c build/default/production/_ext/672751358/SAA1064T.o
                0x000000009d007804                initSAA1064T

.text.initTM1638
                0x000000009d007820       0x1c
 .text.initTM1638
                0x000000009d007820       0x1c build/default/production/_ext/780438209/TM1638.o
                0x000000009d007820                initTM1638

.text.tolower   0x000000009d00783c       0x1c
 .text.tolower  0x000000009d00783c       0x1c /opt/microchip/xc32/v4.21/bin/bin/../../lib/gcc/pic32mx/8.3.1/../../../../pic32mx/lib/fpu64/libc-musl.a(tolower.o)
                0x000000009d00783c                tolower

.text.toupper   0x000000009d007858       0x1c
 .text.toupper  0x000000009d007858       0x1c /opt/microchip/xc32/v4.21/bin/bin/../../lib/gcc/pic32mx/8.3.1/../../../../pic32mx/lib/fpu64/libc-musl.a(toupper.o)
                0x000000009d007858                toupper

.MIPS.abiflags  0x000000009d007878       0x18
 .MIPS.abiflags
                0x000000009d007878       0x18 /opt/microchip/xc32/v4.21/bin/bin/../../lib/gcc/pic32mx/8.3.1/../../../../pic32mx/lib/fpu64/debug-exception-return.o

.rodata.str1.4  0x000000009d007890       0x18
 .rodata.str1.4
                0x000000009d007890       0x18 build/default/production/_ext/1571292264/7segmentsOutputStream.o

.text.initDisplayStreamUtils
                0x000000009d0078a8       0x18
 .text.initDisplayStreamUtils
                0x000000009d0078a8       0x18 build/default/production/_ext/529250520/displayUtils.o
                0x000000009d0078a8                initDisplayStreamUtils

.rodata.cst4    0x000000009d0078c0       0x18
 .rodata.cst4   0x000000009d0078c0       0x18 build/default/production/_ext/1038083393/printWriter.o

.text.initFrequencyCounterStreamUtils
                0x000000009d0078d8       0x18
 .text.initFrequencyCounterStreamUtils
                0x000000009d0078d8       0x18 build/default/production/_ext/991344331/frequencyCounterUtils.o
                0x000000009d0078d8                initFrequencyCounterStreamUtils

.text.ADCHS_ChannelResultGet
                0x000000009d0078f0       0x18
 .text.ADCHS_ChannelResultGet
                0x000000009d0078f0       0x18 build/default/production/_ext/1982400153/plib_adchs.o
                0x000000009d0078f0                ADCHS_ChannelResultGet

.text._general_exception_handler
                0x000000009d007908       0x18
 .text._general_exception_handler
                0x000000009d007908       0x18 build/default/production/_ext/1171490990/exceptions.o
                0x000000009d007908                _general_exception_handler

.text._bootstrap_exception_handler
                0x000000009d007920       0x18
 .text._bootstrap_exception_handler
                0x000000009d007920       0x18 build/default/production/_ext/1171490990/exceptions.o
                0x000000009d007920                _bootstrap_exception_handler

.text._cache_err_exception_handler
                0x000000009d007938       0x18
 .text._cache_err_exception_handler
                0x000000009d007938       0x18 build/default/production/_ext/1171490990/exceptions.o
                0x000000009d007938                _cache_err_exception_handler

.text._simple_tlb_refill_exception_handler
                0x000000009d007950       0x18
 .text._simple_tlb_refill_exception_handler
                0x000000009d007950       0x18 build/default/production/_ext/1171490990/exceptions.o
                0x000000009d007950                _simple_tlb_refill_exception_handler

.rodata.cst4    0x000000009d007968       0x18
 .rodata.cst4   0x000000009d007968       0x18 build/default/production/_ext/1019397905/mainCubeMeteo.o

.text           0x000000009d007980       0x18
 .text          0x000000009d007980       0x18 /opt/microchip/xc32/v4.21/bin/bin/../../lib/gcc/pic32mx/8.3.1/../../../../pic32mx/lib/fpu64/libpic32.a(default-nmi-handler.o)
                0x000000009d007980                _nmi_handler

.rodata         0x000000009d007998       0x18
 .rodata        0x000000009d007998       0x18 /opt/microchip/xc32/v4.21/bin/bin/../../lib/gcc/pic32mx/8.3.1/../../../../pic32mx/lib/fpu64/libc-musl.a(__printf_core.o)

.text.get7SegOutpuStream
                0x000000009d0079b0       0x14
 .text.get7SegOutpuStream
                0x000000009d0079b0       0x14 build/default/production/_ext/1571292264/7segmentsOutputStream.o
                0x000000009d0079b0                get7SegOutpuStream

.text.getDisplayStream
                0x000000009d0079c4       0x14
 .text.getDisplayStream
                0x000000009d0079c4       0x14 build/default/production/_ext/529250520/displayUtils.o
                0x000000009d0079c4                getDisplayStream

.text.led2GreenToggle
                0x000000009d0079d8       0x14
 .text.led2GreenToggle
                0x000000009d0079d8       0x14 build/default/production/_ext/919093983/led.o
                0x000000009d0079d8                led2GreenToggle

.text.getRGBStream
                0x000000009d0079ec       0x14
 .text.getRGBStream
                0x000000009d0079ec       0x14 build/default/production/_ext/919119933/RGBStream.o
                0x000000009d0079ec                getRGBStream

.text.getFrequencyCounterStream
                0x000000009d007a00       0x14
 .text.getFrequencyCounterStream
                0x000000009d007a00       0x14 build/default/production/_ext/991344331/frequencyCounterUtils.o
                0x000000009d007a00                getFrequencyCounterStream

.text.getSerialOutputStream
                0x000000009d007a14       0x14
 .text.getSerialOutputStream
                0x000000009d007a14       0x14 build/default/production/_ext/111410402/serialOutpuStream.o
                0x000000009d007a14                getSerialOutputStream

.text.ICAP1_Enable
                0x000000009d007a28       0x14
 .text.ICAP1_Enable
                0x000000009d007a28       0x14 build/default/production/_ext/1865301019/plib_icap1.o
                0x000000009d007a28                ICAP1_Enable

.text.ICAP2_Enable
                0x000000009d007a3c       0x14
 .text.ICAP2_Enable
                0x000000009d007a3c       0x14 build/default/production/_ext/1865301019/plib_icap2.o
                0x000000009d007a3c                ICAP2_Enable

.text.OCMP3_Enable
                0x000000009d007a50       0x14
 .text.OCMP3_Enable
                0x000000009d007a50       0x14 build/default/production/_ext/1865480137/plib_ocmp3.o
                0x000000009d007a50                OCMP3_Enable

.text.TMR2_Start
                0x000000009d007a64       0x14
 .text.TMR2_Start
                0x000000009d007a64       0x14 build/default/production/_ext/60181895/plib_tmr2.o
                0x000000009d007a64                TMR2_Start

.text.TMR4_Start
                0x000000009d007a78       0x14
 .text.TMR4_Start
                0x000000009d007a78       0x14 build/default/production/_ext/60181895/plib_tmr4.o
                0x000000009d007a78                TMR4_Start

.text.TMR1_Start
                0x000000009d007a8c       0x14
 .text.TMR1_Start
                0x000000009d007a8c       0x14 build/default/production/_ext/1865638794/plib_tmr1.o
                0x000000009d007a8c                TMR1_Start

.text.TMR1_InterruptEnable
                0x000000009d007aa0       0x14
 .text.TMR1_InterruptEnable
                0x000000009d007aa0       0x14 build/default/production/_ext/1865638794/plib_tmr1.o
                0x000000009d007aa0                TMR1_InterruptEnable

.text.TMR1_InterruptDisable
                0x000000009d007ab4       0x14
 .text.TMR1_InterruptDisable
                0x000000009d007ab4       0x14 build/default/production/_ext/1865638794/plib_tmr1.o
                0x000000009d007ab4                TMR1_InterruptDisable

.text.UART5_ReadCallbackRegister
                0x000000009d007ac8       0x14
 .text.UART5_ReadCallbackRegister
                0x000000009d007ac8       0x14 build/default/production/_ext/1865657120/plib_uart5.o
                0x000000009d007ac8                UART5_ReadCallbackRegister

.text.UART5_WriteCallbackRegister
                0x000000009d007adc       0x14
 .text.UART5_WriteCallbackRegister
                0x000000009d007adc       0x14 build/default/production/_ext/1865657120/plib_uart5.o
                0x000000009d007adc                UART5_WriteCallbackRegister

.text.tmr1EventHandler
                0x000000009d007af0       0x10
 .text.tmr1EventHandler
                0x000000009d007af0       0x10 build/default/production/_ext/79239498/timer1.o

.text.usartWriteEventHandler
                0x000000009d007b00       0x10
 .text.usartWriteEventHandler
                0x000000009d007b00       0x10 build/default/production/_ext/1522154941/uart5.o
                0x000000009d007b00                usartWriteEventHandler

.text.ICAP1_CaptureBufferRead
                0x000000009d007b10       0x10
 .text.ICAP1_CaptureBufferRead
                0x000000009d007b10       0x10 build/default/production/_ext/1865301019/plib_icap1.o
                0x000000009d007b10                ICAP1_CaptureBufferRead

.text.ICAP1_CaptureStatusGet
                0x000000009d007b20       0x10
 .text.ICAP1_CaptureStatusGet
                0x000000009d007b20       0x10 build/default/production/_ext/1865301019/plib_icap1.o
                0x000000009d007b20                ICAP1_CaptureStatusGet

.text.ICAP2_CaptureBufferRead
                0x000000009d007b30       0x10
 .text.ICAP2_CaptureBufferRead
                0x000000009d007b30       0x10 build/default/production/_ext/1865301019/plib_icap2.o
                0x000000009d007b30                ICAP2_CaptureBufferRead

.text.ICAP2_CaptureStatusGet
                0x000000009d007b40       0x10
 .text.ICAP2_CaptureStatusGet
                0x000000009d007b40       0x10 build/default/production/_ext/1865301019/plib_icap2.o
                0x000000009d007b40                ICAP2_CaptureStatusGet

.text.TMR1_CallbackRegister
                0x000000009d007b50       0x10
 .text.TMR1_CallbackRegister
                0x000000009d007b50       0x10 build/default/production/_ext/1865638794/plib_tmr1.o
                0x000000009d007b50                TMR1_CallbackRegister

.rodata.str1.4  0x000000009d0000f4        0xc
 .rodata.str1.4
                0x000000009d0000f4        0xc build/default/production/_ext/1505855908/clock.o

.text.getIsTmr1Expired
                0x000000009d007b60        0xc
 .text.getIsTmr1Expired
                0x000000009d007b60        0xc build/default/production/_ext/79239498/timer1.o
                0x000000009d007b60                getIsTmr1Expired

.text.setIsTmr1Expired
                0x000000009d007b6c        0xc
 .text.setIsTmr1Expired
                0x000000009d007b6c        0xc build/default/production/_ext/79239498/timer1.o
                0x000000009d007b6c                setIsTmr1Expired

.text.MyI2CCallback
                0x000000009d007b78        0x8
 .text.MyI2CCallback
                0x000000009d007b78        0x8 build/default/production/_ext/1571292264/7segments.o
                0x000000009d007b78                MyI2CCallback

.text._flush7Seg
                0x000000009d007b80        0x8
 .text._flush7Seg
                0x000000009d007b80        0x8 build/default/production/_ext/1571292264/7segmentsOutputStream.o
                0x000000009d007b80                _flush7Seg

.text.setPower  0x000000009d007b88        0x8
 .text.setPower
                0x000000009d007b88        0x8 build/default/production/_ext/529250520/displayUtils.o
                0x000000009d007b88                setPower

.text.setPosX   0x000000009d007b90        0x8
 .text.setPosX  0x000000009d007b90        0x8 build/default/production/_ext/529250520/displayUtils.o
                0x000000009d007b90                setPosX

.text.setIntensity
                0x000000009d007b98        0x8
 .text.setIntensity
                0x000000009d007b98        0x8 build/default/production/_ext/529250520/displayUtils.o
                0x000000009d007b98                setIntensity

.text.initBuffer
                0x000000009d007ba0        0x8
 .text.initBuffer
                0x000000009d007ba0        0x8 build/default/production/_ext/383772639/buffer.o
                0x000000009d007ba0                initBuffer

.text.appendDot
                0x000000009d007ba8        0x8
 .text.appendDot
                0x000000009d007ba8        0x8 build/default/production/_ext/1038083393/printWriter.o
                0x000000009d007ba8                appendDot

.text.flushSerial
                0x000000009d007bb0        0x8
 .text.flushSerial
                0x000000009d007bb0        0x8 build/default/production/_ext/111410402/serialOutpuStream.o
                0x000000009d007bb0                flushSerial

.text.openOutputStreamSerial5
                0x000000009d007bb8        0x8
 .text.openOutputStreamSerial5
                0x000000009d007bb8        0x8 build/default/production/_ext/111410402/serialOutpuStream.o
                0x000000009d007bb8                openOutputStreamSerial5

.text.closeOutputStreamSerial5
                0x000000009d007bc0        0x8
 .text.closeOutputStreamSerial5
                0x000000009d007bc0        0x8 build/default/production/_ext/111410402/serialOutpuStream.o
                0x000000009d007bc0                closeOutputStreamSerial5

.text.setBoardName
                0x000000009d007bc8        0x8
 .text.setBoardName
                0x000000009d007bc8        0x8 build/default/production/_ext/92899495/system.o
                0x000000009d007bc8                setBoardName

.text.getBoardName
                0x000000009d007bd0        0x8
 .text.getBoardName
                0x000000009d007bd0        0x8 build/default/production/_ext/92899495/system.o
                0x000000009d007bd0                getBoardName

.text.setBoardVersion
                0x000000009d007bd8        0x8
 .text.setBoardVersion
                0x000000009d007bd8        0x8 build/default/production/_ext/92899495/system.o
                0x000000009d007bd8                setBoardVersion

.text.getBoardVersion
                0x000000009d007be0        0x8
 .text.getBoardVersion
                0x000000009d007be0        0x8 build/default/production/_ext/92899495/system.o
                0x000000009d007be0                getBoardVersion

.text.initCubeCommon
                0x000000009d007be8        0x8
 .text.initCubeCommon
                0x000000009d007be8        0x8 build/default/production/_ext/1019397905/cubeCommon.o
                0x000000009d007be8                initCubeCommon

.text._on_reset
                0x000000009d007bf0        0x8
 .text._on_reset
                0x000000009d007bf0        0x8 /opt/microchip/xc32/v4.21/bin/bin/../../lib/gcc/pic32mx/8.3.1/../../../../pic32mx/lib/fpu64/libpic32.a(default-on-reset.o)
                0x000000009d007bf0                _on_reset

.text._on_bootstrap
                0x000000009d007bf8        0x8
 .text._on_bootstrap
                0x000000009d007bf8        0x8 /opt/microchip/xc32/v4.21/bin/bin/../../lib/gcc/pic32mx/8.3.1/../../../../pic32mx/lib/fpu64/libpic32.a(default-on-bootstrap.o)
                0x000000009d007bf8                _on_bootstrap

.text.__dummy_fmt4
                0x000000009d007c00        0x8
 .text.__dummy_fmt4
                0x000000009d007c00        0x8 /opt/microchip/xc32/v4.21/bin/bin/../../lib/gcc/pic32mx/8.3.1/../../../../pic32mx/lib/fpu64/libc-musl.a(__printf_core.o)
                0x000000009d007c00                __fmt_a
                0x000000009d007c00                __fmt_fp

.rodata.str1.4  0x000000009d007c08        0x8
 .rodata.str1.4
                0x000000009d007c08        0x8 /opt/microchip/xc32/v4.21/bin/bin/../../lib/gcc/pic32mx/8.3.1/../../../../pic32mx/lib/fpu64/libc-musl.a(__printf_core.o)

.rodata.str1.4  0x000000009d0001fc        0x4
 .rodata.str1.4
                0x000000009d0001fc        0x4 build/default/production/_ext/111410402/serialOutpuStream.o
