Archive member included because of file (symbol)

/opt/microchip/xc32/v2.50/bin/bin/../../lib/gcc/pic32mx/4.8.3/../../../../pic32mx/lib/fpu64/libpic32.a(memcpy.o)
                              build/default/production/_ext/383772639/buffer.o (memcpy)
/opt/microchip/xc32/v2.50/bin/bin/../../lib/gcc/pic32mx/4.8.3/../../../../pic32mx/lib/fpu64/libpic32.a(strlen.o)
                              build/default/production/_ext/383772639/buffer.o (strlen)
/opt/microchip/xc32/v2.50/bin/bin/../../lib/gcc/pic32mx/4.8.3/../../../../pic32mx/lib/fpu64/libpic32.a(default-on-reset.o)
                              /tmp/ccB6g2BR.o (_on_reset)
/opt/microchip/xc32/v2.50/bin/bin/../../lib/gcc/pic32mx/4.8.3/../../../../pic32mx/lib/fpu64/libpic32.a(default-on-bootstrap.o)
                              /tmp/ccB6g2BR.o (_on_bootstrap)
/opt/microchip/xc32/v2.50/bin/bin/../../lib/gcc/pic32mx/4.8.3/../../../../pic32mx/lib/fpu64/libpic32.a(default-nmi-handler.o)
                              /tmp/ccB6g2BR.o (_nmi_handler)
/opt/microchip/xc32/v2.50/bin/bin/../../lib/gcc/pic32mx/4.8.3/../../../../pic32mx/lib/fpu64/libpic32.a(pic32_data_init.o)
                              /tmp/ccB6g2BR.o (__pic32_data_init)
/opt/microchip/xc32/v2.50/bin/bin/../../lib/gcc/pic32mx/4.8.3/../../../../pic32mx/lib/fpu64/libpic32.a(pic32_init_cache.o)
                              /tmp/ccB6g2BR.o (__pic32_init_cache)
/opt/microchip/xc32/v2.50/bin/bin/../../lib/gcc/pic32mx/4.8.3/../../../../pic32mx/lib/fpu64/libpic32.a(pic32_init_tlb_ebi_sqi.o)
                              /tmp/ccB6g2BR.o (__pic32_tlb_init_ebi_sqi)
/opt/microchip/xc32/v2.50/bin/bin/../../lib/gcc/pic32mx/4.8.3/../../../../pic32mx/lib/fpu64/libpic32.a(general-exception.o)
                              /tmp/ccB6g2BR.o (_general_exception_context)
/opt/microchip/xc32/v2.50/bin/bin/../../lib/gcc/pic32mx/4.8.3/../../../../pic32mx/lib/fpu64/libpic32.a(cache-err-exception.o)
                              /tmp/ccB6g2BR.o (_cache_err_exception_context)
/opt/microchip/xc32/v2.50/bin/bin/../../lib/gcc/pic32mx/4.8.3/../../../../pic32mx/lib/fpu64/libpic32.a(simple-tlb-refill-exception.o)
                              /tmp/ccB6g2BR.o (_simple_tlb_refill_exception_context)
/opt/microchip/xc32/v2.50/bin/bin/../../lib/gcc/pic32mx/4.8.3/../../../../pic32mx/lib/fpu64/libpic32.a(defaultinterrupt.o)
                              /tmp/ccmuyaSR.o (_DefaultInterrupt)
/opt/microchip/xc32/v2.50/bin/bin/../../lib/gcc/pic32mx/4.8.3/../../../../pic32mx/lib/fpu64/libc.a(sprintf_cdnopuxX.eo)
                              build/default/production/_ext/1240316727/temperature.o (_sprintf_cdnopuxX)
/opt/microchip/xc32/v2.50/bin/bin/../../lib/gcc/pic32mx/4.8.3/../../../../pic32mx/lib/fpu64/libc.a(doprnt_cdnopuxX.eo)
                              /opt/microchip/xc32/v2.50/bin/bin/../../lib/gcc/pic32mx/4.8.3/../../../../pic32mx/lib/fpu64/libc.a(sprintf_cdnopuxX.eo) (_vfprintf_cdnopuxX)
/opt/microchip/xc32/v2.50/bin/bin/../../lib/gcc/pic32mx/4.8.3/../../../../pic32mx/lib/fpu64/libc.a(_fputc_simple.o)
                              /opt/microchip/xc32/v2.50/bin/bin/../../lib/gcc/pic32mx/4.8.3/../../../../pic32mx/lib/fpu64/libc.a(doprnt_cdnopuxX.eo) (fputc)
/opt/microchip/xc32/v2.50/bin/bin/../../lib/gcc/pic32mx/4.8.3/../../../../pic32mx/lib/fpu64/libc.a(ctype.o)
                              /opt/microchip/xc32/v2.50/bin/bin/../../lib/gcc/pic32mx/4.8.3/../../../../pic32mx/lib/fpu64/libc.a(doprnt_cdnopuxX.eo) (_ctype)
/opt/microchip/xc32/v2.50/bin/bin/../../lib/gcc/pic32mx/4.8.3/../../../../pic32mx/lib/fpu64/libc.a(_iob.o)
                              /opt/microchip/xc32/v2.50/bin/bin/../../lib/gcc/pic32mx/4.8.3/../../../../pic32mx/lib/fpu64/libc.a(_fputc_simple.o) (_outdone)
/opt/microchip/xc32/v2.50/bin/bin/../../lib/gcc/pic32mx/4.8.3/../../../../pic32mx/lib/fpu64/libc.a(_flsbuf_simple.o)
                              /opt/microchip/xc32/v2.50/bin/bin/../../lib/gcc/pic32mx/4.8.3/../../../../pic32mx/lib/fpu64/libc.a(_fputc_simple.o) (_flsbuf)
/opt/microchip/xc32/v2.50/bin/bin/../../lib/gcc/pic32mx/4.8.3/fpu64/libgcc.a(_udivdi3.o)
                              /opt/microchip/xc32/v2.50/bin/bin/../../lib/gcc/pic32mx/4.8.3/../../../../pic32mx/lib/fpu64/libc.a(doprnt_cdnopuxX.eo) (__udivdi3)
/opt/microchip/xc32/v2.50/bin/bin/../../lib/gcc/pic32mx/4.8.3/fpu64/libgcc.a(_umoddi3.o)
                              /opt/microchip/xc32/v2.50/bin/bin/../../lib/gcc/pic32mx/4.8.3/../../../../pic32mx/lib/fpu64/libc.a(doprnt_cdnopuxX.eo) (__umoddi3)
/opt/microchip/xc32/v2.50/bin/bin/../../lib/gcc/pic32mx/4.8.3/../../../../pic32mx/lib/fpu64/libpic32.a(write.o)
                              /opt/microchip/xc32/v2.50/bin/bin/../../lib/gcc/pic32mx/4.8.3/../../../../pic32mx/lib/fpu64/libc.a(_fputc_simple.o) (write)

Allocating common symbols
Common symbol       size              file

uart5Obj            0x34              build/default/production/_ext/1865657120/plib_uart5.o
uart2Obj            0x34              build/default/production/_ext/1865657120/plib_uart2.o

Microchip PIC32 Memory-Usage Report

kseg0 Program-Memory Usage
section                    address  length [bytes]      (dec)  Description
-------                 ----------  -------------------------  -----------
.simple_tlb_refill_excp 0x9d000000           0x10          16   
.text.general_exception 0x9d000010           0xdc         220   
.text.led1RedOn         0x9d0000ec           0x14          20   
.cache_err_excpt        0x9d000100           0x10          16   
.text.EVIC_Initialize   0x9d000110           0x70         112   
.app_excpt              0x9d000180           0x10          16  General-Exception 
.text.writeOutputStream 0x9d000190           0x68         104   
.text.MyI2CCallback     0x9d0001f8            0x8           8   
.vectors                0x9d000200           0x90         144   
.text._vfprintf_cdnopux 0x9d000290          0xc8c        3212   
.dinit                  0x9d000f1c          0x580        1408   
.text.I2C1_MASTER_Inter 0x9d00149c          0x4c0        1216   
.text                   0x9d00195c          0x8bc        2236  App's exec code 
.text.mainCube          0x9d002218          0x238         568   
.text.TIMER_1_Handler   0x9d002450          0x1a0         416   
.text.I2C1_BUS_Handler  0x9d0025f0          0x1a0         416   
.text.I2C1_MASTER_Handl 0x9d002790          0x1a0         416   
.text.UART2_FAULT_Handl 0x9d002930          0x1a0         416   
.text.UART2_RX_Handler  0x9d002ad0          0x1a0         416   
.text.UART2_TX_Handler  0x9d002c70          0x1a0         416   
.text.UART5_FAULT_Handl 0x9d002e10          0x1a0         416   
.text.UART5_RX_Handler  0x9d002fb0          0x1a0         416   
.text.UART5_TX_Handler  0x9d003150          0x1a0         416   
.text                   0x9d0032f0          0x2d0         720  App's exec code 
.text.fputc             0x9d0035c0          0x144         324   
.text._flsbuf           0x9d003704          0x12c         300   
.rodata                 0x9d003830          0x204         516  Read-only const 
.text.UART2_RX_Interrup 0x9d003a34          0x100         256   
.text.UART5_RX_Interrup 0x9d003b34          0x100         256   
.text.UART2_TX_Interrup 0x9d003c34           0xfc         252   
.text.UART5_TX_Interrup 0x9d003d30           0xfc         252   
.text._cache_err_except 0x9d003e2c           0xd8         216   
.text.simple_tlb_refill 0x9d003f04           0xd8         216   
.rodata                 0x9d003fe0           0xd0         208  Read-only const 
.text.UART5_Write       0x9d0040b0           0xcc         204   
.tlb.__pic32_tlb_init_e 0x9d00417c           0xbc         188   
.text.GPIO_Initialize   0x9d004238           0xa0         160   
.text.write             0x9d0042d8           0x9c         156   
.text.SYS_Initialize    0x9d004374           0x98         152   
.text.print7Seg         0x9d00440c           0x94         148   
.text.CLK_Initialize    0x9d0044a0           0x94         148   
.text.initMainCube      0x9d004534           0x94         148   
.text.initLed           0x9d0045c8           0x88         136   
.text.I2C1_WriteRead    0x9d004650           0x88         136   
.text.UART2_Initialize  0x9d0046d8           0x88         136   
.text.UART5_Initialize  0x9d004760           0x88         136   
.text.I2C1_Write        0x9d0047e8           0x84         132   
.text.UART5_Read        0x9d00486c           0x84         132   
.text                   0x9d0048f0           0x84         132  App's exec code 
.text.UART2_ErrorClear  0x9d004974           0x78         120   
.text.UART5_ErrorClear  0x9d0049ec           0x78         120   
.text._sprintf_cdnopuxX 0x9d004a64           0x68         104   
.text.init7SegOutputStr 0x9d004acc           0x64         100   
.text.I2C1_Initialize   0x9d004b30           0x64         100   
.text.UART2_FAULT_Inter 0x9d004b94           0x64         100   
.text.UART5_FAULT_Inter 0x9d004bf8           0x64         100   
.text.writeStringToBuff 0x9d004c5c           0x60          96   
.text.initUart5         0x9d004cbc           0x60          96   
.text.I2C1_BUS_Interrup 0x9d004d1c           0x5c          92   
.text._LM75A_readSensor 0x9d004d78           0x54          84   
.text.main_entry        0x9d004dcc           0x54          84   
.text.I2C1_IsBusy       0x9d004e20           0x50          80   
.text.initCubeCommon    0x9d004e70           0x50          80   
.text._LM75A_writeAlert 0x9d004ec0           0x50          80   
.text.SAA1064Twrite4DIG 0x9d004f10           0x50          80   
.text.readSensorValueAs 0x9d004f60           0x4c          76   
.text.appendString      0x9d004fac           0x44          68   
.text                   0x9d004ff0           0x44          68  App's exec code 
.text.TMR1_Initialize   0x9d005034           0x40          64   
.text.TIMER_1_Interrupt 0x9d005074           0x40          64   
.text.CORETIMER_Initial 0x9d0050b4           0x3c          60   
.text.APP_ReadCallbackU 0x9d0050f0           0x30          48   
.text.TMR2_Initialize   0x9d005120           0x30          48   
.text.initTmr1          0x9d005150           0x2c          44   
.text.initTemperatureLM 0x9d00517c           0x2c          44   
.text._openOutputStream 0x9d0051a8           0x28          40   
.text._closeOutputStrea 0x9d0051d0           0x28          40   
.text._write7SegStreamC 0x9d0051f8           0x28          40   
.text._write7SegStreamS 0x9d005220           0x28          40   
.text.main              0x9d005248           0x28          40   
.text._general_exceptio 0x9d005270           0x24          36   
.text._bootstrap_except 0x9d005294           0x24          36   
.text._cache_err_except 0x9d0052b8           0x24          36   
.text._simple_tlb_refil 0x9d0052dc           0x24          36   
.text.appendStream      0x9d005300           0x1c          28   
.text.initTemperatureSt 0x9d00531c           0x1c          28   
.text.writeUart5        0x9d005338           0x1c          28   
.text.I2C1_CallbackRegi 0x9d005354           0x1c          28   
.text.writeCharToBuffer 0x9d005370           0x18          24   
.text.UART5_ErrorGet    0x9d005388           0x18          24   
.rodata                 0x9d0053a0           0x18          24  Read-only const 
.text                   0x9d0053b8           0x18          24  App's exec code 
.text.led1RedOff        0x9d0053d0           0x14          20   
.text.led2GreenOn       0x9d0053e4           0x14          20   
.text.led2GreenOff      0x9d0053f8           0x14          20   
.text.getTemperatureStr 0x9d00540c           0x14          20   
.text.TMR1_Start        0x9d005420           0x14          20   
.text.UART5_ReadCallbac 0x9d005434           0x14          20   
.text.UART5_WriteCallba 0x9d005448           0x14          20   
.rodata                 0x9d00545c           0x10          16  Read-only const 
.text.tmr1EventHandler  0x9d00546c           0x10          16   
.text.get7SegOutpuStrea 0x9d00547c            0xc          12   
.text.getDebugOutputStr 0x9d005488            0xc          12   
.rodata                 0x9d005494            0xc          12  Read-only const 
.text.getIsTmr1Expired  0x9d0054a0            0xc          12   
.text.setIsTmr1Expired  0x9d0054ac            0xc          12   
.text.APP_WriteCallback 0x9d0054b8            0xc          12   
.text.getTxBuffer       0x9d0054c4            0xc          12   
.text.TMR1_CallbackRegi 0x9d0054d0            0xc          12   
.text._flush7Seg        0x9d0054dc            0x8           8   
.text.initBuffer        0x9d0054e4            0x8           8   
.text.flushBuffer       0x9d0054ec            0x8           8   
.text.initDebugOutputSt 0x9d0054f4            0x8           8   
.text.appendDot         0x9d0054fc            0x8           8   
.text.setBoardName      0x9d005504            0x8           8   
.text.getBoardName      0x9d00550c            0x8           8   
.text.getErrorStatusUar 0x9d005514            0x8           8   
.text.setErrorStatusUar 0x9d00551c            0x8           8   
.text.getWriteStatusUar 0x9d005524            0x8           8   
.text.setWriteStatusUar 0x9d00552c            0x8           8   
.text.getReadStatusUart 0x9d005534            0x8           8   
.text.setReadStatusUart 0x9d00553c            0x8           8   
.text._mon_putc         0x9d005544            0x8           8   
.text._on_reset         0x9d00554c            0x8           8   
.text._on_bootstrap     0x9d005554            0x8           8   
      Total kseg0_program_mem used  :      0x5558       21848  1.0% of 0x200000

kseg0 Boot-Memory Usage
section                    address  length [bytes]      (dec)  Description
-------                 ----------  -------------------------  -----------
         Total kseg0_boot_mem used  :           0           0  

kseg1 Boot-Memory Usage
section                    address  length [bytes]      (dec)  Description
-------                 ----------  -------------------------  -----------
.reset                  0xbfc00000          0x1b4         436  Reset handler 
.bev_excpt              0xbfc00380           0x10          16  BEV-Exception 
         Total kseg1_boot_mem used  :       0x1c4         452  39.2% of 0x480
        --------------------------------------------------------------------------
         Total Program Memory used  :      0x571c       22300  1.1% of 0x200480
        --------------------------------------------------------------------------


kseg0 Data-Memory Usage
section                    address  length [bytes]      (dec)  Description
-------                 ----------  -------------------------  -----------
.sdata                  0x80000000           0x30          48  Small init data 
.sbss                   0x80000030           0x30          48  Small uninit data 
.bss                    0x80000060           0x68         104  Uninitialized data 
.data                   0x800000c8           0xc8         200  Initialized data 
.bss                    0x80000190           0xa4         164  Uninitialized data 
.bss                    0x80000234           0x58          88  Uninitialized data 
.bss                    0x8000028c           0x2c          44  Uninitialized data 
.bss                    0x800002b8            0xc          12  Uninitialized data 
         Total kseg0_data_mem used  :       0x2c4         708  0.1% of 0x80000
        --------------------------------------------------------------------------
            Total Data Memory used  :       0x2c4         708  0.1% of 0x80000
        --------------------------------------------------------------------------


Dynamic Data-Memory Reservation
section                    address  length [bytes]      (dec)  Description
-------                 ----------  -------------------------  -----------
heap                    0x800002c8          0x200         512  Reserved for heap 
stack                   0x800004e0        0x7fb10      523024  Reserved for stack 

        --------------------------------------------------------------------------

Discarded input sections

 .text          0x00000000        0x0 /opt/microchip/xc32/v2.50/bin/bin/../../lib/gcc/pic32mx/4.8.3/../../../../pic32mx/lib/fpu64/debug-exception-return.o
 .data          0x00000000        0x0 /opt/microchip/xc32/v2.50/bin/bin/../../lib/gcc/pic32mx/4.8.3/../../../../pic32mx/lib/fpu64/debug-exception-return.o
 .bss           0x00000000        0x0 /opt/microchip/xc32/v2.50/bin/bin/../../lib/gcc/pic32mx/4.8.3/../../../../pic32mx/lib/fpu64/debug-exception-return.o
 .text          0x00000000        0x0 build/default/production/_ext/1571292264/7segments.o
 .data          0x00000000        0x0 build/default/production/_ext/1571292264/7segments.o
 .bss           0x00000000        0x0 build/default/production/_ext/1571292264/7segments.o
 .reginfo       0x00000000       0x18 build/default/production/_ext/1571292264/7segments.o
 .text          0x00000000        0x0 build/default/production/_ext/1571292264/7segmentsOutputStream.o
 .data          0x00000000        0x0 build/default/production/_ext/1571292264/7segmentsOutputStream.o
 .reginfo       0x00000000       0x18 build/default/production/_ext/1571292264/7segmentsOutputStream.o
 .text          0x00000000        0x0 build/default/production/_ext/1506567961/delay.o
 .data          0x00000000        0x0 build/default/production/_ext/1506567961/delay.o
 .bss           0x00000000        0x0 build/default/production/_ext/1506567961/delay.o
 .reginfo       0x00000000       0x18 build/default/production/_ext/1506567961/delay.o
 .text.delayMicroSecs
                0x00000000       0x1c build/default/production/_ext/1506567961/delay.o
 .text.delayMilliSecs
                0x00000000       0x1c build/default/production/_ext/1506567961/delay.o
 .text          0x00000000        0x0 build/default/production/_ext/1507884958/error.o
 .data          0x00000000        0x0 build/default/production/_ext/1507884958/error.o
 .bss           0x00000000        0x0 build/default/production/_ext/1507884958/error.o
 .reginfo       0x00000000       0x18 build/default/production/_ext/1507884958/error.o
 .text          0x00000000        0x0 build/default/production/_ext/383772639/buffer.o
 .data          0x00000000        0x0 build/default/production/_ext/383772639/buffer.o
 .bss           0x00000000        0x0 build/default/production/_ext/383772639/buffer.o
 .reginfo       0x00000000       0x18 build/default/production/_ext/383772639/buffer.o
 .text.readStringFromBuffer
                0x00000000        0x8 build/default/production/_ext/383772639/buffer.o
 .text.readCharFromBuffer
                0x00000000        0x8 build/default/production/_ext/383772639/buffer.o
 .text          0x00000000        0x0 build/default/production/_ext/242462784/outputStream.o
 .data          0x00000000        0x0 build/default/production/_ext/242462784/outputStream.o
 .reginfo       0x00000000       0x18 build/default/production/_ext/242462784/outputStream.o
 .text.initOutputStream
                0x00000000       0x28 build/default/production/_ext/242462784/outputStream.o
 .text          0x00000000        0x0 build/default/production/_ext/1038083393/printWriter.o
 .data          0x00000000        0x0 build/default/production/_ext/1038083393/printWriter.o
 .bss           0x00000000        0x0 build/default/production/_ext/1038083393/printWriter.o
 .reginfo       0x00000000       0x18 build/default/production/_ext/1038083393/printWriter.o
 .text.append   0x00000000       0x2c build/default/production/_ext/1038083393/printWriter.o
 .text          0x00000000        0x0 build/default/production/_ext/919093983/led.o
 .data          0x00000000        0x0 build/default/production/_ext/919093983/led.o
 .bss           0x00000000        0x0 build/default/production/_ext/919093983/led.o
 .reginfo       0x00000000       0x18 build/default/production/_ext/919093983/led.o
 .text.led1RedStatus
                0x00000000       0x14 build/default/production/_ext/919093983/led.o
 .text.led1RedToggle
                0x00000000       0x14 build/default/production/_ext/919093983/led.o
 .text.led1GreenStatus
                0x00000000       0x14 build/default/production/_ext/919093983/led.o
 .text.led1GreenOn
                0x00000000       0x14 build/default/production/_ext/919093983/led.o
 .text.led1GreenOff
                0x00000000       0x14 build/default/production/_ext/919093983/led.o
 .text.led1GreenToggle
                0x00000000       0x14 build/default/production/_ext/919093983/led.o
 .text.led2RedStatus
                0x00000000       0x14 build/default/production/_ext/919093983/led.o
 .text.led2RedOn
                0x00000000       0x14 build/default/production/_ext/919093983/led.o
 .text.led2RedOff
                0x00000000       0x14 build/default/production/_ext/919093983/led.o
 .text.led2RedToggle
                0x00000000       0x14 build/default/production/_ext/919093983/led.o
 .text.led2GreenStatus
                0x00000000       0x14 build/default/production/_ext/919093983/led.o
 .text.led2GreenToggle
                0x00000000       0x14 build/default/production/_ext/919093983/led.o
 .text          0x00000000        0x0 build/default/production/_ext/1240316727/temperatureStream.o
 .data          0x00000000        0x0 build/default/production/_ext/1240316727/temperatureStream.o
 .reginfo       0x00000000       0x18 build/default/production/_ext/1240316727/temperatureStream.o
 .text          0x00000000        0x0 build/default/production/_ext/1240316727/temperature.o
 .data          0x00000000        0x0 build/default/production/_ext/1240316727/temperature.o
 .bss           0x00000000        0x0 build/default/production/_ext/1240316727/temperature.o
 .reginfo       0x00000000       0x18 build/default/production/_ext/1240316727/temperature.o
 .text          0x00000000        0x0 build/default/production/_ext/92899495/system.o
 .data          0x00000000        0x0 build/default/production/_ext/92899495/system.o
 .bss           0x00000000        0x0 build/default/production/_ext/92899495/system.o
 .reginfo       0x00000000       0x18 build/default/production/_ext/92899495/system.o
 .text          0x00000000        0x0 build/default/production/_ext/79239498/timer1.o
 .data          0x00000000        0x0 build/default/production/_ext/79239498/timer1.o
 .bss           0x00000000        0x0 build/default/production/_ext/79239498/timer1.o
 .reginfo       0x00000000       0x18 build/default/production/_ext/79239498/timer1.o
 .text          0x00000000        0x0 build/default/production/_ext/1522154941/uart5.o
 .data          0x00000000        0x0 build/default/production/_ext/1522154941/uart5.o
 .reginfo       0x00000000       0x18 build/default/production/_ext/1522154941/uart5.o
 .text          0x00000000        0x0 build/default/production/_ext/1984157808/plib_cache.o
 .data          0x00000000        0x0 build/default/production/_ext/1984157808/plib_cache.o
 .bss           0x00000000        0x0 build/default/production/_ext/1984157808/plib_cache.o
 .reginfo       0x00000000       0x18 build/default/production/_ext/1984157808/plib_cache.o
 .text.CACHE_CacheInit
                0x00000000       0x24 build/default/production/_ext/1984157808/plib_cache.o
 .text.CACHE_CacheFlush
                0x00000000       0x24 build/default/production/_ext/1984157808/plib_cache.o
 .text.CACHE_DataCacheFlush
                0x00000000       0x24 build/default/production/_ext/1984157808/plib_cache.o
 .text.CACHE_InstructionCacheFlush
                0x00000000       0x24 build/default/production/_ext/1984157808/plib_cache.o
 .text.CACHE_CacheClean
                0x00000000       0x24 build/default/production/_ext/1984157808/plib_cache.o
 .text.CACHE_DataCacheClean
                0x00000000       0x24 build/default/production/_ext/1984157808/plib_cache.o
 .text.CACHE_DataCacheInvalidate
                0x00000000       0x24 build/default/production/_ext/1984157808/plib_cache.o
 .text.CACHE_InstructionCacheInvalidate
                0x00000000       0x24 build/default/production/_ext/1984157808/plib_cache.o
 .text.CACHE_InstructionCacheLock
                0x00000000       0x24 build/default/production/_ext/1984157808/plib_cache.o
 .text.CACHE_DataCacheLock
                0x00000000       0x24 build/default/production/_ext/1984157808/plib_cache.o
 .text.CACHE_CacheSync
                0x00000000       0x24 build/default/production/_ext/1984157808/plib_cache.o
 .text.CACHE_CacheCoherencySet
                0x00000000       0x28 build/default/production/_ext/1984157808/plib_cache.o
 .text.CACHE_CacheCoherencyGet
                0x00000000       0x1c build/default/production/_ext/1984157808/plib_cache.o
 .text.CACHE_DataCacheAssociativityGet
                0x00000000       0x24 build/default/production/_ext/1984157808/plib_cache.o
 .text.CACHE_InstructionCacheAssociativityGet
                0x00000000       0x24 build/default/production/_ext/1984157808/plib_cache.o
 .text.CACHE_DataCacheLineSizeGet
                0x00000000       0x24 build/default/production/_ext/1984157808/plib_cache.o
 .text.CACHE_InstructionCacheLineSizeGet
                0x00000000       0x24 build/default/production/_ext/1984157808/plib_cache.o
 .text.CACHE_DataCacheLinesPerWayGet
                0x00000000       0x24 build/default/production/_ext/1984157808/plib_cache.o
 .text.CACHE_InstructionCacheLinesPerWayGet
                0x00000000       0x24 build/default/production/_ext/1984157808/plib_cache.o
 .text.CACHE_DataCacheSizeGet
                0x00000000       0x24 build/default/production/_ext/1984157808/plib_cache.o
 .text.CACHE_InstructionCacheSizeGet
                0x00000000       0x24 build/default/production/_ext/1984157808/plib_cache.o
 .text          0x00000000      0x6bc build/default/production/_ext/1984157808/plib_cache_pic32mz.o
 .data          0x00000000        0x0 build/default/production/_ext/1984157808/plib_cache_pic32mz.o
 .bss           0x00000000        0x0 build/default/production/_ext/1984157808/plib_cache_pic32mz.o
 .reginfo       0x00000000       0x18 build/default/production/_ext/1984157808/plib_cache_pic32mz.o
 .debug_line    0x00000000      0x208 build/default/production/_ext/1984157808/plib_cache_pic32mz.o
 .debug_info    0x00000000       0xb3 build/default/production/_ext/1984157808/plib_cache_pic32mz.o
 .debug_abbrev  0x00000000       0x14 build/default/production/_ext/1984157808/plib_cache_pic32mz.o
 .debug_aranges
                0x00000000       0x20 build/default/production/_ext/1984157808/plib_cache_pic32mz.o
 .text          0x00000000        0x0 build/default/production/_ext/60165520/plib_clk.o
 .data          0x00000000        0x0 build/default/production/_ext/60165520/plib_clk.o
 .bss           0x00000000        0x0 build/default/production/_ext/60165520/plib_clk.o
 .reginfo       0x00000000       0x18 build/default/production/_ext/60165520/plib_clk.o
 .text          0x00000000        0x0 build/default/production/_ext/1249264884/plib_coretimer.o
 .data          0x00000000        0x0 build/default/production/_ext/1249264884/plib_coretimer.o
 .bss           0x00000000        0x0 build/default/production/_ext/1249264884/plib_coretimer.o
 .reginfo       0x00000000       0x18 build/default/production/_ext/1249264884/plib_coretimer.o
 .text.CORETIMER_Start
                0x00000000       0x5c build/default/production/_ext/1249264884/plib_coretimer.o
 .text.CORETIMER_Stop
                0x00000000       0x28 build/default/production/_ext/1249264884/plib_coretimer.o
 .text.CORETIMER_FrequencyGet
                0x00000000        0xc build/default/production/_ext/1249264884/plib_coretimer.o
 .text.CORETIMER_CompareSet
                0x00000000       0x20 build/default/production/_ext/1249264884/plib_coretimer.o
 .text.CORETIMER_CounterGet
                0x00000000       0x18 build/default/production/_ext/1249264884/plib_coretimer.o
 .text.CORETIMER_CompareHasExpired
                0x00000000       0x2c build/default/production/_ext/1249264884/plib_coretimer.o
 .text.CORETIMER_DelayMs
                0x00000000       0x4c build/default/production/_ext/1249264884/plib_coretimer.o
 .text.CORETIMER_DelayUs
                0x00000000       0x3c build/default/production/_ext/1249264884/plib_coretimer.o
 .text          0x00000000        0x0 build/default/production/_ext/1865200349/plib_evic.o
 .data          0x00000000        0x0 build/default/production/_ext/1865200349/plib_evic.o
 .bss           0x00000000        0x0 build/default/production/_ext/1865200349/plib_evic.o
 .reginfo       0x00000000       0x18 build/default/production/_ext/1865200349/plib_evic.o
 .text.EVIC_SourceEnable
                0x00000000       0x28 build/default/production/_ext/1865200349/plib_evic.o
 .text.EVIC_SourceDisable
                0x00000000       0x28 build/default/production/_ext/1865200349/plib_evic.o
 .text.EVIC_SourceIsEnabled
                0x00000000       0x20 build/default/production/_ext/1865200349/plib_evic.o
 .text.EVIC_SourceStatusGet
                0x00000000       0x20 build/default/production/_ext/1865200349/plib_evic.o
 .text.EVIC_SourceStatusSet
                0x00000000       0x28 build/default/production/_ext/1865200349/plib_evic.o
 .text.EVIC_SourceStatusClear
                0x00000000       0x28 build/default/production/_ext/1865200349/plib_evic.o
 .text.EVIC_INT_Enable
                0x00000000       0x18 build/default/production/_ext/1865200349/plib_evic.o
 .text.EVIC_INT_Disable
                0x00000000       0x20 build/default/production/_ext/1865200349/plib_evic.o
 .text.EVIC_INT_Restore
                0x00000000       0x24 build/default/production/_ext/1865200349/plib_evic.o
 .text          0x00000000        0x0 build/default/production/_ext/1865254177/plib_gpio.o
 .data          0x00000000        0x0 build/default/production/_ext/1865254177/plib_gpio.o
 .bss           0x00000000        0x0 build/default/production/_ext/1865254177/plib_gpio.o
 .reginfo       0x00000000       0x18 build/default/production/_ext/1865254177/plib_gpio.o
 .text.GPIO_PortRead
                0x00000000       0x18 build/default/production/_ext/1865254177/plib_gpio.o
 .text.GPIO_PortWrite
                0x00000000       0x30 build/default/production/_ext/1865254177/plib_gpio.o
 .text.GPIO_PortLatchRead
                0x00000000       0x18 build/default/production/_ext/1865254177/plib_gpio.o
 .text.GPIO_PortSet
                0x00000000       0x1c build/default/production/_ext/1865254177/plib_gpio.o
 .text.GPIO_PortClear
                0x00000000       0x1c build/default/production/_ext/1865254177/plib_gpio.o
 .text.GPIO_PortToggle
                0x00000000       0x1c build/default/production/_ext/1865254177/plib_gpio.o
 .text.GPIO_PortInputEnable
                0x00000000       0x1c build/default/production/_ext/1865254177/plib_gpio.o
 .text.GPIO_PortOutputEnable
                0x00000000       0x1c build/default/production/_ext/1865254177/plib_gpio.o
 .text          0x00000000        0x0 build/default/production/_ext/513455433/plib_i2c1_master.o
 .data          0x00000000        0x0 build/default/production/_ext/513455433/plib_i2c1_master.o
 .reginfo       0x00000000       0x18 build/default/production/_ext/513455433/plib_i2c1_master.o
 .text.I2C1_Read
                0x00000000       0x84 build/default/production/_ext/513455433/plib_i2c1_master.o
 .text.I2C1_ErrorGet
                0x00000000       0x14 build/default/production/_ext/513455433/plib_i2c1_master.o
 .text.I2C1_TransferSetup
                0x00000000      0x108 build/default/production/_ext/513455433/plib_i2c1_master.o
 .rodata        0x00000000       0x20 build/default/production/_ext/513455433/plib_i2c1_master.o
 .text          0x00000000        0x0 build/default/production/_ext/60181895/plib_tmr2.o
 .data          0x00000000        0x0 build/default/production/_ext/60181895/plib_tmr2.o
 .bss           0x00000000        0x0 build/default/production/_ext/60181895/plib_tmr2.o
 .reginfo       0x00000000       0x18 build/default/production/_ext/60181895/plib_tmr2.o
 .text.TMR2_Start
                0x00000000       0x14 build/default/production/_ext/60181895/plib_tmr2.o
 .text.TMR2_Stop
                0x00000000       0x14 build/default/production/_ext/60181895/plib_tmr2.o
 .text.TMR2_PeriodSet
                0x00000000       0x10 build/default/production/_ext/60181895/plib_tmr2.o
 .text.TMR2_PeriodGet
                0x00000000       0x10 build/default/production/_ext/60181895/plib_tmr2.o
 .text.TMR2_CounterGet
                0x00000000       0x10 build/default/production/_ext/60181895/plib_tmr2.o
 .text.TMR2_FrequencyGet
                0x00000000        0xc build/default/production/_ext/60181895/plib_tmr2.o
 .text          0x00000000        0x0 build/default/production/_ext/1865638794/plib_tmr1.o
 .data          0x00000000        0x0 build/default/production/_ext/1865638794/plib_tmr1.o
 .bss           0x00000000        0x0 build/default/production/_ext/1865638794/plib_tmr1.o
 .reginfo       0x00000000       0x18 build/default/production/_ext/1865638794/plib_tmr1.o
 .text.TMR1_Stop
                0x00000000       0x14 build/default/production/_ext/1865638794/plib_tmr1.o
 .text.TMR1_PeriodSet
                0x00000000       0x10 build/default/production/_ext/1865638794/plib_tmr1.o
 .text.TMR1_PeriodGet
                0x00000000       0x10 build/default/production/_ext/1865638794/plib_tmr1.o
 .text.TMR1_CounterGet
                0x00000000       0x10 build/default/production/_ext/1865638794/plib_tmr1.o
 .text.TMR1_FrequencyGet
                0x00000000        0x8 build/default/production/_ext/1865638794/plib_tmr1.o
 .text.TMR1_InterruptEnable
                0x00000000       0x14 build/default/production/_ext/1865638794/plib_tmr1.o
 .text.TMR1_InterruptDisable
                0x00000000       0x14 build/default/production/_ext/1865638794/plib_tmr1.o
 .text          0x00000000        0x0 build/default/production/_ext/1865657120/plib_uart2.o
 .data          0x00000000        0x0 build/default/production/_ext/1865657120/plib_uart2.o
 .bss           0x00000000        0x0 build/default/production/_ext/1865657120/plib_uart2.o
 .reginfo       0x00000000       0x18 build/default/production/_ext/1865657120/plib_uart2.o
 .text.UART2_SerialSetup
                0x00000000      0x128 build/default/production/_ext/1865657120/plib_uart2.o
 .text.UART2_AutoBaudQuery
                0x00000000       0x10 build/default/production/_ext/1865657120/plib_uart2.o
 .text.UART2_AutoBaudSet
                0x00000000       0x18 build/default/production/_ext/1865657120/plib_uart2.o
 .text.UART2_Read
                0x00000000       0x84 build/default/production/_ext/1865657120/plib_uart2.o
 .text.UART2_Write
                0x00000000       0xcc build/default/production/_ext/1865657120/plib_uart2.o
 .text.UART2_ErrorGet
                0x00000000       0x18 build/default/production/_ext/1865657120/plib_uart2.o
 .text.UART2_ReadCallbackRegister
                0x00000000       0x14 build/default/production/_ext/1865657120/plib_uart2.o
 .text.UART2_ReadIsBusy
                0x00000000        0xc build/default/production/_ext/1865657120/plib_uart2.o
 .text.UART2_ReadCountGet
                0x00000000        0xc build/default/production/_ext/1865657120/plib_uart2.o
 .text.UART2_ReadAbort
                0x00000000       0x3c build/default/production/_ext/1865657120/plib_uart2.o
 .text.UART2_WriteCallbackRegister
                0x00000000       0x14 build/default/production/_ext/1865657120/plib_uart2.o
 .text.UART2_WriteIsBusy
                0x00000000        0xc build/default/production/_ext/1865657120/plib_uart2.o
 .text.UART2_WriteCountGet
                0x00000000        0xc build/default/production/_ext/1865657120/plib_uart2.o
 .text          0x00000000        0x0 build/default/production/_ext/1865657120/plib_uart5.o
 .data          0x00000000        0x0 build/default/production/_ext/1865657120/plib_uart5.o
 .bss           0x00000000        0x0 build/default/production/_ext/1865657120/plib_uart5.o
 .reginfo       0x00000000       0x18 build/default/production/_ext/1865657120/plib_uart5.o
 .text.UART5_SerialSetup
                0x00000000      0x128 build/default/production/_ext/1865657120/plib_uart5.o
 .text.UART5_AutoBaudQuery
                0x00000000       0x10 build/default/production/_ext/1865657120/plib_uart5.o
 .text.UART5_AutoBaudSet
                0x00000000       0x18 build/default/production/_ext/1865657120/plib_uart5.o
 .text.UART5_ReadIsBusy
                0x00000000        0xc build/default/production/_ext/1865657120/plib_uart5.o
 .text.UART5_ReadCountGet
                0x00000000        0xc build/default/production/_ext/1865657120/plib_uart5.o
 .text.UART5_ReadAbort
                0x00000000       0x3c build/default/production/_ext/1865657120/plib_uart5.o
 .text.UART5_WriteIsBusy
                0x00000000        0xc build/default/production/_ext/1865657120/plib_uart5.o
 .text.UART5_WriteCountGet
                0x00000000        0xc build/default/production/_ext/1865657120/plib_uart5.o
 .text          0x00000000        0x0 build/default/production/_ext/163028504/xc32_monitor.o
 .data          0x00000000        0x0 build/default/production/_ext/163028504/xc32_monitor.o
 .bss           0x00000000        0x0 build/default/production/_ext/163028504/xc32_monitor.o
 .reginfo       0x00000000       0x18 build/default/production/_ext/163028504/xc32_monitor.o
 .text._mon_getc
                0x00000000        0x8 build/default/production/_ext/163028504/xc32_monitor.o
 .text          0x00000000        0x0 build/default/production/_ext/1171490990/initialization.o
 .data          0x00000000        0x0 build/default/production/_ext/1171490990/initialization.o
 .bss           0x00000000        0x0 build/default/production/_ext/1171490990/initialization.o
 .reginfo       0x00000000       0x18 build/default/production/_ext/1171490990/initialization.o
 .text          0x00000000        0x0 build/default/production/_ext/1171490990/interrupts.o
 .data          0x00000000        0x0 build/default/production/_ext/1171490990/interrupts.o
 .bss           0x00000000        0x0 build/default/production/_ext/1171490990/interrupts.o
 .reginfo       0x00000000       0x18 build/default/production/_ext/1171490990/interrupts.o
 .text          0x00000000        0x0 build/default/production/_ext/1171490990/exceptions.o
 .data          0x00000000        0x0 build/default/production/_ext/1171490990/exceptions.o
 .bss           0x00000000        0x0 build/default/production/_ext/1171490990/exceptions.o
 .reginfo       0x00000000       0x18 build/default/production/_ext/1171490990/exceptions.o
 .text          0x00000000        0x0 build/default/production/_ext/1019397905/mainCubeMeteo.o
 .reginfo       0x00000000       0x18 build/default/production/_ext/1019397905/mainCubeMeteo.o
 .text          0x00000000        0x0 build/default/production/_ext/1019397905/cubeCommon.o
 .data          0x00000000        0x0 build/default/production/_ext/1019397905/cubeCommon.o
 .bss           0x00000000        0x0 build/default/production/_ext/1019397905/cubeCommon.o
 .reginfo       0x00000000       0x18 build/default/production/_ext/1019397905/cubeCommon.o
 .text          0x00000000        0x0 build/default/production/_ext/1367680316/LM75A.o
 .data          0x00000000        0x0 build/default/production/_ext/1367680316/LM75A.o
 .bss           0x00000000        0x0 build/default/production/_ext/1367680316/LM75A.o
 .reginfo       0x00000000       0x18 build/default/production/_ext/1367680316/LM75A.o
 .text.getDatatx
                0x00000000        0xc build/default/production/_ext/1367680316/LM75A.o
 .text          0x00000000        0x0 build/default/production/_ext/672751358/SAA1064T.o
 .data          0x00000000        0x0 build/default/production/_ext/672751358/SAA1064T.o
 .bss           0x00000000        0x0 build/default/production/_ext/672751358/SAA1064T.o
 .reginfo       0x00000000       0x18 build/default/production/_ext/672751358/SAA1064T.o
 .text          0x00000000        0x0 build/default/production/_ext/1360937237/mainCube.o
 .data          0x00000000        0x0 build/default/production/_ext/1360937237/mainCube.o
 .bss           0x00000000        0x0 build/default/production/_ext/1360937237/mainCube.o
 .reginfo       0x00000000       0x18 build/default/production/_ext/1360937237/mainCube.o
 .text          0x00000000        0x0 /opt/microchip/xc32/v2.50/bin/bin/../../lib/gcc/pic32mx/4.8.3/../../../../pic32mx/lib/./proc/32MZ2048EFM100/vector_offset_init.o
 .data          0x00000000        0x0 /opt/microchip/xc32/v2.50/bin/bin/../../lib/gcc/pic32mx/4.8.3/../../../../pic32mx/lib/./proc/32MZ2048EFM100/vector_offset_init.o
 .bss           0x00000000        0x0 /opt/microchip/xc32/v2.50/bin/bin/../../lib/gcc/pic32mx/4.8.3/../../../../pic32mx/lib/./proc/32MZ2048EFM100/vector_offset_init.o
 .reginfo       0x00000000       0x18 /opt/microchip/xc32/v2.50/bin/bin/../../lib/gcc/pic32mx/4.8.3/../../../../pic32mx/lib/./proc/32MZ2048EFM100/vector_offset_init.o
 .text          0x00000000        0x0 /tmp/ccB6g2BR.o
 .data          0x00000000        0x0 /tmp/ccB6g2BR.o
 .bss           0x00000000        0x0 /tmp/ccB6g2BR.o
 .reginfo       0x00000000       0x18 /tmp/ccB6g2BR.o
 .text          0x00000000        0x0 /tmp/cc7Kyr2S.o
 .data          0x00000000        0x0 /tmp/cc7Kyr2S.o
 .bss           0x00000000        0x0 /tmp/cc7Kyr2S.o
 .reginfo       0x00000000       0x18 /tmp/cc7Kyr2S.o
 .text          0x00000000        0x0 /tmp/ccmuyaSR.o
 .data          0x00000000        0x0 /tmp/ccmuyaSR.o
 .bss           0x00000000        0x0 /tmp/ccmuyaSR.o
 .reginfo       0x00000000       0x18 /tmp/ccmuyaSR.o
 .discard       0x00000000        0x4 /tmp/ccmuyaSR.o
 .text          0x00000000        0x0 /opt/microchip/xc32/v2.50/bin/bin/../../lib/gcc/pic32mx/4.8.3/../../../../pic32mx/lib/./proc/32MZ2048EFM100/default_isr_vectors.o
 .data          0x00000000        0x0 /opt/microchip/xc32/v2.50/bin/bin/../../lib/gcc/pic32mx/4.8.3/../../../../pic32mx/lib/./proc/32MZ2048EFM100/default_isr_vectors.o
 .bss           0x00000000        0x0 /opt/microchip/xc32/v2.50/bin/bin/../../lib/gcc/pic32mx/4.8.3/../../../../pic32mx/lib/./proc/32MZ2048EFM100/default_isr_vectors.o
 .reginfo       0x00000000       0x18 /opt/microchip/xc32/v2.50/bin/bin/../../lib/gcc/pic32mx/4.8.3/../../../../pic32mx/lib/./proc/32MZ2048EFM100/default_isr_vectors.o
 .discard       0x00000000        0x4 /opt/microchip/xc32/v2.50/bin/bin/../../lib/gcc/pic32mx/4.8.3/../../../../pic32mx/lib/./proc/32MZ2048EFM100/default_isr_vectors.o
 .data          0x00000000        0x0 /opt/microchip/xc32/v2.50/bin/bin/../../lib/gcc/pic32mx/4.8.3/../../../../pic32mx/lib/fpu64/pic32_software_reset.o
 .bss           0x00000000        0x0 /opt/microchip/xc32/v2.50/bin/bin/../../lib/gcc/pic32mx/4.8.3/../../../../pic32mx/lib/fpu64/pic32_software_reset.o
 .reginfo       0x00000000       0x18 /opt/microchip/xc32/v2.50/bin/bin/../../lib/gcc/pic32mx/4.8.3/../../../../pic32mx/lib/fpu64/pic32_software_reset.o
 .data          0x00000000        0x0 /opt/microchip/xc32/v2.50/bin/bin/../../lib/gcc/pic32mx/4.8.3/../../../../pic32mx/lib/fpu64/libpic32.a(memcpy.o)
 .bss           0x00000000        0x0 /opt/microchip/xc32/v2.50/bin/bin/../../lib/gcc/pic32mx/4.8.3/../../../../pic32mx/lib/fpu64/libpic32.a(memcpy.o)
 .reginfo       0x00000000       0x18 /opt/microchip/xc32/v2.50/bin/bin/../../lib/gcc/pic32mx/4.8.3/../../../../pic32mx/lib/fpu64/libpic32.a(memcpy.o)
 .data          0x00000000        0x0 /opt/microchip/xc32/v2.50/bin/bin/../../lib/gcc/pic32mx/4.8.3/../../../../pic32mx/lib/fpu64/libpic32.a(strlen.o)
 .bss           0x00000000        0x0 /opt/microchip/xc32/v2.50/bin/bin/../../lib/gcc/pic32mx/4.8.3/../../../../pic32mx/lib/fpu64/libpic32.a(strlen.o)
 .reginfo       0x00000000       0x18 /opt/microchip/xc32/v2.50/bin/bin/../../lib/gcc/pic32mx/4.8.3/../../../../pic32mx/lib/fpu64/libpic32.a(strlen.o)
 .text          0x00000000        0x0 /opt/microchip/xc32/v2.50/bin/bin/../../lib/gcc/pic32mx/4.8.3/../../../../pic32mx/lib/fpu64/libpic32.a(default-on-reset.o)
 .data          0x00000000        0x0 /opt/microchip/xc32/v2.50/bin/bin/../../lib/gcc/pic32mx/4.8.3/../../../../pic32mx/lib/fpu64/libpic32.a(default-on-reset.o)
 .bss           0x00000000        0x0 /opt/microchip/xc32/v2.50/bin/bin/../../lib/gcc/pic32mx/4.8.3/../../../../pic32mx/lib/fpu64/libpic32.a(default-on-reset.o)
 .reginfo       0x00000000       0x18 /opt/microchip/xc32/v2.50/bin/bin/../../lib/gcc/pic32mx/4.8.3/../../../../pic32mx/lib/fpu64/libpic32.a(default-on-reset.o)
 .text          0x00000000        0x0 /opt/microchip/xc32/v2.50/bin/bin/../../lib/gcc/pic32mx/4.8.3/../../../../pic32mx/lib/fpu64/libpic32.a(default-on-bootstrap.o)
 .data          0x00000000        0x0 /opt/microchip/xc32/v2.50/bin/bin/../../lib/gcc/pic32mx/4.8.3/../../../../pic32mx/lib/fpu64/libpic32.a(default-on-bootstrap.o)
 .bss           0x00000000        0x0 /opt/microchip/xc32/v2.50/bin/bin/../../lib/gcc/pic32mx/4.8.3/../../../../pic32mx/lib/fpu64/libpic32.a(default-on-bootstrap.o)
 .reginfo       0x00000000       0x18 /opt/microchip/xc32/v2.50/bin/bin/../../lib/gcc/pic32mx/4.8.3/../../../../pic32mx/lib/fpu64/libpic32.a(default-on-bootstrap.o)
 .data          0x00000000        0x0 /opt/microchip/xc32/v2.50/bin/bin/../../lib/gcc/pic32mx/4.8.3/../../../../pic32mx/lib/fpu64/libpic32.a(default-nmi-handler.o)
 .bss           0x00000000        0x0 /opt/microchip/xc32/v2.50/bin/bin/../../lib/gcc/pic32mx/4.8.3/../../../../pic32mx/lib/fpu64/libpic32.a(default-nmi-handler.o)
 .reginfo       0x00000000       0x18 /opt/microchip/xc32/v2.50/bin/bin/../../lib/gcc/pic32mx/4.8.3/../../../../pic32mx/lib/fpu64/libpic32.a(default-nmi-handler.o)
 .data          0x00000000        0x0 /opt/microchip/xc32/v2.50/bin/bin/../../lib/gcc/pic32mx/4.8.3/../../../../pic32mx/lib/fpu64/libpic32.a(pic32_data_init.o)
 .bss           0x00000000        0x0 /opt/microchip/xc32/v2.50/bin/bin/../../lib/gcc/pic32mx/4.8.3/../../../../pic32mx/lib/fpu64/libpic32.a(pic32_data_init.o)
 .reginfo       0x00000000       0x18 /opt/microchip/xc32/v2.50/bin/bin/../../lib/gcc/pic32mx/4.8.3/../../../../pic32mx/lib/fpu64/libpic32.a(pic32_data_init.o)
 .text          0x00000000        0x0 /opt/microchip/xc32/v2.50/bin/bin/../../lib/gcc/pic32mx/4.8.3/../../../../pic32mx/lib/fpu64/libpic32.a(pic32_init_cache.o)
 .data          0x00000000        0x0 /opt/microchip/xc32/v2.50/bin/bin/../../lib/gcc/pic32mx/4.8.3/../../../../pic32mx/lib/fpu64/libpic32.a(pic32_init_cache.o)
 .bss           0x00000000        0x0 /opt/microchip/xc32/v2.50/bin/bin/../../lib/gcc/pic32mx/4.8.3/../../../../pic32mx/lib/fpu64/libpic32.a(pic32_init_cache.o)
 .reginfo       0x00000000       0x18 /opt/microchip/xc32/v2.50/bin/bin/../../lib/gcc/pic32mx/4.8.3/../../../../pic32mx/lib/fpu64/libpic32.a(pic32_init_cache.o)
 .cache_init.pic32_size_cache
                0x00000000       0x58 /opt/microchip/xc32/v2.50/bin/bin/../../lib/gcc/pic32mx/4.8.3/../../../../pic32mx/lib/fpu64/libpic32.a(pic32_init_cache.o)
 .text          0x00000000        0x0 /opt/microchip/xc32/v2.50/bin/bin/../../lib/gcc/pic32mx/4.8.3/../../../../pic32mx/lib/fpu64/libpic32.a(pic32_init_tlb_ebi_sqi.o)
 .data          0x00000000        0x0 /opt/microchip/xc32/v2.50/bin/bin/../../lib/gcc/pic32mx/4.8.3/../../../../pic32mx/lib/fpu64/libpic32.a(pic32_init_tlb_ebi_sqi.o)
 .bss           0x00000000        0x0 /opt/microchip/xc32/v2.50/bin/bin/../../lib/gcc/pic32mx/4.8.3/../../../../pic32mx/lib/fpu64/libpic32.a(pic32_init_tlb_ebi_sqi.o)
 .reginfo       0x00000000       0x18 /opt/microchip/xc32/v2.50/bin/bin/../../lib/gcc/pic32mx/4.8.3/../../../../pic32mx/lib/fpu64/libpic32.a(pic32_init_tlb_ebi_sqi.o)
 .text          0x00000000        0x0 /opt/microchip/xc32/v2.50/bin/bin/../../lib/gcc/pic32mx/4.8.3/../../../../pic32mx/lib/fpu64/libpic32.a(general-exception.o)
 .data          0x00000000        0x0 /opt/microchip/xc32/v2.50/bin/bin/../../lib/gcc/pic32mx/4.8.3/../../../../pic32mx/lib/fpu64/libpic32.a(general-exception.o)
 .bss           0x00000000        0x0 /opt/microchip/xc32/v2.50/bin/bin/../../lib/gcc/pic32mx/4.8.3/../../../../pic32mx/lib/fpu64/libpic32.a(general-exception.o)
 .reginfo       0x00000000       0x18 /opt/microchip/xc32/v2.50/bin/bin/../../lib/gcc/pic32mx/4.8.3/../../../../pic32mx/lib/fpu64/libpic32.a(general-exception.o)
 .text          0x00000000        0x0 /opt/microchip/xc32/v2.50/bin/bin/../../lib/gcc/pic32mx/4.8.3/../../../../pic32mx/lib/fpu64/libpic32.a(cache-err-exception.o)
 .data          0x00000000        0x0 /opt/microchip/xc32/v2.50/bin/bin/../../lib/gcc/pic32mx/4.8.3/../../../../pic32mx/lib/fpu64/libpic32.a(cache-err-exception.o)
 .bss           0x00000000        0x0 /opt/microchip/xc32/v2.50/bin/bin/../../lib/gcc/pic32mx/4.8.3/../../../../pic32mx/lib/fpu64/libpic32.a(cache-err-exception.o)
 .reginfo       0x00000000       0x18 /opt/microchip/xc32/v2.50/bin/bin/../../lib/gcc/pic32mx/4.8.3/../../../../pic32mx/lib/fpu64/libpic32.a(cache-err-exception.o)
 .text          0x00000000        0x0 /opt/microchip/xc32/v2.50/bin/bin/../../lib/gcc/pic32mx/4.8.3/../../../../pic32mx/lib/fpu64/libpic32.a(simple-tlb-refill-exception.o)
 .data          0x00000000        0x0 /opt/microchip/xc32/v2.50/bin/bin/../../lib/gcc/pic32mx/4.8.3/../../../../pic32mx/lib/fpu64/libpic32.a(simple-tlb-refill-exception.o)
 .bss           0x00000000        0x0 /opt/microchip/xc32/v2.50/bin/bin/../../lib/gcc/pic32mx/4.8.3/../../../../pic32mx/lib/fpu64/libpic32.a(simple-tlb-refill-exception.o)
 .reginfo       0x00000000       0x18 /opt/microchip/xc32/v2.50/bin/bin/../../lib/gcc/pic32mx/4.8.3/../../../../pic32mx/lib/fpu64/libpic32.a(simple-tlb-refill-exception.o)
 .text          0x00000000        0x0 /opt/microchip/xc32/v2.50/bin/bin/../../lib/gcc/pic32mx/4.8.3/../../../../pic32mx/lib/fpu64/libpic32.a(defaultinterrupt.o)
 .data          0x00000000        0x0 /opt/microchip/xc32/v2.50/bin/bin/../../lib/gcc/pic32mx/4.8.3/../../../../pic32mx/lib/fpu64/libpic32.a(defaultinterrupt.o)
 .bss           0x00000000        0x0 /opt/microchip/xc32/v2.50/bin/bin/../../lib/gcc/pic32mx/4.8.3/../../../../pic32mx/lib/fpu64/libpic32.a(defaultinterrupt.o)
 .reginfo       0x00000000       0x18 /opt/microchip/xc32/v2.50/bin/bin/../../lib/gcc/pic32mx/4.8.3/../../../../pic32mx/lib/fpu64/libpic32.a(defaultinterrupt.o)
 .text          0x00000000        0x0 /opt/microchip/xc32/v2.50/bin/bin/../../lib/gcc/pic32mx/4.8.3/../../../../pic32mx/lib/fpu64/libc.a(sprintf_cdnopuxX.eo)
 .data          0x00000000        0x0 /opt/microchip/xc32/v2.50/bin/bin/../../lib/gcc/pic32mx/4.8.3/../../../../pic32mx/lib/fpu64/libc.a(sprintf_cdnopuxX.eo)
 .bss           0x00000000        0x0 /opt/microchip/xc32/v2.50/bin/bin/../../lib/gcc/pic32mx/4.8.3/../../../../pic32mx/lib/fpu64/libc.a(sprintf_cdnopuxX.eo)
 .reginfo       0x00000000       0x18 /opt/microchip/xc32/v2.50/bin/bin/../../lib/gcc/pic32mx/4.8.3/../../../../pic32mx/lib/fpu64/libc.a(sprintf_cdnopuxX.eo)
 .text          0x00000000        0x0 /opt/microchip/xc32/v2.50/bin/bin/../../lib/gcc/pic32mx/4.8.3/../../../../pic32mx/lib/fpu64/libc.a(doprnt_cdnopuxX.eo)
 .data          0x00000000        0x0 /opt/microchip/xc32/v2.50/bin/bin/../../lib/gcc/pic32mx/4.8.3/../../../../pic32mx/lib/fpu64/libc.a(doprnt_cdnopuxX.eo)
 .bss           0x00000000        0x0 /opt/microchip/xc32/v2.50/bin/bin/../../lib/gcc/pic32mx/4.8.3/../../../../pic32mx/lib/fpu64/libc.a(doprnt_cdnopuxX.eo)
 .reginfo       0x00000000       0x18 /opt/microchip/xc32/v2.50/bin/bin/../../lib/gcc/pic32mx/4.8.3/../../../../pic32mx/lib/fpu64/libc.a(doprnt_cdnopuxX.eo)
 .text          0x00000000        0x0 /opt/microchip/xc32/v2.50/bin/bin/../../lib/gcc/pic32mx/4.8.3/../../../../pic32mx/lib/fpu64/libc.a(_fputc_simple.o)
 .data          0x00000000        0x0 /opt/microchip/xc32/v2.50/bin/bin/../../lib/gcc/pic32mx/4.8.3/../../../../pic32mx/lib/fpu64/libc.a(_fputc_simple.o)
 .bss           0x00000000        0x0 /opt/microchip/xc32/v2.50/bin/bin/../../lib/gcc/pic32mx/4.8.3/../../../../pic32mx/lib/fpu64/libc.a(_fputc_simple.o)
 .reginfo       0x00000000       0x18 /opt/microchip/xc32/v2.50/bin/bin/../../lib/gcc/pic32mx/4.8.3/../../../../pic32mx/lib/fpu64/libc.a(_fputc_simple.o)
 .text          0x00000000        0x0 /opt/microchip/xc32/v2.50/bin/bin/../../lib/gcc/pic32mx/4.8.3/../../../../pic32mx/lib/fpu64/libc.a(ctype.o)
 .data          0x00000000        0x0 /opt/microchip/xc32/v2.50/bin/bin/../../lib/gcc/pic32mx/4.8.3/../../../../pic32mx/lib/fpu64/libc.a(ctype.o)
 .bss           0x00000000        0x0 /opt/microchip/xc32/v2.50/bin/bin/../../lib/gcc/pic32mx/4.8.3/../../../../pic32mx/lib/fpu64/libc.a(ctype.o)
 .reginfo       0x00000000       0x18 /opt/microchip/xc32/v2.50/bin/bin/../../lib/gcc/pic32mx/4.8.3/../../../../pic32mx/lib/fpu64/libc.a(ctype.o)
 .text          0x00000000        0x0 /opt/microchip/xc32/v2.50/bin/bin/../../lib/gcc/pic32mx/4.8.3/../../../../pic32mx/lib/fpu64/libc.a(_iob.o)
 .data          0x00000000       0xa4 /opt/microchip/xc32/v2.50/bin/bin/../../lib/gcc/pic32mx/4.8.3/../../../../pic32mx/lib/fpu64/libc.a(_iob.o)
 .reginfo       0x00000000       0x18 /opt/microchip/xc32/v2.50/bin/bin/../../lib/gcc/pic32mx/4.8.3/../../../../pic32mx/lib/fpu64/libc.a(_iob.o)
 .text          0x00000000        0x0 /opt/microchip/xc32/v2.50/bin/bin/../../lib/gcc/pic32mx/4.8.3/../../../../pic32mx/lib/fpu64/libc.a(_flsbuf_simple.o)
 .data          0x00000000        0x0 /opt/microchip/xc32/v2.50/bin/bin/../../lib/gcc/pic32mx/4.8.3/../../../../pic32mx/lib/fpu64/libc.a(_flsbuf_simple.o)
 .bss           0x00000000        0x0 /opt/microchip/xc32/v2.50/bin/bin/../../lib/gcc/pic32mx/4.8.3/../../../../pic32mx/lib/fpu64/libc.a(_flsbuf_simple.o)
 .reginfo       0x00000000       0x18 /opt/microchip/xc32/v2.50/bin/bin/../../lib/gcc/pic32mx/4.8.3/../../../../pic32mx/lib/fpu64/libc.a(_flsbuf_simple.o)
 .data          0x00000000        0x0 /opt/microchip/xc32/v2.50/bin/bin/../../lib/gcc/pic32mx/4.8.3/fpu64/libgcc.a(_udivdi3.o)
 .bss           0x00000000        0x0 /opt/microchip/xc32/v2.50/bin/bin/../../lib/gcc/pic32mx/4.8.3/fpu64/libgcc.a(_udivdi3.o)
 .reginfo       0x00000000       0x18 /opt/microchip/xc32/v2.50/bin/bin/../../lib/gcc/pic32mx/4.8.3/fpu64/libgcc.a(_udivdi3.o)
 .data          0x00000000        0x0 /opt/microchip/xc32/v2.50/bin/bin/../../lib/gcc/pic32mx/4.8.3/fpu64/libgcc.a(_umoddi3.o)
 .bss           0x00000000        0x0 /opt/microchip/xc32/v2.50/bin/bin/../../lib/gcc/pic32mx/4.8.3/fpu64/libgcc.a(_umoddi3.o)
 .reginfo       0x00000000       0x18 /opt/microchip/xc32/v2.50/bin/bin/../../lib/gcc/pic32mx/4.8.3/fpu64/libgcc.a(_umoddi3.o)
 .text          0x00000000        0x0 /opt/microchip/xc32/v2.50/bin/bin/../../lib/gcc/pic32mx/4.8.3/../../../../pic32mx/lib/fpu64/libpic32.a(write.o)
 .data          0x00000000        0x0 /opt/microchip/xc32/v2.50/bin/bin/../../lib/gcc/pic32mx/4.8.3/../../../../pic32mx/lib/fpu64/libpic32.a(write.o)
 .bss           0x00000000        0x0 /opt/microchip/xc32/v2.50/bin/bin/../../lib/gcc/pic32mx/4.8.3/../../../../pic32mx/lib/fpu64/libpic32.a(write.o)
 .reginfo       0x00000000       0x18 /opt/microchip/xc32/v2.50/bin/bin/../../lib/gcc/pic32mx/4.8.3/../../../../pic32mx/lib/fpu64/libpic32.a(write.o)

Memory Configuration

Name             Origin             Length             Attributes
kseg0_program_mem 0x9d000000         0x00200000         xr
kseg0_boot_mem   0x9fc004b0         0x00000000
kseg1_boot_mem   0xbfc00000         0x00000480
kseg1_boot_mem_4B0 0xbfc004b0         0x0000fa50
config_BFC0FF40  0xbfc0ff40         0x00000004
config_BFC0FF44  0xbfc0ff44         0x00000004
config_BFC0FF48  0xbfc0ff48         0x00000004
config_BFC0FF4C  0xbfc0ff4c         0x00000004
config_BFC0FF50  0xbfc0ff50         0x00000004
config_BFC0FF54  0xbfc0ff54         0x00000004
config_BFC0FF58  0xbfc0ff58         0x00000004
config_BFC0FF5C  0xbfc0ff5c         0x00000004
config_BFC0FF60  0xbfc0ff60         0x00000004
config_BFC0FF64  0xbfc0ff64         0x00000004
config_BFC0FF68  0xbfc0ff68         0x00000004
config_BFC0FF6C  0xbfc0ff6c         0x00000004
config_BFC0FF70  0xbfc0ff70         0x00000004
config_BFC0FF74  0xbfc0ff74         0x00000004
config_BFC0FF78  0xbfc0ff78         0x00000004
config_BFC0FF7C  0xbfc0ff7c         0x00000004
config_BFC0FFC0  0xbfc0ffc0         0x00000004
config_BFC0FFC4  0xbfc0ffc4         0x00000004
config_BFC0FFC8  0xbfc0ffc8         0x00000004
config_BFC0FFCC  0xbfc0ffcc         0x00000004
config_BFC0FFD0  0xbfc0ffd0         0x00000004
config_BFC0FFD4  0xbfc0ffd4         0x00000004
config_BFC0FFD8  0xbfc0ffd8         0x00000004
config_BFC0FFDC  0xbfc0ffdc         0x00000004
config_BFC0FFE0  0xbfc0ffe0         0x00000004
config_BFC0FFE4  0xbfc0ffe4         0x00000004
config_BFC0FFE8  0xbfc0ffe8         0x00000004
config_BFC0FFEC  0xbfc0ffec         0x00000004
config_BFC0FFF0  0xbfc0fff0         0x00000004
config_BFC0FFF4  0xbfc0fff4         0x00000004
config_BFC0FFF8  0xbfc0fff8         0x00000004
config_BFC0FFFC  0xbfc0fffc         0x00000004
lowerbootaliaslastpage 0xbfc10000         0x00004000
upperbootalias   0xbfc20000         0x0000ff00
config_BFC2FF40  0xbfc2ff40         0x00000004
config_BFC2FF44  0xbfc2ff44         0x00000004
config_BFC2FF48  0xbfc2ff48         0x00000004
config_BFC2FF4C  0xbfc2ff4c         0x00000004
config_BFC2FF50  0xbfc2ff50         0x00000004
config_BFC2FF54  0xbfc2ff54         0x00000004
config_BFC2FF58  0xbfc2ff58         0x00000004
config_BFC2FF5C  0xbfc2ff5c         0x00000004
config_BFC2FF60  0xbfc2ff60         0x00000004
config_BFC2FF64  0xbfc2ff64         0x00000004
config_BFC2FF68  0xbfc2ff68         0x00000004
config_BFC2FF6C  0xbfc2ff6c         0x00000004
config_BFC2FF70  0xbfc2ff70         0x00000004
config_BFC2FF74  0xbfc2ff74         0x00000004
config_BFC2FF78  0xbfc2ff78         0x00000004
config_BFC2FF7C  0xbfc2ff7c         0x00000004
config_BFC2FFC0  0xbfc2ffc0         0x00000004
config_BFC2FFC4  0xbfc2ffc4         0x00000004
config_BFC2FFC8  0xbfc2ffc8         0x00000004
config_BFC2FFCC  0xbfc2ffcc         0x00000004
config_BFC2FFD0  0xbfc2ffd0         0x00000004
config_BFC2FFD4  0xbfc2ffd4         0x00000004
config_BFC2FFD8  0xbfc2ffd8         0x00000004
config_BFC2FFDC  0xbfc2ffdc         0x00000004
config_BFC2FFE0  0xbfc2ffe0         0x00000004
config_BFC2FFE4  0xbfc2ffe4         0x00000004
config_BFC2FFE8  0xbfc2ffe8         0x00000004
config_BFC2FFEC  0xbfc2ffec         0x00000004
config_BFC2FFF0  0xbfc2fff0         0x00000004
config_BFC2FFF4  0xbfc2fff4         0x00000004
config_BFC2FFF8  0xbfc2fff8         0x00000004
config_BFC2FFFC  0xbfc2fffc         0x00000004
upperbootaliaslastpage 0xbfc30000         0x00004000
boot1            0xbfc40000         0x0000ff00
config_BFC4FF40  0xbfc4ff40         0x00000004
config_BFC4FF44  0xbfc4ff44         0x00000004
config_BFC4FF48  0xbfc4ff48         0x00000004
config_BFC4FF4C  0xbfc4ff4c         0x00000004
config_BFC4FF50  0xbfc4ff50         0x00000004
config_BFC4FF54  0xbfc4ff54         0x00000004
config_BFC4FF58  0xbfc4ff58         0x00000004
config_BFC4FF5C  0xbfc4ff5c         0x00000004
config_BFC4FF60  0xbfc4ff60         0x00000004
config_BFC4FF64  0xbfc4ff64         0x00000004
config_BFC4FF68  0xbfc4ff68         0x00000004
config_BFC4FF6C  0xbfc4ff6c         0x00000004
config_BFC4FF70  0xbfc4ff70         0x00000004
config_BFC4FF74  0xbfc4ff74         0x00000004
config_BFC4FF78  0xbfc4ff78         0x00000004
config_BFC4FF7C  0xbfc4ff7c         0x00000004
config_BFC4FFC0  0xbfc4ffc0         0x00000004
config_BFC4FFC4  0xbfc4ffc4         0x00000004
config_BFC4FFC8  0xbfc4ffc8         0x00000004
config_BFC4FFCC  0xbfc4ffcc         0x00000004
config_BFC4FFD0  0xbfc4ffd0         0x00000004
config_BFC4FFD4  0xbfc4ffd4         0x00000004
config_BFC4FFD8  0xbfc4ffd8         0x00000004
config_BFC4FFDC  0xbfc4ffdc         0x00000004
config_BFC4FFE0  0xbfc4ffe0         0x00000004
config_BFC4FFE4  0xbfc4ffe4         0x00000004
config_BFC4FFE8  0xbfc4ffe8         0x00000004
config_BFC4FFEC  0xbfc4ffec         0x00000004
config_BFC4FFF0  0xbfc4fff0         0x00000004
config_BFC4FFF4  0xbfc4fff4         0x00000004
config_BFC4FFF8  0xbfc4fff8         0x00000004
config_BFC4FFFC  0xbfc4fffc         0x00000004
boot1lastpage    0xbfc50000         0x00004000
config_BFC54000  0xbfc54000         0x00000004
config_BFC54004  0xbfc54004         0x00000004
config_BFC54008  0xbfc54008         0x00000004
config_BFC5400C  0xbfc5400c         0x00000004
config_BFC54010  0xbfc54010         0x00000004
config_BFC5401C  0xbfc5401c         0x00000004
config_BFC54020  0xbfc54020         0x00000004
config_BFC54024  0xbfc54024         0x00000004
boot2            0xbfc60000         0x0000ff00
config_BFC6FF40  0xbfc6ff40         0x00000004
config_BFC6FF44  0xbfc6ff44         0x00000004
config_BFC6FF48  0xbfc6ff48         0x00000004
config_BFC6FF4C  0xbfc6ff4c         0x00000004
config_BFC6FF50  0xbfc6ff50         0x00000004
config_BFC6FF54  0xbfc6ff54         0x00000004
config_BFC6FF58  0xbfc6ff58         0x00000004
config_BFC6FF5C  0xbfc6ff5c         0x00000004
config_BFC6FF60  0xbfc6ff60         0x00000004
config_BFC6FF64  0xbfc6ff64         0x00000004
config_BFC6FF68  0xbfc6ff68         0x00000004
config_BFC6FF6C  0xbfc6ff6c         0x00000004
config_BFC6FF70  0xbfc6ff70         0x00000004
config_BFC6FF74  0xbfc6ff74         0x00000004
config_BFC6FF78  0xbfc6ff78         0x00000004
config_BFC6FF7C  0xbfc6ff7c         0x00000004
config_BFC6FFC0  0xbfc6ffc0         0x00000004
config_BFC6FFC4  0xbfc6ffc4         0x00000004
config_BFC6FFC8  0xbfc6ffc8         0x00000004
config_BFC6FFCC  0xbfc6ffcc         0x00000004
config_BFC6FFD0  0xbfc6ffd0         0x00000004
config_BFC6FFD4  0xbfc6ffd4         0x00000004
config_BFC6FFD8  0xbfc6ffd8         0x00000004
config_BFC6FFDC  0xbfc6ffdc         0x00000004
config_BFC6FFE0  0xbfc6ffe0         0x00000004
config_BFC6FFE4  0xbfc6ffe4         0x00000004
config_BFC6FFE8  0xbfc6ffe8         0x00000004
config_BFC6FFEC  0xbfc6ffec         0x00000004
config_BFC6FFF0  0xbfc6fff0         0x00000004
config_BFC6FFF4  0xbfc6fff4         0x00000004
config_BFC6FFF8  0xbfc6fff8         0x00000004
config_BFC6FFFC  0xbfc6fffc         0x00000004
boot2lastpage    0xbfc70000         0x00004000
kseg0_data_mem   0x80000000         0x00080000         w !x
sfrs             0xbf800000         0x00100000
configsfrs_BFC0FF40 0xbfc0ff40         0x00000040
configsfrs_BFC0FFC0 0xbfc0ffc0         0x00000040
configsfrs_BFC2FF40 0xbfc2ff40         0x00000040
configsfrs_BFC2FFC0 0xbfc2ffc0         0x00000040
configsfrs_BFC4FF40 0xbfc4ff40         0x00000040
configsfrs_BFC4FFC0 0xbfc4ffc0         0x00000040
configsfrs_BFC54000 0xbfc54000         0x00000020
configsfrs_BFC6FF40 0xbfc6ff40         0x00000040
configsfrs_BFC6FFC0 0xbfc6ffc0         0x00000040
kseg2_ebi_data_mem 0xc0000000         0x04000000
kseg2_sqi_data_mem 0xd0000000         0x04000000
kseg3_ebi_data_mem 0xe0000000         0x04000000
kseg3_sqi_data_mem 0xf0000000         0x04000000
*default*        0x00000000         0xffffffff

Linker script and memory map

LOAD /opt/microchip/xc32/v2.50/bin/bin/../../lib/gcc/pic32mx/4.8.3/../../../../pic32mx/lib/fpu64/debug-exception-return.o
LOAD build/default/production/_ext/1571292264/7segments.o
LOAD build/default/production/_ext/1571292264/7segmentsOutputStream.o
LOAD build/default/production/_ext/1506567961/delay.o
LOAD build/default/production/_ext/1507884958/error.o
LOAD build/default/production/_ext/383772639/buffer.o
LOAD build/default/production/_ext/242462784/outputStream.o
LOAD build/default/production/_ext/1038083393/printWriter.o
LOAD build/default/production/_ext/919093983/led.o
LOAD build/default/production/_ext/1240316727/temperatureStream.o
LOAD build/default/production/_ext/1240316727/temperature.o
LOAD build/default/production/_ext/92899495/system.o
LOAD build/default/production/_ext/79239498/timer1.o
LOAD build/default/production/_ext/1522154941/uart5.o
LOAD build/default/production/_ext/1984157808/plib_cache.o
LOAD build/default/production/_ext/1984157808/plib_cache_pic32mz.o
LOAD build/default/production/_ext/60165520/plib_clk.o
LOAD build/default/production/_ext/1249264884/plib_coretimer.o
LOAD build/default/production/_ext/1865200349/plib_evic.o
LOAD build/default/production/_ext/1865254177/plib_gpio.o
LOAD build/default/production/_ext/513455433/plib_i2c1_master.o
LOAD build/default/production/_ext/60181895/plib_tmr2.o
LOAD build/default/production/_ext/1865638794/plib_tmr1.o
LOAD build/default/production/_ext/1865657120/plib_uart2.o
LOAD build/default/production/_ext/1865657120/plib_uart5.o
LOAD build/default/production/_ext/163028504/xc32_monitor.o
LOAD build/default/production/_ext/1171490990/initialization.o
LOAD build/default/production/_ext/1171490990/interrupts.o
LOAD build/default/production/_ext/1171490990/exceptions.o
LOAD build/default/production/_ext/1019397905/mainCubeMeteo.o
LOAD build/default/production/_ext/1019397905/cubeCommon.o
LOAD build/default/production/_ext/1367680316/LM75A.o
LOAD build/default/production/_ext/672751358/SAA1064T.o
LOAD build/default/production/_ext/1360937237/mainCube.o
                0x00000001                __MPLAB_BUILD = 0x1
                0x00000400                PROVIDE (_min_stack_size, 0x400)
START GROUP
LOAD /opt/microchip/xc32/v2.50/bin/bin/../../lib/gcc/pic32mx/4.8.3/../../../../pic32mx/lib/./proc/32MZ2048EFM100/vector_offset_init.o
END GROUP
                0x00000001                PROVIDE (_vector_spacing, 0x1)
                0x9d000000                PROVIDE (_ebase_address, 0x9d000000)
                0xbfc00000                _RESET_ADDR = 0xbfc00000
                0xbfc00380                _BEV_EXCPT_ADDR = 0xbfc00380
                0xbfc00480                _DBG_EXCPT_ADDR = 0xbfc00480
                0x9d000000                _SIMPLE_TLB_REFILL_EXCPT_ADDR = (_ebase_address + 0x0)
                0x9d000100                _CACHE_ERR_EXCPT_ADDR = (_ebase_address + 0x100)
                0x9d000180                _GEN_EXCPT_ADDR = (_ebase_address + 0x180)

.config_BFC0FF40
 *(.config_BFC0FF40)

.config_BFC0FF44
 *(.config_BFC0FF44)

.config_BFC0FF48
 *(.config_BFC0FF48)

.config_BFC0FF4C
 *(.config_BFC0FF4C)

.config_BFC0FF50
 *(.config_BFC0FF50)

.config_BFC0FF54
 *(.config_BFC0FF54)

.config_BFC0FF58
 *(.config_BFC0FF58)

.config_BFC0FF5C
 *(.config_BFC0FF5C)

.config_BFC0FF60
 *(.config_BFC0FF60)

.config_BFC0FF64
 *(.config_BFC0FF64)

.config_BFC0FF68
 *(.config_BFC0FF68)

.config_BFC0FF6C
 *(.config_BFC0FF6C)

.config_BFC0FF70
 *(.config_BFC0FF70)

.config_BFC0FF74
 *(.config_BFC0FF74)

.config_BFC0FF78
 *(.config_BFC0FF78)

.config_BFC0FF7C
 *(.config_BFC0FF7C)

.config_BFC0FFC0
                0xbfc0ffc0        0x4
 *(.config_BFC0FFC0)
 .config_BFC0FFC0
                0xbfc0ffc0        0x4 build/default/production/_ext/1171490990/initialization.o

.config_BFC0FFC4
                0xbfc0ffc4        0x4
 *(.config_BFC0FFC4)
 .config_BFC0FFC4
                0xbfc0ffc4        0x4 build/default/production/_ext/1171490990/initialization.o

.config_BFC0FFC8
                0xbfc0ffc8        0x4
 *(.config_BFC0FFC8)
 .config_BFC0FFC8
                0xbfc0ffc8        0x4 build/default/production/_ext/1171490990/initialization.o

.config_BFC0FFCC
                0xbfc0ffcc        0x4
 *(.config_BFC0FFCC)
 .config_BFC0FFCC
                0xbfc0ffcc        0x4 build/default/production/_ext/1171490990/initialization.o

.config_BFC0FFD0
 *(.config_BFC0FFD0)

.config_BFC0FFD4
 *(.config_BFC0FFD4)

.config_BFC0FFD8
 *(.config_BFC0FFD8)

.config_BFC0FFDC
                0xbfc0ffdc        0x4
 *(.config_BFC0FFDC)
 .config_BFC0FFDC
                0xbfc0ffdc        0x4 build/default/production/_ext/1171490990/initialization.o

.config_BFC0FFE0
 *(.config_BFC0FFE0)

.config_BFC0FFE4
 *(.config_BFC0FFE4)

.config_BFC0FFE8
 *(.config_BFC0FFE8)

.config_BFC0FFEC
 *(.config_BFC0FFEC)

.config_BFC0FFF0
                0xbfc0fff0        0x4
 *(.config_BFC0FFF0)
 .config_BFC0FFF0
                0xbfc0fff0        0x4 build/default/production/_ext/1171490990/initialization.o

.config_BFC0FFF4
 *(.config_BFC0FFF4)

.config_BFC0FFF8
 *(.config_BFC0FFF8)

.config_BFC0FFFC
 *(.config_BFC0FFFC)

.config_BFC2FF40
 *(.config_BFC2FF40)

.config_BFC2FF44
 *(.config_BFC2FF44)

.config_BFC2FF48
 *(.config_BFC2FF48)

.config_BFC2FF4C
 *(.config_BFC2FF4C)

.config_BFC2FF50
 *(.config_BFC2FF50)

.config_BFC2FF54
 *(.config_BFC2FF54)

.config_BFC2FF58
 *(.config_BFC2FF58)

.config_BFC2FF5C
 *(.config_BFC2FF5C)

.config_BFC2FF60
 *(.config_BFC2FF60)

.config_BFC2FF64
 *(.config_BFC2FF64)

.config_BFC2FF68
 *(.config_BFC2FF68)

.config_BFC2FF6C
 *(.config_BFC2FF6C)

.config_BFC2FF70
 *(.config_BFC2FF70)

.config_BFC2FF74
 *(.config_BFC2FF74)

.config_BFC2FF78
 *(.config_BFC2FF78)

.config_BFC2FF7C
 *(.config_BFC2FF7C)

.config_BFC2FFC0
 *(.config_BFC2FFC0)

.config_BFC2FFC4
 *(.config_BFC2FFC4)

.config_BFC2FFC8
 *(.config_BFC2FFC8)

.config_BFC2FFCC
 *(.config_BFC2FFCC)

.config_BFC2FFD0
 *(.config_BFC2FFD0)

.config_BFC2FFD4
 *(.config_BFC2FFD4)

.config_BFC2FFD8
 *(.config_BFC2FFD8)

.config_BFC2FFDC
 *(.config_BFC2FFDC)

.config_BFC2FFE0
 *(.config_BFC2FFE0)

.config_BFC2FFE4
 *(.config_BFC2FFE4)

.config_BFC2FFE8
 *(.config_BFC2FFE8)

.config_BFC2FFEC
 *(.config_BFC2FFEC)

.config_BFC2FFF0
 *(.config_BFC2FFF0)

.config_BFC2FFF4
 *(.config_BFC2FFF4)

.config_BFC2FFF8
 *(.config_BFC2FFF8)

.config_BFC2FFFC
 *(.config_BFC2FFFC)

.config_BFC4FF40
 *(.config_BFC4FF40)

.config_BFC4FF44
 *(.config_BFC4FF44)

.config_BFC4FF48
 *(.config_BFC4FF48)

.config_BFC4FF4C
 *(.config_BFC4FF4C)

.config_BFC4FF50
 *(.config_BFC4FF50)

.config_BFC4FF54
 *(.config_BFC4FF54)

.config_BFC4FF58
 *(.config_BFC4FF58)

.config_BFC4FF5C
 *(.config_BFC4FF5C)

.config_BFC4FF60
 *(.config_BFC4FF60)

.config_BFC4FF64
 *(.config_BFC4FF64)

.config_BFC4FF68
 *(.config_BFC4FF68)

.config_BFC4FF6C
 *(.config_BFC4FF6C)

.config_BFC4FF70
 *(.config_BFC4FF70)

.config_BFC4FF74
 *(.config_BFC4FF74)

.config_BFC4FF78
 *(.config_BFC4FF78)

.config_BFC4FF7C
 *(.config_BFC4FF7C)

.config_BFC4FFC0
 *(.config_BFC4FFC0)

.config_BFC4FFC4
 *(.config_BFC4FFC4)

.config_BFC4FFC8
 *(.config_BFC4FFC8)

.config_BFC4FFCC
 *(.config_BFC4FFCC)

.config_BFC4FFD0
 *(.config_BFC4FFD0)

.config_BFC4FFD4
 *(.config_BFC4FFD4)

.config_BFC4FFD8
 *(.config_BFC4FFD8)

.config_BFC4FFDC
 *(.config_BFC4FFDC)

.config_BFC4FFE0
 *(.config_BFC4FFE0)

.config_BFC4FFE4
 *(.config_BFC4FFE4)

.config_BFC4FFE8
 *(.config_BFC4FFE8)

.config_BFC4FFEC
 *(.config_BFC4FFEC)

.config_BFC4FFF0
 *(.config_BFC4FFF0)

.config_BFC4FFF4
 *(.config_BFC4FFF4)

.config_BFC4FFF8
 *(.config_BFC4FFF8)

.config_BFC4FFFC
 *(.config_BFC4FFFC)

.config_BFC54000
 *(.config_BFC54000)

.config_BFC54004
 *(.config_BFC54004)

.config_BFC54008
 *(.config_BFC54008)

.config_BFC5400C
 *(.config_BFC5400C)

.config_BFC54010
 *(.config_BFC54010)

.config_BFC5401C
 *(.config_BFC5401C)

.config_BFC54020
 *(.config_BFC54020)

.config_BFC54024
 *(.config_BFC54024)

.config_BFC6FF40
 *(.config_BFC6FF40)

.config_BFC6FF44
 *(.config_BFC6FF44)

.config_BFC6FF48
 *(.config_BFC6FF48)

.config_BFC6FF4C
 *(.config_BFC6FF4C)

.config_BFC6FF50
 *(.config_BFC6FF50)

.config_BFC6FF54
 *(.config_BFC6FF54)

.config_BFC6FF58
 *(.config_BFC6FF58)

.config_BFC6FF5C
 *(.config_BFC6FF5C)

.config_BFC6FF60
 *(.config_BFC6FF60)

.config_BFC6FF64
 *(.config_BFC6FF64)

.config_BFC6FF68
 *(.config_BFC6FF68)

.config_BFC6FF6C
 *(.config_BFC6FF6C)

.config_BFC6FF70
 *(.config_BFC6FF70)

.config_BFC6FF74
 *(.config_BFC6FF74)

.config_BFC6FF78
 *(.config_BFC6FF78)

.config_BFC6FF7C
 *(.config_BFC6FF7C)

.config_BFC6FFC0
 *(.config_BFC6FFC0)

.config_BFC6FFC4
 *(.config_BFC6FFC4)

.config_BFC6FFC8
 *(.config_BFC6FFC8)

.config_BFC6FFCC
 *(.config_BFC6FFCC)

.config_BFC6FFD0
 *(.config_BFC6FFD0)

.config_BFC6FFD4
 *(.config_BFC6FFD4)

.config_BFC6FFD8
 *(.config_BFC6FFD8)

.config_BFC6FFDC
 *(.config_BFC6FFDC)

.config_BFC6FFE0
 *(.config_BFC6FFE0)

.config_BFC6FFE4
 *(.config_BFC6FFE4)

.config_BFC6FFE8
 *(.config_BFC6FFE8)

.config_BFC6FFEC
 *(.config_BFC6FFEC)

.config_BFC6FFF0
 *(.config_BFC6FFF0)

.config_BFC6FFF4
 *(.config_BFC6FFF4)

.config_BFC6FFF8
 *(.config_BFC6FFF8)

.config_BFC6FFFC
 *(.config_BFC6FFFC)

.reset          0xbfc00000      0x1b4
 *(.reset)
 .reset         0xbfc00000       0x18 /tmp/ccB6g2BR.o
                0xbfc00000                _reset
 *(.reset.startup)
 .reset.startup
                0xbfc00018      0x19c /tmp/ccB6g2BR.o
                0xbfc00018                _startup

.bev_excpt      0xbfc00380       0x10
 *(.bev_handler)
 .bev_handler   0xbfc00380       0x10 /tmp/ccB6g2BR.o

.cache_init     0xbfc004b0      0x1c0
 *(.cache_init)
 *(.cache_init.*)
 .cache_init.cache
                0xbfc004b0       0xc0 /opt/microchip/xc32/v2.50/bin/bin/../../lib/gcc/pic32mx/4.8.3/../../../../pic32mx/lib/fpu64/libpic32.a(pic32_init_cache.o)
 .cache_init.pic32_init_cache
                0xbfc00570      0x100 /opt/microchip/xc32/v2.50/bin/bin/../../lib/gcc/pic32mx/4.8.3/../../../../pic32mx/lib/fpu64/libpic32.a(pic32_init_cache.o)
                0xbfc00570                __pic32_init_cache

.simple_tlb_refill_excpt
                0x9d000000       0x10
 *(.simple_tlb_refill_vector)
 .simple_tlb_refill_vector
                0x9d000000       0x10 /tmp/ccB6g2BR.o

.cache_err_excpt
                0x9d000100       0x10
 *(.cache_err_vector)
 .cache_err_vector
                0x9d000100       0x10 /tmp/ccB6g2BR.o

.app_excpt      0x9d000180       0x10
 *(.gen_handler)
 .gen_handler   0x9d000180       0x10 /tmp/ccB6g2BR.o

.vectors        0x9d000200       0x90
                0x9d000200                . = ALIGN (0x4)
                0x00000248                __vector_offset_0 = DEFINED (__vector_dispatch_0)?(. - _ebase_address):__vector_offset_default
 *(.vector_0)
                0x9d000200                . = ALIGN (0x4)
                0x00000248                __vector_offset_1 = DEFINED (__vector_dispatch_1)?(. - _ebase_address):__vector_offset_default
 *(.vector_1)
                0x9d000200                . = ALIGN (0x4)
                0x00000248                __vector_offset_2 = DEFINED (__vector_dispatch_2)?(. - _ebase_address):__vector_offset_default
 *(.vector_2)
                0x9d000200                . = ALIGN (0x4)
                0x00000248                __vector_offset_3 = DEFINED (__vector_dispatch_3)?(. - _ebase_address):__vector_offset_default
 *(.vector_3)
                0x9d000200                . = ALIGN (0x4)
                0x00000200                __vector_offset_4 = DEFINED (__vector_dispatch_4)?(. - _ebase_address):__vector_offset_default
 *(.vector_4)
 .vector_4      0x9d000200        0x8 build/default/production/_ext/1171490990/interrupts.o
                0x9d000200                __vector_dispatch_4
                0x9d000208                . = ALIGN (0x4)
                0x00000248                __vector_offset_5 = DEFINED (__vector_dispatch_5)?(. - _ebase_address):__vector_offset_default
 *(.vector_5)
                0x9d000208                . = ALIGN (0x4)
                0x00000248                __vector_offset_6 = DEFINED (__vector_dispatch_6)?(. - _ebase_address):__vector_offset_default
 *(.vector_6)
                0x9d000208                . = ALIGN (0x4)
                0x00000248                __vector_offset_7 = DEFINED (__vector_dispatch_7)?(. - _ebase_address):__vector_offset_default
 *(.vector_7)
                0x9d000208                . = ALIGN (0x4)
                0x00000248                __vector_offset_8 = DEFINED (__vector_dispatch_8)?(. - _ebase_address):__vector_offset_default
 *(.vector_8)
                0x9d000208                . = ALIGN (0x4)
                0x00000248                __vector_offset_9 = DEFINED (__vector_dispatch_9)?(. - _ebase_address):__vector_offset_default
 *(.vector_9)
                0x9d000208                . = ALIGN (0x4)
                0x00000248                __vector_offset_10 = DEFINED (__vector_dispatch_10)?(. - _ebase_address):__vector_offset_default
 *(.vector_10)
                0x9d000208                . = ALIGN (0x4)
                0x00000248                __vector_offset_11 = DEFINED (__vector_dispatch_11)?(. - _ebase_address):__vector_offset_default
 *(.vector_11)
                0x9d000208                . = ALIGN (0x4)
                0x00000248                __vector_offset_12 = DEFINED (__vector_dispatch_12)?(. - _ebase_address):__vector_offset_default
 *(.vector_12)
                0x9d000208                . = ALIGN (0x4)
                0x00000248                __vector_offset_13 = DEFINED (__vector_dispatch_13)?(. - _ebase_address):__vector_offset_default
 *(.vector_13)
                0x9d000208                . = ALIGN (0x4)
                0x00000248                __vector_offset_14 = DEFINED (__vector_dispatch_14)?(. - _ebase_address):__vector_offset_default
 *(.vector_14)
                0x9d000208                . = ALIGN (0x4)
                0x00000248                __vector_offset_15 = DEFINED (__vector_dispatch_15)?(. - _ebase_address):__vector_offset_default
 *(.vector_15)
                0x9d000208                . = ALIGN (0x4)
                0x00000248                __vector_offset_16 = DEFINED (__vector_dispatch_16)?(. - _ebase_address):__vector_offset_default
 *(.vector_16)
                0x9d000208                . = ALIGN (0x4)
                0x00000248                __vector_offset_17 = DEFINED (__vector_dispatch_17)?(. - _ebase_address):__vector_offset_default
 *(.vector_17)
                0x9d000208                . = ALIGN (0x4)
                0x00000248                __vector_offset_18 = DEFINED (__vector_dispatch_18)?(. - _ebase_address):__vector_offset_default
 *(.vector_18)
                0x9d000208                . = ALIGN (0x4)
                0x00000248                __vector_offset_19 = DEFINED (__vector_dispatch_19)?(. - _ebase_address):__vector_offset_default
 *(.vector_19)
                0x9d000208                . = ALIGN (0x4)
                0x00000248                __vector_offset_20 = DEFINED (__vector_dispatch_20)?(. - _ebase_address):__vector_offset_default
 *(.vector_20)
                0x9d000208                . = ALIGN (0x4)
                0x00000248                __vector_offset_21 = DEFINED (__vector_dispatch_21)?(. - _ebase_address):__vector_offset_default
 *(.vector_21)
                0x9d000208                . = ALIGN (0x4)
                0x00000248                __vector_offset_22 = DEFINED (__vector_dispatch_22)?(. - _ebase_address):__vector_offset_default
 *(.vector_22)
                0x9d000208                . = ALIGN (0x4)
                0x00000248                __vector_offset_23 = DEFINED (__vector_dispatch_23)?(. - _ebase_address):__vector_offset_default
 *(.vector_23)
                0x9d000208                . = ALIGN (0x4)
                0x00000248                __vector_offset_24 = DEFINED (__vector_dispatch_24)?(. - _ebase_address):__vector_offset_default
 *(.vector_24)
                0x9d000208                . = ALIGN (0x4)
                0x00000248                __vector_offset_25 = DEFINED (__vector_dispatch_25)?(. - _ebase_address):__vector_offset_default
 *(.vector_25)
                0x9d000208                . = ALIGN (0x4)
                0x00000248                __vector_offset_26 = DEFINED (__vector_dispatch_26)?(. - _ebase_address):__vector_offset_default
 *(.vector_26)
                0x9d000208                . = ALIGN (0x4)
                0x00000248                __vector_offset_27 = DEFINED (__vector_dispatch_27)?(. - _ebase_address):__vector_offset_default
 *(.vector_27)
                0x9d000208                . = ALIGN (0x4)
                0x00000248                __vector_offset_28 = DEFINED (__vector_dispatch_28)?(. - _ebase_address):__vector_offset_default
 *(.vector_28)
                0x9d000208                . = ALIGN (0x4)
                0x00000248                __vector_offset_29 = DEFINED (__vector_dispatch_29)?(. - _ebase_address):__vector_offset_default
 *(.vector_29)
                0x9d000208                . = ALIGN (0x4)
                0x00000248                __vector_offset_30 = DEFINED (__vector_dispatch_30)?(. - _ebase_address):__vector_offset_default
 *(.vector_30)
                0x9d000208                . = ALIGN (0x4)
                0x00000248                __vector_offset_31 = DEFINED (__vector_dispatch_31)?(. - _ebase_address):__vector_offset_default
 *(.vector_31)
                0x9d000208                . = ALIGN (0x4)
                0x00000248                __vector_offset_32 = DEFINED (__vector_dispatch_32)?(. - _ebase_address):__vector_offset_default
 *(.vector_32)
                0x9d000208                . = ALIGN (0x4)
                0x00000248                __vector_offset_33 = DEFINED (__vector_dispatch_33)?(. - _ebase_address):__vector_offset_default
 *(.vector_33)
                0x9d000208                . = ALIGN (0x4)
                0x00000248                __vector_offset_34 = DEFINED (__vector_dispatch_34)?(. - _ebase_address):__vector_offset_default
 *(.vector_34)
                0x9d000208                . = ALIGN (0x4)
                0x00000248                __vector_offset_35 = DEFINED (__vector_dispatch_35)?(. - _ebase_address):__vector_offset_default
 *(.vector_35)
                0x9d000208                . = ALIGN (0x4)
                0x00000248                __vector_offset_36 = DEFINED (__vector_dispatch_36)?(. - _ebase_address):__vector_offset_default
 *(.vector_36)
                0x9d000208                . = ALIGN (0x4)
                0x00000248                __vector_offset_37 = DEFINED (__vector_dispatch_37)?(. - _ebase_address):__vector_offset_default
 *(.vector_37)
                0x9d000208                . = ALIGN (0x4)
                0x00000248                __vector_offset_38 = DEFINED (__vector_dispatch_38)?(. - _ebase_address):__vector_offset_default
 *(.vector_38)
                0x9d000208                . = ALIGN (0x4)
                0x00000248                __vector_offset_39 = DEFINED (__vector_dispatch_39)?(. - _ebase_address):__vector_offset_default
 *(.vector_39)
                0x9d000208                . = ALIGN (0x4)
                0x00000248                __vector_offset_40 = DEFINED (__vector_dispatch_40)?(. - _ebase_address):__vector_offset_default
 *(.vector_40)
                0x9d000208                . = ALIGN (0x4)
                0x00000248                __vector_offset_41 = DEFINED (__vector_dispatch_41)?(. - _ebase_address):__vector_offset_default
 *(.vector_41)
                0x9d000208                . = ALIGN (0x4)
                0x00000248                __vector_offset_42 = DEFINED (__vector_dispatch_42)?(. - _ebase_address):__vector_offset_default
 *(.vector_42)
                0x9d000208                . = ALIGN (0x4)
                0x00000248                __vector_offset_43 = DEFINED (__vector_dispatch_43)?(. - _ebase_address):__vector_offset_default
 *(.vector_43)
                0x9d000208                . = ALIGN (0x4)
                0x00000248                __vector_offset_44 = DEFINED (__vector_dispatch_44)?(. - _ebase_address):__vector_offset_default
 *(.vector_44)
                0x9d000208                . = ALIGN (0x4)
                0x00000248                __vector_offset_45 = DEFINED (__vector_dispatch_45)?(. - _ebase_address):__vector_offset_default
 *(.vector_45)
                0x9d000208                . = ALIGN (0x4)
                0x00000248                __vector_offset_46 = DEFINED (__vector_dispatch_46)?(. - _ebase_address):__vector_offset_default
 *(.vector_46)
                0x9d000208                . = ALIGN (0x4)
                0x00000248                __vector_offset_47 = DEFINED (__vector_dispatch_47)?(. - _ebase_address):__vector_offset_default
 *(.vector_47)
                0x9d000208                . = ALIGN (0x4)
                0x00000248                __vector_offset_48 = DEFINED (__vector_dispatch_48)?(. - _ebase_address):__vector_offset_default
 *(.vector_48)
                0x9d000208                . = ALIGN (0x4)
                0x00000248                __vector_offset_49 = DEFINED (__vector_dispatch_49)?(. - _ebase_address):__vector_offset_default
 *(.vector_49)
                0x9d000208                . = ALIGN (0x4)
                0x00000248                __vector_offset_50 = DEFINED (__vector_dispatch_50)?(. - _ebase_address):__vector_offset_default
 *(.vector_50)
                0x9d000208                . = ALIGN (0x4)
                0x00000248                __vector_offset_51 = DEFINED (__vector_dispatch_51)?(. - _ebase_address):__vector_offset_default
 *(.vector_51)
                0x9d000208                . = ALIGN (0x4)
                0x00000248                __vector_offset_52 = DEFINED (__vector_dispatch_52)?(. - _ebase_address):__vector_offset_default
 *(.vector_52)
                0x9d000208                . = ALIGN (0x4)
                0x00000248                __vector_offset_53 = DEFINED (__vector_dispatch_53)?(. - _ebase_address):__vector_offset_default
 *(.vector_53)
                0x9d000208                . = ALIGN (0x4)
                0x00000248                __vector_offset_54 = DEFINED (__vector_dispatch_54)?(. - _ebase_address):__vector_offset_default
 *(.vector_54)
                0x9d000208                . = ALIGN (0x4)
                0x00000248                __vector_offset_55 = DEFINED (__vector_dispatch_55)?(. - _ebase_address):__vector_offset_default
 *(.vector_55)
                0x9d000208                . = ALIGN (0x4)
                0x00000248                __vector_offset_56 = DEFINED (__vector_dispatch_56)?(. - _ebase_address):__vector_offset_default
 *(.vector_56)
                0x9d000208                . = ALIGN (0x4)
                0x00000248                __vector_offset_57 = DEFINED (__vector_dispatch_57)?(. - _ebase_address):__vector_offset_default
 *(.vector_57)
                0x9d000208                . = ALIGN (0x4)
                0x00000248                __vector_offset_58 = DEFINED (__vector_dispatch_58)?(. - _ebase_address):__vector_offset_default
 *(.vector_58)
                0x9d000208                . = ALIGN (0x4)
                0x00000248                __vector_offset_59 = DEFINED (__vector_dispatch_59)?(. - _ebase_address):__vector_offset_default
 *(.vector_59)
                0x9d000208                . = ALIGN (0x4)
                0x00000248                __vector_offset_60 = DEFINED (__vector_dispatch_60)?(. - _ebase_address):__vector_offset_default
 *(.vector_60)
                0x9d000208                . = ALIGN (0x4)
                0x00000248                __vector_offset_61 = DEFINED (__vector_dispatch_61)?(. - _ebase_address):__vector_offset_default
 *(.vector_61)
                0x9d000208                . = ALIGN (0x4)
                0x00000248                __vector_offset_62 = DEFINED (__vector_dispatch_62)?(. - _ebase_address):__vector_offset_default
 *(.vector_62)
                0x9d000208                . = ALIGN (0x4)
                0x00000248                __vector_offset_63 = DEFINED (__vector_dispatch_63)?(. - _ebase_address):__vector_offset_default
 *(.vector_63)
                0x9d000208                . = ALIGN (0x4)
                0x00000248                __vector_offset_64 = DEFINED (__vector_dispatch_64)?(. - _ebase_address):__vector_offset_default
 *(.vector_64)
                0x9d000208                . = ALIGN (0x4)
                0x00000248                __vector_offset_65 = DEFINED (__vector_dispatch_65)?(. - _ebase_address):__vector_offset_default
 *(.vector_65)
                0x9d000208                . = ALIGN (0x4)
                0x00000248                __vector_offset_66 = DEFINED (__vector_dispatch_66)?(. - _ebase_address):__vector_offset_default
 *(.vector_66)
                0x9d000208                . = ALIGN (0x4)
                0x00000248                __vector_offset_67 = DEFINED (__vector_dispatch_67)?(. - _ebase_address):__vector_offset_default
 *(.vector_67)
                0x9d000208                . = ALIGN (0x4)
                0x00000248                __vector_offset_68 = DEFINED (__vector_dispatch_68)?(. - _ebase_address):__vector_offset_default
 *(.vector_68)
                0x9d000208                . = ALIGN (0x4)
                0x00000248                __vector_offset_69 = DEFINED (__vector_dispatch_69)?(. - _ebase_address):__vector_offset_default
 *(.vector_69)
                0x9d000208                . = ALIGN (0x4)
                0x00000248                __vector_offset_70 = DEFINED (__vector_dispatch_70)?(. - _ebase_address):__vector_offset_default
 *(.vector_70)
                0x9d000208                . = ALIGN (0x4)
                0x00000248                __vector_offset_71 = DEFINED (__vector_dispatch_71)?(. - _ebase_address):__vector_offset_default
 *(.vector_71)
                0x9d000208                . = ALIGN (0x4)
                0x00000248                __vector_offset_72 = DEFINED (__vector_dispatch_72)?(. - _ebase_address):__vector_offset_default
 *(.vector_72)
                0x9d000208                . = ALIGN (0x4)
                0x00000248                __vector_offset_73 = DEFINED (__vector_dispatch_73)?(. - _ebase_address):__vector_offset_default
 *(.vector_73)
                0x9d000208                . = ALIGN (0x4)
                0x00000248                __vector_offset_74 = DEFINED (__vector_dispatch_74)?(. - _ebase_address):__vector_offset_default
 *(.vector_74)
                0x9d000208                . = ALIGN (0x4)
                0x00000248                __vector_offset_75 = DEFINED (__vector_dispatch_75)?(. - _ebase_address):__vector_offset_default
 *(.vector_75)
                0x9d000208                . = ALIGN (0x4)
                0x00000248                __vector_offset_76 = DEFINED (__vector_dispatch_76)?(. - _ebase_address):__vector_offset_default
 *(.vector_76)
                0x9d000208                . = ALIGN (0x4)
                0x00000248                __vector_offset_77 = DEFINED (__vector_dispatch_77)?(. - _ebase_address):__vector_offset_default
 *(.vector_77)
                0x9d000208                . = ALIGN (0x4)
                0x00000248                __vector_offset_78 = DEFINED (__vector_dispatch_78)?(. - _ebase_address):__vector_offset_default
 *(.vector_78)
                0x9d000208                . = ALIGN (0x4)
                0x00000248                __vector_offset_79 = DEFINED (__vector_dispatch_79)?(. - _ebase_address):__vector_offset_default
 *(.vector_79)
                0x9d000208                . = ALIGN (0x4)
                0x00000248                __vector_offset_80 = DEFINED (__vector_dispatch_80)?(. - _ebase_address):__vector_offset_default
 *(.vector_80)
                0x9d000208                . = ALIGN (0x4)
                0x00000248                __vector_offset_81 = DEFINED (__vector_dispatch_81)?(. - _ebase_address):__vector_offset_default
 *(.vector_81)
                0x9d000208                . = ALIGN (0x4)
                0x00000248                __vector_offset_82 = DEFINED (__vector_dispatch_82)?(. - _ebase_address):__vector_offset_default
 *(.vector_82)
                0x9d000208                . = ALIGN (0x4)
                0x00000248                __vector_offset_83 = DEFINED (__vector_dispatch_83)?(. - _ebase_address):__vector_offset_default
 *(.vector_83)
                0x9d000208                . = ALIGN (0x4)
                0x00000248                __vector_offset_84 = DEFINED (__vector_dispatch_84)?(. - _ebase_address):__vector_offset_default
 *(.vector_84)
                0x9d000208                . = ALIGN (0x4)
                0x00000248                __vector_offset_85 = DEFINED (__vector_dispatch_85)?(. - _ebase_address):__vector_offset_default
 *(.vector_85)
                0x9d000208                . = ALIGN (0x4)
                0x00000248                __vector_offset_86 = DEFINED (__vector_dispatch_86)?(. - _ebase_address):__vector_offset_default
 *(.vector_86)
                0x9d000208                . = ALIGN (0x4)
                0x00000248                __vector_offset_87 = DEFINED (__vector_dispatch_87)?(. - _ebase_address):__vector_offset_default
 *(.vector_87)
                0x9d000208                . = ALIGN (0x4)
                0x00000248                __vector_offset_88 = DEFINED (__vector_dispatch_88)?(. - _ebase_address):__vector_offset_default
 *(.vector_88)
                0x9d000208                . = ALIGN (0x4)
                0x00000248                __vector_offset_89 = DEFINED (__vector_dispatch_89)?(. - _ebase_address):__vector_offset_default
 *(.vector_89)
                0x9d000208                . = ALIGN (0x4)
                0x00000248                __vector_offset_90 = DEFINED (__vector_dispatch_90)?(. - _ebase_address):__vector_offset_default
 *(.vector_90)
                0x9d000208                . = ALIGN (0x4)
                0x00000248                __vector_offset_91 = DEFINED (__vector_dispatch_91)?(. - _ebase_address):__vector_offset_default
 *(.vector_91)
                0x9d000208                . = ALIGN (0x4)
                0x00000248                __vector_offset_92 = DEFINED (__vector_dispatch_92)?(. - _ebase_address):__vector_offset_default
 *(.vector_92)
                0x9d000208                . = ALIGN (0x4)
                0x00000248                __vector_offset_93 = DEFINED (__vector_dispatch_93)?(. - _ebase_address):__vector_offset_default
 *(.vector_93)
                0x9d000208                . = ALIGN (0x4)
                0x00000248                __vector_offset_94 = DEFINED (__vector_dispatch_94)?(. - _ebase_address):__vector_offset_default
 *(.vector_94)
                0x9d000208                . = ALIGN (0x4)
                0x00000248                __vector_offset_95 = DEFINED (__vector_dispatch_95)?(. - _ebase_address):__vector_offset_default
 *(.vector_95)
                0x9d000208                . = ALIGN (0x4)
                0x00000248                __vector_offset_96 = DEFINED (__vector_dispatch_96)?(. - _ebase_address):__vector_offset_default
 *(.vector_96)
                0x9d000208                . = ALIGN (0x4)
                0x00000248                __vector_offset_97 = DEFINED (__vector_dispatch_97)?(. - _ebase_address):__vector_offset_default
 *(.vector_97)
                0x9d000208                . = ALIGN (0x4)
                0x00000248                __vector_offset_98 = DEFINED (__vector_dispatch_98)?(. - _ebase_address):__vector_offset_default
 *(.vector_98)
                0x9d000208                . = ALIGN (0x4)
                0x00000248                __vector_offset_99 = DEFINED (__vector_dispatch_99)?(. - _ebase_address):__vector_offset_default
 *(.vector_99)
                0x9d000208                . = ALIGN (0x4)
                0x00000248                __vector_offset_100 = DEFINED (__vector_dispatch_100)?(. - _ebase_address):__vector_offset_default
 *(.vector_100)
                0x9d000208                . = ALIGN (0x4)
                0x00000248                __vector_offset_101 = DEFINED (__vector_dispatch_101)?(. - _ebase_address):__vector_offset_default
 *(.vector_101)
                0x9d000208                . = ALIGN (0x4)
                0x00000248                __vector_offset_102 = DEFINED (__vector_dispatch_102)?(. - _ebase_address):__vector_offset_default
 *(.vector_102)
                0x9d000208                . = ALIGN (0x4)
                0x00000248                __vector_offset_103 = DEFINED (__vector_dispatch_103)?(. - _ebase_address):__vector_offset_default
 *(.vector_103)
                0x9d000208                . = ALIGN (0x4)
                0x00000248                __vector_offset_104 = DEFINED (__vector_dispatch_104)?(. - _ebase_address):__vector_offset_default
 *(.vector_104)
                0x9d000208                . = ALIGN (0x4)
                0x00000248                __vector_offset_105 = DEFINED (__vector_dispatch_105)?(. - _ebase_address):__vector_offset_default
 *(.vector_105)
                0x9d000208                . = ALIGN (0x4)
                0x00000248                __vector_offset_106 = DEFINED (__vector_dispatch_106)?(. - _ebase_address):__vector_offset_default
 *(.vector_106)
                0x9d000208                . = ALIGN (0x4)
                0x00000248                __vector_offset_107 = DEFINED (__vector_dispatch_107)?(. - _ebase_address):__vector_offset_default
 *(.vector_107)
                0x9d000208                . = ALIGN (0x4)
                0x00000248                __vector_offset_108 = DEFINED (__vector_dispatch_108)?(. - _ebase_address):__vector_offset_default
 *(.vector_108)
                0x9d000208                . = ALIGN (0x4)
                0x00000248                __vector_offset_109 = DEFINED (__vector_dispatch_109)?(. - _ebase_address):__vector_offset_default
 *(.vector_109)
                0x9d000208                . = ALIGN (0x4)
                0x00000248                __vector_offset_110 = DEFINED (__vector_dispatch_110)?(. - _ebase_address):__vector_offset_default
 *(.vector_110)
                0x9d000208                . = ALIGN (0x4)
                0x00000248                __vector_offset_111 = DEFINED (__vector_dispatch_111)?(. - _ebase_address):__vector_offset_default
 *(.vector_111)
                0x9d000208                . = ALIGN (0x4)
                0x00000248                __vector_offset_112 = DEFINED (__vector_dispatch_112)?(. - _ebase_address):__vector_offset_default
 *(.vector_112)
                0x9d000208                . = ALIGN (0x4)
                0x00000248                __vector_offset_113 = DEFINED (__vector_dispatch_113)?(. - _ebase_address):__vector_offset_default
 *(.vector_113)
                0x9d000208                . = ALIGN (0x4)
                0x00000248                __vector_offset_114 = DEFINED (__vector_dispatch_114)?(. - _ebase_address):__vector_offset_default
 *(.vector_114)
                0x9d000208                . = ALIGN (0x4)
                0x00000208                __vector_offset_115 = DEFINED (__vector_dispatch_115)?(. - _ebase_address):__vector_offset_default
 *(.vector_115)
 .vector_115    0x9d000208        0x8 build/default/production/_ext/1171490990/interrupts.o
                0x9d000208                __vector_dispatch_115
                0x9d000210                . = ALIGN (0x4)
                0x00000248                __vector_offset_116 = DEFINED (__vector_dispatch_116)?(. - _ebase_address):__vector_offset_default
 *(.vector_116)
                0x9d000210                . = ALIGN (0x4)
                0x00000210                __vector_offset_117 = DEFINED (__vector_dispatch_117)?(. - _ebase_address):__vector_offset_default
 *(.vector_117)
 .vector_117    0x9d000210        0x8 build/default/production/_ext/1171490990/interrupts.o
                0x9d000210                __vector_dispatch_117
                0x9d000218                . = ALIGN (0x4)
                0x00000248                __vector_offset_118 = DEFINED (__vector_dispatch_118)?(. - _ebase_address):__vector_offset_default
 *(.vector_118)
                0x9d000218                . = ALIGN (0x4)
                0x00000248                __vector_offset_119 = DEFINED (__vector_dispatch_119)?(. - _ebase_address):__vector_offset_default
 *(.vector_119)
                0x9d000218                . = ALIGN (0x4)
                0x00000248                __vector_offset_120 = DEFINED (__vector_dispatch_120)?(. - _ebase_address):__vector_offset_default
 *(.vector_120)
                0x9d000218                . = ALIGN (0x4)
                0x00000248                __vector_offset_121 = DEFINED (__vector_dispatch_121)?(. - _ebase_address):__vector_offset_default
 *(.vector_121)
                0x9d000218                . = ALIGN (0x4)
                0x00000248                __vector_offset_122 = DEFINED (__vector_dispatch_122)?(. - _ebase_address):__vector_offset_default
 *(.vector_122)
                0x9d000218                . = ALIGN (0x4)
                0x00000248                __vector_offset_123 = DEFINED (__vector_dispatch_123)?(. - _ebase_address):__vector_offset_default
 *(.vector_123)
                0x9d000218                . = ALIGN (0x4)
                0x00000248                __vector_offset_124 = DEFINED (__vector_dispatch_124)?(. - _ebase_address):__vector_offset_default
 *(.vector_124)
                0x9d000218                . = ALIGN (0x4)
                0x00000248                __vector_offset_125 = DEFINED (__vector_dispatch_125)?(. - _ebase_address):__vector_offset_default
 *(.vector_125)
                0x9d000218                . = ALIGN (0x4)
                0x00000248                __vector_offset_126 = DEFINED (__vector_dispatch_126)?(. - _ebase_address):__vector_offset_default
 *(.vector_126)
                0x9d000218                . = ALIGN (0x4)
                0x00000248                __vector_offset_127 = DEFINED (__vector_dispatch_127)?(. - _ebase_address):__vector_offset_default
 *(.vector_127)
                0x9d000218                . = ALIGN (0x4)
                0x00000248                __vector_offset_128 = DEFINED (__vector_dispatch_128)?(. - _ebase_address):__vector_offset_default
 *(.vector_128)
                0x9d000218                . = ALIGN (0x4)
                0x00000248                __vector_offset_129 = DEFINED (__vector_dispatch_129)?(. - _ebase_address):__vector_offset_default
 *(.vector_129)
                0x9d000218                . = ALIGN (0x4)
                0x00000248                __vector_offset_130 = DEFINED (__vector_dispatch_130)?(. - _ebase_address):__vector_offset_default
 *(.vector_130)
                0x9d000218                . = ALIGN (0x4)
                0x00000248                __vector_offset_131 = DEFINED (__vector_dispatch_131)?(. - _ebase_address):__vector_offset_default
 *(.vector_131)
                0x9d000218                . = ALIGN (0x4)
                0x00000248                __vector_offset_132 = DEFINED (__vector_dispatch_132)?(. - _ebase_address):__vector_offset_default
 *(.vector_132)
                0x9d000218                . = ALIGN (0x4)
                0x00000248                __vector_offset_133 = DEFINED (__vector_dispatch_133)?(. - _ebase_address):__vector_offset_default
 *(.vector_133)
                0x9d000218                . = ALIGN (0x4)
                0x00000248                __vector_offset_134 = DEFINED (__vector_dispatch_134)?(. - _ebase_address):__vector_offset_default
 *(.vector_134)
                0x9d000218                . = ALIGN (0x4)
                0x00000248                __vector_offset_135 = DEFINED (__vector_dispatch_135)?(. - _ebase_address):__vector_offset_default
 *(.vector_135)
                0x9d000218                . = ALIGN (0x4)
                0x00000248                __vector_offset_136 = DEFINED (__vector_dispatch_136)?(. - _ebase_address):__vector_offset_default
 *(.vector_136)
                0x9d000218                . = ALIGN (0x4)
                0x00000248                __vector_offset_137 = DEFINED (__vector_dispatch_137)?(. - _ebase_address):__vector_offset_default
 *(.vector_137)
                0x9d000218                . = ALIGN (0x4)
                0x00000248                __vector_offset_138 = DEFINED (__vector_dispatch_138)?(. - _ebase_address):__vector_offset_default
 *(.vector_138)
                0x9d000218                . = ALIGN (0x4)
                0x00000248                __vector_offset_139 = DEFINED (__vector_dispatch_139)?(. - _ebase_address):__vector_offset_default
 *(.vector_139)
                0x9d000218                . = ALIGN (0x4)
                0x00000248                __vector_offset_140 = DEFINED (__vector_dispatch_140)?(. - _ebase_address):__vector_offset_default
 *(.vector_140)
                0x9d000218                . = ALIGN (0x4)
                0x00000248                __vector_offset_141 = DEFINED (__vector_dispatch_141)?(. - _ebase_address):__vector_offset_default
 *(.vector_141)
                0x9d000218                . = ALIGN (0x4)
                0x00000248                __vector_offset_142 = DEFINED (__vector_dispatch_142)?(. - _ebase_address):__vector_offset_default
 *(.vector_142)
                0x9d000218                . = ALIGN (0x4)
                0x00000248                __vector_offset_143 = DEFINED (__vector_dispatch_143)?(. - _ebase_address):__vector_offset_default
 *(.vector_143)
                0x9d000218                . = ALIGN (0x4)
                0x00000248                __vector_offset_144 = DEFINED (__vector_dispatch_144)?(. - _ebase_address):__vector_offset_default
 *(.vector_144)
                0x9d000218                . = ALIGN (0x4)
                0x00000218                __vector_offset_145 = DEFINED (__vector_dispatch_145)?(. - _ebase_address):__vector_offset_default
 *(.vector_145)
 .vector_145    0x9d000218        0x8 build/default/production/_ext/1171490990/interrupts.o
                0x9d000218                __vector_dispatch_145
                0x9d000220                . = ALIGN (0x4)
                0x00000220                __vector_offset_146 = DEFINED (__vector_dispatch_146)?(. - _ebase_address):__vector_offset_default
 *(.vector_146)
 .vector_146    0x9d000220        0x8 build/default/production/_ext/1171490990/interrupts.o
                0x9d000220                __vector_dispatch_146
                0x9d000228                . = ALIGN (0x4)
                0x00000228                __vector_offset_147 = DEFINED (__vector_dispatch_147)?(. - _ebase_address):__vector_offset_default
 *(.vector_147)
 .vector_147    0x9d000228        0x8 build/default/production/_ext/1171490990/interrupts.o
                0x9d000228                __vector_dispatch_147
                0x9d000230                . = ALIGN (0x4)
                0x00000248                __vector_offset_148 = DEFINED (__vector_dispatch_148)?(. - _ebase_address):__vector_offset_default
 *(.vector_148)
                0x9d000230                . = ALIGN (0x4)
                0x00000248                __vector_offset_149 = DEFINED (__vector_dispatch_149)?(. - _ebase_address):__vector_offset_default
 *(.vector_149)
                0x9d000230                . = ALIGN (0x4)
                0x00000248                __vector_offset_150 = DEFINED (__vector_dispatch_150)?(. - _ebase_address):__vector_offset_default
 *(.vector_150)
                0x9d000230                . = ALIGN (0x4)
                0x00000248                __vector_offset_151 = DEFINED (__vector_dispatch_151)?(. - _ebase_address):__vector_offset_default
 *(.vector_151)
                0x9d000230                . = ALIGN (0x4)
                0x00000248                __vector_offset_152 = DEFINED (__vector_dispatch_152)?(. - _ebase_address):__vector_offset_default
 *(.vector_152)
                0x9d000230                . = ALIGN (0x4)
                0x00000248                __vector_offset_153 = DEFINED (__vector_dispatch_153)?(. - _ebase_address):__vector_offset_default
 *(.vector_153)
                0x9d000230                . = ALIGN (0x4)
                0x00000248                __vector_offset_154 = DEFINED (__vector_dispatch_154)?(. - _ebase_address):__vector_offset_default
 *(.vector_154)
                0x9d000230                . = ALIGN (0x4)
                0x00000248                __vector_offset_155 = DEFINED (__vector_dispatch_155)?(. - _ebase_address):__vector_offset_default
 *(.vector_155)
                0x9d000230                . = ALIGN (0x4)
                0x00000248                __vector_offset_156 = DEFINED (__vector_dispatch_156)?(. - _ebase_address):__vector_offset_default
 *(.vector_156)
                0x9d000230                . = ALIGN (0x4)
                0x00000248                __vector_offset_157 = DEFINED (__vector_dispatch_157)?(. - _ebase_address):__vector_offset_default
 *(.vector_157)
                0x9d000230                . = ALIGN (0x4)
                0x00000248                __vector_offset_158 = DEFINED (__vector_dispatch_158)?(. - _ebase_address):__vector_offset_default
 *(.vector_158)
                0x9d000230                . = ALIGN (0x4)
                0x00000248                __vector_offset_159 = DEFINED (__vector_dispatch_159)?(. - _ebase_address):__vector_offset_default
 *(.vector_159)
                0x9d000230                . = ALIGN (0x4)
                0x00000248                __vector_offset_160 = DEFINED (__vector_dispatch_160)?(. - _ebase_address):__vector_offset_default
 *(.vector_160)
                0x9d000230                . = ALIGN (0x4)
                0x00000248                __vector_offset_161 = DEFINED (__vector_dispatch_161)?(. - _ebase_address):__vector_offset_default
 *(.vector_161)
                0x9d000230                . = ALIGN (0x4)
                0x00000248                __vector_offset_162 = DEFINED (__vector_dispatch_162)?(. - _ebase_address):__vector_offset_default
 *(.vector_162)
                0x9d000230                . = ALIGN (0x4)
                0x00000248                __vector_offset_163 = DEFINED (__vector_dispatch_163)?(. - _ebase_address):__vector_offset_default
 *(.vector_163)
                0x9d000230                . = ALIGN (0x4)
                0x00000248                __vector_offset_164 = DEFINED (__vector_dispatch_164)?(. - _ebase_address):__vector_offset_default
 *(.vector_164)
                0x9d000230                . = ALIGN (0x4)
                0x00000248                __vector_offset_165 = DEFINED (__vector_dispatch_165)?(. - _ebase_address):__vector_offset_default
 *(.vector_165)
                0x9d000230                . = ALIGN (0x4)
                0x00000248                __vector_offset_166 = DEFINED (__vector_dispatch_166)?(. - _ebase_address):__vector_offset_default
 *(.vector_166)
                0x9d000230                . = ALIGN (0x4)
                0x00000248                __vector_offset_167 = DEFINED (__vector_dispatch_167)?(. - _ebase_address):__vector_offset_default
 *(.vector_167)
                0x9d000230                . = ALIGN (0x4)
                0x00000248                __vector_offset_168 = DEFINED (__vector_dispatch_168)?(. - _ebase_address):__vector_offset_default
 *(.vector_168)
                0x9d000230                . = ALIGN (0x4)
                0x00000248                __vector_offset_169 = DEFINED (__vector_dispatch_169)?(. - _ebase_address):__vector_offset_default
 *(.vector_169)
                0x9d000230                . = ALIGN (0x4)
                0x00000248                __vector_offset_170 = DEFINED (__vector_dispatch_170)?(. - _ebase_address):__vector_offset_default
 *(.vector_170)
                0x9d000230                . = ALIGN (0x4)
                0x00000248                __vector_offset_171 = DEFINED (__vector_dispatch_171)?(. - _ebase_address):__vector_offset_default
 *(.vector_171)
                0x9d000230                . = ALIGN (0x4)
                0x00000248                __vector_offset_172 = DEFINED (__vector_dispatch_172)?(. - _ebase_address):__vector_offset_default
 *(.vector_172)
                0x9d000230                . = ALIGN (0x4)
                0x00000248                __vector_offset_173 = DEFINED (__vector_dispatch_173)?(. - _ebase_address):__vector_offset_default
 *(.vector_173)
                0x9d000230                . = ALIGN (0x4)
                0x00000248                __vector_offset_174 = DEFINED (__vector_dispatch_174)?(. - _ebase_address):__vector_offset_default
 *(.vector_174)
                0x9d000230                . = ALIGN (0x4)
                0x00000248                __vector_offset_175 = DEFINED (__vector_dispatch_175)?(. - _ebase_address):__vector_offset_default
 *(.vector_175)
                0x9d000230                . = ALIGN (0x4)
                0x00000248                __vector_offset_176 = DEFINED (__vector_dispatch_176)?(. - _ebase_address):__vector_offset_default
 *(.vector_176)
                0x9d000230                . = ALIGN (0x4)
                0x00000248                __vector_offset_177 = DEFINED (__vector_dispatch_177)?(. - _ebase_address):__vector_offset_default
 *(.vector_177)
                0x9d000230                . = ALIGN (0x4)
                0x00000248                __vector_offset_178 = DEFINED (__vector_dispatch_178)?(. - _ebase_address):__vector_offset_default
 *(.vector_178)
                0x9d000230                . = ALIGN (0x4)
                0x00000230                __vector_offset_179 = DEFINED (__vector_dispatch_179)?(. - _ebase_address):__vector_offset_default
 *(.vector_179)
 .vector_179    0x9d000230        0x8 build/default/production/_ext/1171490990/interrupts.o
                0x9d000230                __vector_dispatch_179
                0x9d000238                . = ALIGN (0x4)
                0x00000238                __vector_offset_180 = DEFINED (__vector_dispatch_180)?(. - _ebase_address):__vector_offset_default
 *(.vector_180)
 .vector_180    0x9d000238        0x8 build/default/production/_ext/1171490990/interrupts.o
                0x9d000238                __vector_dispatch_180
                0x9d000240                . = ALIGN (0x4)
                0x00000240                __vector_offset_181 = DEFINED (__vector_dispatch_181)?(. - _ebase_address):__vector_offset_default
 *(.vector_181)
 .vector_181    0x9d000240        0x8 build/default/production/_ext/1171490990/interrupts.o
                0x9d000240                __vector_dispatch_181
                0x9d000248                . = ALIGN (0x4)
                0x00000248                __vector_offset_182 = DEFINED (__vector_dispatch_182)?(. - _ebase_address):__vector_offset_default
 *(.vector_182)
                0x9d000248                . = ALIGN (0x4)
                0x00000248                __vector_offset_183 = DEFINED (__vector_dispatch_183)?(. - _ebase_address):__vector_offset_default
 *(.vector_183)
                0x9d000248                . = ALIGN (0x4)
                0x00000248                __vector_offset_184 = DEFINED (__vector_dispatch_184)?(. - _ebase_address):__vector_offset_default
 *(.vector_184)
                0x9d000248                . = ALIGN (0x4)
                0x00000248                __vector_offset_185 = DEFINED (__vector_dispatch_185)?(. - _ebase_address):__vector_offset_default
 *(.vector_185)
                0x9d000248                . = ALIGN (0x4)
                0x00000248                __vector_offset_186 = DEFINED (__vector_dispatch_186)?(. - _ebase_address):__vector_offset_default
 *(.vector_186)
                0x9d000248                . = ALIGN (0x4)
                0x00000248                __vector_offset_187 = DEFINED (__vector_dispatch_187)?(. - _ebase_address):__vector_offset_default
 *(.vector_187)
                0x9d000248                . = ALIGN (0x4)
                0x00000248                __vector_offset_188 = DEFINED (__vector_dispatch_188)?(. - _ebase_address):__vector_offset_default
 *(.vector_188)
                0x9d000248                . = ALIGN (0x4)
                0x00000248                __vector_offset_189 = DEFINED (__vector_dispatch_189)?(. - _ebase_address):__vector_offset_default
 *(.vector_189)
                0x9d000248                . = ALIGN (0x4)
                0x00000248                __vector_offset_190 = DEFINED (__vector_dispatch_190)?(. - _ebase_address):__vector_offset_default
 *(.vector_190)
                0x9d000248                . = ALIGN (0x4)
                0x00000248                __vector_offset_191 = DEFINED (__vector_dispatch_191)?(. - _ebase_address):__vector_offset_default
 *(.vector_191)
                0x9d000248                . = ALIGN (0x4)
                0x00000248                __vector_offset_192 = DEFINED (__vector_dispatch_192)?(. - _ebase_address):__vector_offset_default
 *(.vector_192)
                0x9d000248                . = ALIGN (0x4)
                0x00000248                __vector_offset_193 = DEFINED (__vector_dispatch_193)?(. - _ebase_address):__vector_offset_default
 *(.vector_193)
                0x9d000248                . = ALIGN (0x4)
                0x00000248                __vector_offset_194 = DEFINED (__vector_dispatch_194)?(. - _ebase_address):__vector_offset_default
 *(.vector_194)
                0x9d000248                . = ALIGN (0x4)
                0x00000248                __vector_offset_195 = DEFINED (__vector_dispatch_195)?(. - _ebase_address):__vector_offset_default
 *(.vector_195)
                0x9d000248                . = ALIGN (0x4)
                0x00000248                __vector_offset_196 = DEFINED (__vector_dispatch_196)?(. - _ebase_address):__vector_offset_default
 *(.vector_196)
                0x9d000248                . = ALIGN (0x4)
                0x00000248                __vector_offset_197 = DEFINED (__vector_dispatch_197)?(. - _ebase_address):__vector_offset_default
 *(.vector_197)
                0x9d000248                . = ALIGN (0x4)
                0x00000248                __vector_offset_198 = DEFINED (__vector_dispatch_198)?(. - _ebase_address):__vector_offset_default
 *(.vector_198)
                0x9d000248                . = ALIGN (0x4)
                0x00000248                __vector_offset_199 = DEFINED (__vector_dispatch_199)?(. - _ebase_address):__vector_offset_default
 *(.vector_199)
                0x9d000248                . = ALIGN (0x4)
                0x00000248                __vector_offset_200 = DEFINED (__vector_dispatch_200)?(. - _ebase_address):__vector_offset_default
 *(.vector_200)
                0x9d000248                . = ALIGN (0x4)
                0x00000248                __vector_offset_201 = DEFINED (__vector_dispatch_201)?(. - _ebase_address):__vector_offset_default
 *(.vector_201)
                0x9d000248                . = ALIGN (0x4)
                0x00000248                __vector_offset_202 = DEFINED (__vector_dispatch_202)?(. - _ebase_address):__vector_offset_default
 *(.vector_202)
                0x9d000248                . = ALIGN (0x4)
                0x00000248                __vector_offset_203 = DEFINED (__vector_dispatch_203)?(. - _ebase_address):__vector_offset_default
 *(.vector_203)
                0x9d000248                . = ALIGN (0x4)
                0x00000248                __vector_offset_204 = DEFINED (__vector_dispatch_204)?(. - _ebase_address):__vector_offset_default
 *(.vector_204)
                0x9d000248                . = ALIGN (0x4)
                0x00000248                __vector_offset_205 = DEFINED (__vector_dispatch_205)?(. - _ebase_address):__vector_offset_default
 *(.vector_205)
                0x9d000248                . = ALIGN (0x4)
                0x00000248                __vector_offset_206 = DEFINED (__vector_dispatch_206)?(. - _ebase_address):__vector_offset_default
 *(.vector_206)
                0x9d000248                . = ALIGN (0x4)
                0x00000248                __vector_offset_207 = DEFINED (__vector_dispatch_207)?(. - _ebase_address):__vector_offset_default
 *(.vector_207)
                0x9d000248                . = ALIGN (0x4)
                0x00000248                __vector_offset_208 = DEFINED (__vector_dispatch_208)?(. - _ebase_address):__vector_offset_default
 *(.vector_208)
                0x9d000248                . = ALIGN (0x4)
                0x00000248                __vector_offset_209 = DEFINED (__vector_dispatch_209)?(. - _ebase_address):__vector_offset_default
 *(.vector_209)
                0x9d000248                . = ALIGN (0x4)
                0x00000248                __vector_offset_210 = DEFINED (__vector_dispatch_210)?(. - _ebase_address):__vector_offset_default
 *(.vector_210)
                0x9d000248                . = ALIGN (0x4)
                0x00000248                __vector_offset_211 = DEFINED (__vector_dispatch_211)?(. - _ebase_address):__vector_offset_default
 *(.vector_211)
                0x9d000248                . = ALIGN (0x4)
                0x00000248                __vector_offset_212 = DEFINED (__vector_dispatch_212)?(. - _ebase_address):__vector_offset_default
 *(.vector_212)
                0x9d000248                . = ALIGN (0x4)
                0x00000248                __vector_offset_213 = DEFINED (__vector_dispatch_213)?(. - _ebase_address):__vector_offset_default
 *(.vector_213)
                0x9d000248                . = ALIGN (0x4)
                0x00000248                __vector_offset_214 = DEFINED (__vector_dispatch_214)?(. - _ebase_address):__vector_offset_default
 *(.vector_214)
                0x9d000248                . = ALIGN (0x4)
                0x00000248                __vector_offset_215 = DEFINED (__vector_dispatch_215)?(. - _ebase_address):__vector_offset_default
 *(.vector_215)
                0x9d000248                . = ALIGN (0x4)
                0x00000248                __vector_offset_216 = DEFINED (__vector_dispatch_216)?(. - _ebase_address):__vector_offset_default
 *(.vector_216)
                0x9d000248                . = ALIGN (0x4)
                0x00000248                __vector_offset_217 = DEFINED (__vector_dispatch_217)?(. - _ebase_address):__vector_offset_default
 *(.vector_217)
                0x9d000248                . = ALIGN (0x4)
                0x00000248                __vector_offset_218 = DEFINED (__vector_dispatch_218)?(. - _ebase_address):__vector_offset_default
 *(.vector_218)
                0x9d000248                . = ALIGN (0x4)
                0x00000248                __vector_offset_219 = DEFINED (__vector_dispatch_219)?(. - _ebase_address):__vector_offset_default
 *(.vector_219)
                0x9d000248                . = ALIGN (0x4)
                0x00000248                __vector_offset_220 = DEFINED (__vector_dispatch_220)?(. - _ebase_address):__vector_offset_default
 *(.vector_220)
                0x9d000248                . = ALIGN (0x4)
                0x00000248                __vector_offset_221 = DEFINED (__vector_dispatch_221)?(. - _ebase_address):__vector_offset_default
 *(.vector_221)
                0x9d000248                . = ALIGN (0x4)
                0x00000248                __vector_offset_222 = DEFINED (__vector_dispatch_222)?(. - _ebase_address):__vector_offset_default
 *(.vector_222)
                0x9d000248                . = ALIGN (0x4)
                0x00000248                __vector_offset_223 = DEFINED (__vector_dispatch_223)?(. - _ebase_address):__vector_offset_default
 *(.vector_223)
                0x9d000248                . = ALIGN (0x4)
                0x00000248                __vector_offset_224 = DEFINED (__vector_dispatch_224)?(. - _ebase_address):__vector_offset_default
 *(.vector_224)
                0x9d000248                . = ALIGN (0x4)
                0x00000248                __vector_offset_225 = DEFINED (__vector_dispatch_225)?(. - _ebase_address):__vector_offset_default
 *(.vector_225)
                0x9d000248                . = ALIGN (0x4)
                0x00000248                __vector_offset_226 = DEFINED (__vector_dispatch_226)?(. - _ebase_address):__vector_offset_default
 *(.vector_226)
                0x9d000248                . = ALIGN (0x4)
                0x00000248                __vector_offset_227 = DEFINED (__vector_dispatch_227)?(. - _ebase_address):__vector_offset_default
 *(.vector_227)
                0x9d000248                . = ALIGN (0x4)
                0x00000248                __vector_offset_228 = DEFINED (__vector_dispatch_228)?(. - _ebase_address):__vector_offset_default
 *(.vector_228)
                0x9d000248                . = ALIGN (0x4)
                0x00000248                __vector_offset_229 = DEFINED (__vector_dispatch_229)?(. - _ebase_address):__vector_offset_default
 *(.vector_229)
                0x9d000248                . = ALIGN (0x4)
                0x00000248                __vector_offset_230 = DEFINED (__vector_dispatch_230)?(. - _ebase_address):__vector_offset_default
 *(.vector_230)
                0x9d000248                . = ALIGN (0x4)
                0x00000248                __vector_offset_231 = DEFINED (__vector_dispatch_231)?(. - _ebase_address):__vector_offset_default
 *(.vector_231)
                0x9d000248                . = ALIGN (0x4)
                0x00000248                __vector_offset_232 = DEFINED (__vector_dispatch_232)?(. - _ebase_address):__vector_offset_default
 *(.vector_232)
                0x9d000248                . = ALIGN (0x4)
                0x00000248                __vector_offset_233 = DEFINED (__vector_dispatch_233)?(. - _ebase_address):__vector_offset_default
 *(.vector_233)
                0x9d000248                . = ALIGN (0x4)
                0x00000248                __vector_offset_234 = DEFINED (__vector_dispatch_234)?(. - _ebase_address):__vector_offset_default
 *(.vector_234)
                0x9d000248                . = ALIGN (0x4)
                0x00000248                __vector_offset_235 = DEFINED (__vector_dispatch_235)?(. - _ebase_address):__vector_offset_default
 *(.vector_235)
                0x9d000248                . = ALIGN (0x4)
                0x00000248                __vector_offset_236 = DEFINED (__vector_dispatch_236)?(. - _ebase_address):__vector_offset_default
 *(.vector_236)
                0x9d000248                . = ALIGN (0x4)
                0x00000248                __vector_offset_237 = DEFINED (__vector_dispatch_237)?(. - _ebase_address):__vector_offset_default
 *(.vector_237)
                0x9d000248                . = ALIGN (0x4)
                0x00000248                __vector_offset_238 = DEFINED (__vector_dispatch_238)?(. - _ebase_address):__vector_offset_default
 *(.vector_238)
                0x9d000248                . = ALIGN (0x4)
                0x00000248                __vector_offset_239 = DEFINED (__vector_dispatch_239)?(. - _ebase_address):__vector_offset_default
 *(.vector_239)
                0x9d000248                . = ALIGN (0x4)
                0x00000248                __vector_offset_240 = DEFINED (__vector_dispatch_240)?(. - _ebase_address):__vector_offset_default
 *(.vector_240)
                0x9d000248                . = ALIGN (0x4)
                0x00000248                __vector_offset_241 = DEFINED (__vector_dispatch_241)?(. - _ebase_address):__vector_offset_default
 *(.vector_241)
                0x9d000248                . = ALIGN (0x4)
                0x00000248                __vector_offset_242 = DEFINED (__vector_dispatch_242)?(. - _ebase_address):__vector_offset_default
 *(.vector_242)
                0x9d000248                . = ALIGN (0x4)
                0x00000248                __vector_offset_243 = DEFINED (__vector_dispatch_243)?(. - _ebase_address):__vector_offset_default
 *(.vector_243)
                0x9d000248                . = ALIGN (0x4)
                0x00000248                __vector_offset_244 = DEFINED (__vector_dispatch_244)?(. - _ebase_address):__vector_offset_default
 *(.vector_244)
                0x9d000248                . = ALIGN (0x4)
                0x00000248                __vector_offset_245 = DEFINED (__vector_dispatch_245)?(. - _ebase_address):__vector_offset_default
 *(.vector_245)
                0x9d000248                . = ALIGN (0x4)
                0x00000248                __vector_offset_246 = DEFINED (__vector_dispatch_246)?(. - _ebase_address):__vector_offset_default
 *(.vector_246)
                0x9d000248                . = ALIGN (0x4)
                0x00000248                __vector_offset_247 = DEFINED (__vector_dispatch_247)?(. - _ebase_address):__vector_offset_default
 *(.vector_247)
                0x9d000248                . = ALIGN (0x4)
                0x00000248                __vector_offset_248 = DEFINED (__vector_dispatch_248)?(. - _ebase_address):__vector_offset_default
 *(.vector_248)
                0x9d000248                . = ALIGN (0x4)
                0x00000248                __vector_offset_249 = DEFINED (__vector_dispatch_249)?(. - _ebase_address):__vector_offset_default
 *(.vector_249)
                0x9d000248                . = ALIGN (0x4)
                0x00000248                __vector_offset_250 = DEFINED (__vector_dispatch_250)?(. - _ebase_address):__vector_offset_default
 *(.vector_250)
                0x9d000248                . = ALIGN (0x4)
                0x00000248                __vector_offset_251 = DEFINED (__vector_dispatch_251)?(. - _ebase_address):__vector_offset_default
 *(.vector_251)
                0x9d000248                . = ALIGN (0x4)
                0x00000248                __vector_offset_252 = DEFINED (__vector_dispatch_252)?(. - _ebase_address):__vector_offset_default
 *(.vector_252)
                0x9d000248                . = ALIGN (0x4)
                0x00000248                __vector_offset_253 = DEFINED (__vector_dispatch_253)?(. - _ebase_address):__vector_offset_default
 *(.vector_253)
                0x9d000248                . = ALIGN (0x4)
                0x00000248                __vector_offset_254 = DEFINED (__vector_dispatch_254)?(. - _ebase_address):__vector_offset_default
 *(.vector_254)
                0x9d000248                . = ALIGN (0x4)
                0x00000248                __vector_offset_255 = DEFINED (__vector_dispatch_255)?(. - _ebase_address):__vector_offset_default
 *(.vector_255)
                0x9d000248                . = ALIGN (0x4)
                0x00000248                __vector_offset_default = (. - _ebase_address)
 *(.vector_default)
 .vector_default
                0x9d000248       0x48 /opt/microchip/xc32/v2.50/bin/bin/../../lib/gcc/pic32mx/4.8.3/../../../../pic32mx/lib/fpu64/libpic32.a(defaultinterrupt.o)
                0x9d000248                _DefaultInterrupt

.startup
 *(.startup)

.text           0x9d000290        0x0
 *(.stub .gnu.linkonce.t.*)
 *(.text.*personality*)
 *(.mips16.fn.*)
 *(.mips16.call.*)
 *(.gnu.warning)
                0x9d000290                . = ALIGN (0x4)

.init           0x9d000290        0x0
 *crti.o(.init)
 *crtbegin.o(.init)
 *(EXCLUDE_FILE(*crtn.o *crtend?.o *crtend.o) .init)
 *crtend.o(.init)
 *crtn.o(.init)
                0x9d000290                . = ALIGN (0x4)

.fini           0x9d000290        0x0
 *(.fini)
                0x9d000290                . = ALIGN (0x4)

.preinit_array  0x9d000290        0x0
                0x9d000290                PROVIDE (__preinit_array_start, .)
 *(.preinit_array)
                0x9d000290                PROVIDE (__preinit_array_end, .)
                0x9d000290                . = ALIGN (0x4)

.init_array     0x9d000290        0x0
                0x9d000290                PROVIDE (__init_array_start, .)
 *(SORT(.init_array.*))
 *(.init_array)
                0x9d000290                PROVIDE (__init_array_end, .)
                0x9d000290                . = ALIGN (0x4)

.fini_array     0x9d000290        0x0
                0x9d000290                PROVIDE (__fini_array_start, .)
 *(SORT(.fini_array.*))
 *(.fini_array)
                0x9d000290                PROVIDE (__fini_array_end, .)
                0x9d000290                . = ALIGN (0x4)

.ctors          0x9d000290        0x0
 *crtbegin.o(.ctors)
 *crtbegin?.o(.ctors)
 *(EXCLUDE_FILE(*crtend?.o *crtend.o) .ctors)
 *(SORT(.ctors.*))
 *(.ctors)
                0x9d000290                . = ALIGN (0x4)

.dtors          0x9d000290        0x0
 *crtbegin.o(.dtors)
 *crtbegin?.o(.dtors)
 *(EXCLUDE_FILE(*crtend?.o *crtend.o) .dtors)
 *(SORT(.dtors.*))
 *(.dtors)
                0x9d000290                . = ALIGN (0x4)

.rodata         0x9d000290        0x0
 *(.gnu.linkonce.r.*)
 *(.rodata1)
                0x9d000290                . = ALIGN (0x4)

.sdata2         0x9fc004b0        0x0
 *(.sdata2 .sdata2.* .gnu.linkonce.s2.*)
                0x9fc004b0                . = ALIGN (0x4)

.sbss2          0x9fc004b0        0x0
 *(.sbss2 .sbss2.* .gnu.linkonce.sb2.*)
                0x9fc004b0                . = ALIGN (0x4)

.eh_frame_hdr
 *(.eh_frame_hdr)
                0x9fc004b0                . = ALIGN (0x4)

.eh_frame
 *(.eh_frame)
                0x9fc004b0                . = ALIGN (0x4)

.gcc_except_table
 *(.gcc_except_table .gcc_except_table.*)
                0x9fc004b0                . = ALIGN (0x4)

.dbg_data       0x80000000        0x0
                0x80000000                . = (. + DEFINED (_DEBUGGER)?0x200:0x0)
                0x80000000                . = (. + DEFINED (_DEBUGGER)?0x80:0x0)
                0x80000000                . = (. + DEFINED (_DEBUGGER)?0x100:0x0)

.jcr            0x80000000        0x0
 *(.jcr)
                0x80000000                . = ALIGN (0x4)

.eh_frame
 *(.eh_frame)
                0x80000000                . = ALIGN (0x4)

.gcc_except_table
 *(.gcc_except_table .gcc_except_table.*)
                0x80000000                . = ALIGN (0x4)

.persist        0x80000000        0x0
                0x80000000                _persist_begin = .
 *(.persist .persist.*)
                0x80000000                . = ALIGN (0x4)
                0x80000000                _persist_end = .

.data           0x80000000        0x0
 *(.gnu.linkonce.d.*)
 *(.data1)
                0x80000000                . = ALIGN (0x4)
                0x80000000                . = .
                0x80007ff0                _gp = (ALIGN (0x10) + 0x7ff0)

.got            0x80000000        0x0
 *(.got.plt)
 *(.got)
                0x80000000                . = ALIGN (0x4)

.sdata          0x80000000       0x30
                0x80000000                _sdata_begin = .
 *(.sdata .sdata.* .gnu.linkonce.s.*)
 .sdata         0x80000000        0x4 build/default/production/_ext/1571292264/7segments.o
 .sdata         0x80000004        0x4 build/default/production/_ext/1249264884/plib_coretimer.o
 .sdata         0x80000008        0x1 build/default/production/_ext/1019397905/mainCubeMeteo.o
 *fill*         0x80000009        0x3 
 .sdata         0x8000000c       0x24 /opt/microchip/xc32/v2.50/bin/bin/../../lib/gcc/pic32mx/4.8.3/../../../../pic32mx/lib/fpu64/libpic32.a(pic32_init_cache.o)
                0x8000000c                __pic32_icache_size
                0x80000010                __pic32_icache_linesize
                0x80000014                __pic32_icache_ways
                0x80000018                __pic32_dcache_size
                0x8000001c                __pic32_dcache_linesize
                0x80000020                __pic32_dcache_ways
                0x80000024                __pic32_scache_size
                0x80000028                __pic32_scache_linesize
                0x8000002c                __pic32_scache_ways
                0x80000030                . = ALIGN (0x4)
                0x80000030                _sdata_end = .

.lit8
 *(.lit8)

.lit4
 *(.lit4)
                0x80000030                . = ALIGN (0x4)
                0x80000030                _data_end = .
                0x80000030                _bss_begin = .

.sbss           0x80000030       0x30
                0x80000030                _sbss_begin = .
 *(.dynsbss)
 *(.sbss .sbss.* .gnu.linkonce.sb.*)
 .sbss          0x80000030        0x4 build/default/production/_ext/1571292264/7segmentsOutputStream.o
 .sbss          0x80000034        0x4 build/default/production/_ext/383772639/buffer.o
 .sbss          0x80000038        0x4 build/default/production/_ext/92899495/system.o
 .sbss          0x8000003c        0x1 build/default/production/_ext/79239498/timer1.o
 .sbss          0x8000003d        0x3 build/default/production/_ext/1522154941/uart5.o
 .sbss          0x80000040        0x8 build/default/production/_ext/1865638794/plib_tmr1.o
 .sbss          0x80000048        0x8 build/default/production/_ext/1171490990/exceptions.o
 .sbss          0x80000050       0x10 build/default/production/_ext/1367680316/LM75A.o
 *(.scommon)
                0x80000060                _sbss_end = .
                0x80000060                . = ALIGN (0x4)

.bss            0x80000060       0x68
 *(.dynbss)
 *(COMMON)
 COMMON         0x80000060       0x34 build/default/production/_ext/1865657120/plib_uart2.o
                0x80000060                uart2Obj
 COMMON         0x80000094       0x34 build/default/production/_ext/1865657120/plib_uart5.o
                0x80000094                uart5Obj
                0x800000c8                . = ALIGN ((. != 0x0)?0x4:0x1)
                0x800000c8                . = ALIGN (0x4)
                0x800000c8                _end = .
                0x800000c8                _bss_end = .
                0x00080000                _bmxdudba_address = 0x80000
                0x00080000                _bmxdupba_address = 0x80000

/DISCARD/
 *(.pdr)
 *(.rel.dyn)
 *(.note.GNU-stack)
 *(.note.GNU-stack)
 *(.gnu_debuglink)
 *(.gnu.lto_*)
 *(.discard)

.gptab.sdata
 *(.gptab.data)
 *(.gptab.sdata)

.gptab.sbss
 *(.gptab.bss)
 *(.gptab.sbss)

.mdebug.abi32   0x00000000        0x0
 *(.mdebug.abi32)
 .mdebug.abi32  0x00000000        0x0 build/default/production/_ext/1571292264/7segments.o
 .mdebug.abi32  0x00000000        0x0 build/default/production/_ext/1571292264/7segmentsOutputStream.o
 .mdebug.abi32  0x00000000        0x0 build/default/production/_ext/1506567961/delay.o
 .mdebug.abi32  0x00000000        0x0 build/default/production/_ext/1507884958/error.o
 .mdebug.abi32  0x00000000        0x0 build/default/production/_ext/383772639/buffer.o
 .mdebug.abi32  0x00000000        0x0 build/default/production/_ext/242462784/outputStream.o
 .mdebug.abi32  0x00000000        0x0 build/default/production/_ext/1038083393/printWriter.o
 .mdebug.abi32  0x00000000        0x0 build/default/production/_ext/919093983/led.o
 .mdebug.abi32  0x00000000        0x0 build/default/production/_ext/1240316727/temperatureStream.o
 .mdebug.abi32  0x00000000        0x0 build/default/production/_ext/1240316727/temperature.o
 .mdebug.abi32  0x00000000        0x0 build/default/production/_ext/92899495/system.o
 .mdebug.abi32  0x00000000        0x0 build/default/production/_ext/79239498/timer1.o
 .mdebug.abi32  0x00000000        0x0 build/default/production/_ext/1522154941/uart5.o
 .mdebug.abi32  0x00000000        0x0 build/default/production/_ext/1984157808/plib_cache.o
 .mdebug.abi32  0x00000000        0x0 build/default/production/_ext/60165520/plib_clk.o
 .mdebug.abi32  0x00000000        0x0 build/default/production/_ext/1249264884/plib_coretimer.o
 .mdebug.abi32  0x00000000        0x0 build/default/production/_ext/1865200349/plib_evic.o
 .mdebug.abi32  0x00000000        0x0 build/default/production/_ext/1865254177/plib_gpio.o
 .mdebug.abi32  0x00000000        0x0 build/default/production/_ext/513455433/plib_i2c1_master.o
 .mdebug.abi32  0x00000000        0x0 build/default/production/_ext/60181895/plib_tmr2.o
 .mdebug.abi32  0x00000000        0x0 build/default/production/_ext/1865638794/plib_tmr1.o
 .mdebug.abi32  0x00000000        0x0 build/default/production/_ext/1865657120/plib_uart2.o
 .mdebug.abi32  0x00000000        0x0 build/default/production/_ext/1865657120/plib_uart5.o
 .mdebug.abi32  0x00000000        0x0 build/default/production/_ext/163028504/xc32_monitor.o
 .mdebug.abi32  0x00000000        0x0 build/default/production/_ext/1171490990/initialization.o
 .mdebug.abi32  0x00000000        0x0 build/default/production/_ext/1171490990/interrupts.o
 .mdebug.abi32  0x00000000        0x0 build/default/production/_ext/1171490990/exceptions.o
 .mdebug.abi32  0x00000000        0x0 build/default/production/_ext/1019397905/mainCubeMeteo.o
 .mdebug.abi32  0x00000000        0x0 build/default/production/_ext/1019397905/cubeCommon.o
 .mdebug.abi32  0x00000000        0x0 build/default/production/_ext/1367680316/LM75A.o
 .mdebug.abi32  0x00000000        0x0 build/default/production/_ext/672751358/SAA1064T.o
 .mdebug.abi32  0x00000000        0x0 build/default/production/_ext/1360937237/mainCube.o
 .mdebug.abi32  0x00000000        0x0 /opt/microchip/xc32/v2.50/bin/bin/../../lib/gcc/pic32mx/4.8.3/../../../../pic32mx/lib/fpu64/libpic32.a(default-on-reset.o)
 .mdebug.abi32  0x00000000        0x0 /opt/microchip/xc32/v2.50/bin/bin/../../lib/gcc/pic32mx/4.8.3/../../../../pic32mx/lib/fpu64/libpic32.a(default-on-bootstrap.o)
 .mdebug.abi32  0x00000000        0x0 /opt/microchip/xc32/v2.50/bin/bin/../../lib/gcc/pic32mx/4.8.3/../../../../pic32mx/lib/fpu64/libpic32.a(defaultinterrupt.o)
 .mdebug.abi32  0x00000000        0x0 /opt/microchip/xc32/v2.50/bin/bin/../../lib/gcc/pic32mx/4.8.3/../../../../pic32mx/lib/fpu64/libc.a(sprintf_cdnopuxX.eo)
 .mdebug.abi32  0x00000000        0x0 /opt/microchip/xc32/v2.50/bin/bin/../../lib/gcc/pic32mx/4.8.3/../../../../pic32mx/lib/fpu64/libc.a(doprnt_cdnopuxX.eo)
 .mdebug.abi32  0x00000000        0x0 /opt/microchip/xc32/v2.50/bin/bin/../../lib/gcc/pic32mx/4.8.3/../../../../pic32mx/lib/fpu64/libc.a(_fputc_simple.o)
 .mdebug.abi32  0x00000000        0x0 /opt/microchip/xc32/v2.50/bin/bin/../../lib/gcc/pic32mx/4.8.3/../../../../pic32mx/lib/fpu64/libc.a(ctype.o)
 .mdebug.abi32  0x00000000        0x0 /opt/microchip/xc32/v2.50/bin/bin/../../lib/gcc/pic32mx/4.8.3/../../../../pic32mx/lib/fpu64/libc.a(_iob.o)
 .mdebug.abi32  0x00000000        0x0 /opt/microchip/xc32/v2.50/bin/bin/../../lib/gcc/pic32mx/4.8.3/../../../../pic32mx/lib/fpu64/libc.a(_flsbuf_simple.o)
 .mdebug.abi32  0x00000000        0x0 /opt/microchip/xc32/v2.50/bin/bin/../../lib/gcc/pic32mx/4.8.3/fpu64/libgcc.a(_udivdi3.o)
 .mdebug.abi32  0x00000000        0x0 /opt/microchip/xc32/v2.50/bin/bin/../../lib/gcc/pic32mx/4.8.3/fpu64/libgcc.a(_umoddi3.o)
 .mdebug.abi32  0x00000000        0x0 /opt/microchip/xc32/v2.50/bin/bin/../../lib/gcc/pic32mx/4.8.3/../../../../pic32mx/lib/fpu64/libpic32.a(write.o)

.mdebug.abiN32
 *(.mdebug.abiN32)

.mdebug.abi64
 *(.mdebug.abi64)

.mdebug.abiO64
 *(.mdebug.abiO64)

.mdebug.eabi32
 *(.mdebug.eabi32)

.mdebug.eabi64
 *(.mdebug.eabi64)

.gcc_compiled_long32
 *(.gcc_compiled_long32)

.gcc_compiled_long64
 *(.gcc_compiled_long64)

.stab
 *(.stab)

.stabstr
 *(.stabstr)

.stab.excl
 *(.stab.excl)

.stab.exclstr
 *(.stab.exclstr)

.stab.index
 *(.stab.index)

.stab.indexstr
 *(.stab.indexstr)

.comment        0x00000000       0xa3
 *(.comment)
 .comment       0x00000000       0x3c build/default/production/_ext/1571292264/7segments.o
                                 0x3d (size before relaxing)
 .comment       0x00000000       0x3d build/default/production/_ext/1571292264/7segmentsOutputStream.o
 .comment       0x00000000       0x3d build/default/production/_ext/1506567961/delay.o
 .comment       0x00000000       0x3d build/default/production/_ext/1507884958/error.o
 .comment       0x00000000       0x3d build/default/production/_ext/383772639/buffer.o
 .comment       0x00000000       0x3d build/default/production/_ext/242462784/outputStream.o
 .comment       0x00000000       0x3d build/default/production/_ext/1038083393/printWriter.o
 .comment       0x00000000       0x3d build/default/production/_ext/919093983/led.o
 .comment       0x00000000       0x3d build/default/production/_ext/1240316727/temperatureStream.o
 .comment       0x00000000       0x3d build/default/production/_ext/1240316727/temperature.o
 .comment       0x00000000       0x3d build/default/production/_ext/92899495/system.o
 .comment       0x00000000       0x3d build/default/production/_ext/79239498/timer1.o
 .comment       0x00000000       0x3d build/default/production/_ext/1522154941/uart5.o
 .comment       0x00000000       0x3d build/default/production/_ext/1984157808/plib_cache.o
 .comment       0x00000000       0x3d build/default/production/_ext/60165520/plib_clk.o
 .comment       0x00000000       0x3d build/default/production/_ext/1249264884/plib_coretimer.o
 .comment       0x00000000       0x3d build/default/production/_ext/1865200349/plib_evic.o
 .comment       0x00000000       0x3d build/default/production/_ext/1865254177/plib_gpio.o
 .comment       0x00000000       0x3d build/default/production/_ext/513455433/plib_i2c1_master.o
 .comment       0x00000000       0x3d build/default/production/_ext/60181895/plib_tmr2.o
 .comment       0x00000000       0x3d build/default/production/_ext/1865638794/plib_tmr1.o
 .comment       0x00000000       0x3d build/default/production/_ext/1865657120/plib_uart2.o
 .comment       0x00000000       0x3d build/default/production/_ext/1865657120/plib_uart5.o
 .comment       0x00000000       0x3d build/default/production/_ext/163028504/xc32_monitor.o
 .comment       0x00000000       0x3d build/default/production/_ext/1171490990/initialization.o
 .comment       0x00000000       0x3d build/default/production/_ext/1171490990/interrupts.o
 .comment       0x00000000       0x3d build/default/production/_ext/1171490990/exceptions.o
 .comment       0x00000000       0x3d build/default/production/_ext/1019397905/mainCubeMeteo.o
 .comment       0x00000000       0x3d build/default/production/_ext/1019397905/cubeCommon.o
 .comment       0x00000000       0x3d build/default/production/_ext/1367680316/LM75A.o
 .comment       0x00000000       0x3d build/default/production/_ext/672751358/SAA1064T.o
 .comment       0x00000000       0x3d build/default/production/_ext/1360937237/mainCube.o
 .comment       0x0000003c       0x19 /opt/microchip/xc32/v2.50/bin/bin/../../lib/gcc/pic32mx/4.8.3/../../../../pic32mx/lib/fpu64/libpic32.a(strlen.o)
                                 0x1a (size before relaxing)
 .comment       0x00000000       0x3d /opt/microchip/xc32/v2.50/bin/bin/../../lib/gcc/pic32mx/4.8.3/../../../../pic32mx/lib/fpu64/libpic32.a(default-on-reset.o)
 .comment       0x00000000       0x3d /opt/microchip/xc32/v2.50/bin/bin/../../lib/gcc/pic32mx/4.8.3/../../../../pic32mx/lib/fpu64/libpic32.a(default-on-bootstrap.o)
 .comment       0x00000000       0x3d /opt/microchip/xc32/v2.50/bin/bin/../../lib/gcc/pic32mx/4.8.3/../../../../pic32mx/lib/fpu64/libpic32.a(defaultinterrupt.o)
 .comment       0x00000000       0x3d /opt/microchip/xc32/v2.50/bin/bin/../../lib/gcc/pic32mx/4.8.3/../../../../pic32mx/lib/fpu64/libc.a(sprintf_cdnopuxX.eo)
 .comment       0x00000000       0x3d /opt/microchip/xc32/v2.50/bin/bin/../../lib/gcc/pic32mx/4.8.3/../../../../pic32mx/lib/fpu64/libc.a(doprnt_cdnopuxX.eo)
 .comment       0x00000000       0x3d /opt/microchip/xc32/v2.50/bin/bin/../../lib/gcc/pic32mx/4.8.3/../../../../pic32mx/lib/fpu64/libc.a(_fputc_simple.o)
 .comment       0x00000055       0x4e /opt/microchip/xc32/v2.50/bin/bin/../../lib/gcc/pic32mx/4.8.3/../../../../pic32mx/lib/fpu64/libc.a(ctype.o)
                                 0x8b (size before relaxing)
 .comment       0x00000000       0x3d /opt/microchip/xc32/v2.50/bin/bin/../../lib/gcc/pic32mx/4.8.3/../../../../pic32mx/lib/fpu64/libc.a(_iob.o)
 .comment       0x00000000       0x3d /opt/microchip/xc32/v2.50/bin/bin/../../lib/gcc/pic32mx/4.8.3/../../../../pic32mx/lib/fpu64/libc.a(_flsbuf_simple.o)
 .comment       0x00000000       0x3d /opt/microchip/xc32/v2.50/bin/bin/../../lib/gcc/pic32mx/4.8.3/fpu64/libgcc.a(_udivdi3.o)
 .comment       0x00000000       0x3d /opt/microchip/xc32/v2.50/bin/bin/../../lib/gcc/pic32mx/4.8.3/fpu64/libgcc.a(_umoddi3.o)
 .comment       0x00000000       0x3d /opt/microchip/xc32/v2.50/bin/bin/../../lib/gcc/pic32mx/4.8.3/../../../../pic32mx/lib/fpu64/libpic32.a(write.o)

.debug
 *.elf(.debug)
 *(.debug)

.line
 *.elf(.line)
 *(.line)

.debug_srcinfo
 *.elf(.debug_srcinfo)
 *(.debug_srcinfo)

.debug_sfnames
 *.elf(.debug_sfnames)
 *(.debug_sfnames)

.debug_aranges  0x00000000      0xa70
 *.elf(.debug_aranges)
 *(.debug_aranges)
 .debug_aranges
                0x00000000       0x28 build/default/production/_ext/1571292264/7segments.o
 .debug_aranges
                0x00000028       0x50 build/default/production/_ext/1571292264/7segmentsOutputStream.o
 .debug_aranges
                0x00000078       0x28 build/default/production/_ext/1506567961/delay.o
 .debug_aranges
                0x000000a0       0x48 build/default/production/_ext/383772639/buffer.o
 .debug_aranges
                0x000000e8       0x40 build/default/production/_ext/242462784/outputStream.o
 .debug_aranges
                0x00000128       0x30 build/default/production/_ext/1038083393/printWriter.o
 .debug_aranges
                0x00000158       0xa0 build/default/production/_ext/919093983/led.o
 .debug_aranges
                0x000001f8       0x28 build/default/production/_ext/1240316727/temperatureStream.o
 .debug_aranges
                0x00000220       0x20 build/default/production/_ext/1240316727/temperature.o
 .debug_aranges
                0x00000240       0x28 build/default/production/_ext/92899495/system.o
 .debug_aranges
                0x00000268       0x38 build/default/production/_ext/79239498/timer1.o
 .debug_aranges
                0x000002a0       0x70 build/default/production/_ext/1522154941/uart5.o
 .debug_aranges
                0x00000310       0xc0 build/default/production/_ext/1984157808/plib_cache.o
 .debug_aranges
                0x000003d0       0x20 build/default/production/_ext/60165520/plib_clk.o
 .debug_aranges
                0x000003f0       0x60 build/default/production/_ext/1249264884/plib_coretimer.o
 .debug_aranges
                0x00000450       0x68 build/default/production/_ext/1865200349/plib_evic.o
 .debug_aranges
                0x000004b8       0x60 build/default/production/_ext/1865254177/plib_gpio.o
 .debug_aranges
                0x00000518       0x68 build/default/production/_ext/513455433/plib_i2c1_master.o
 .debug_aranges
                0x00000580       0x50 build/default/production/_ext/60181895/plib_tmr2.o
 .debug_aranges
                0x000005d0       0x70 build/default/production/_ext/1865638794/plib_tmr1.o
 .debug_aranges
                0x00000640       0xa8 build/default/production/_ext/1865657120/plib_uart2.o
 .debug_aranges
                0x000006e8       0xa8 build/default/production/_ext/1865657120/plib_uart5.o
 .debug_aranges
                0x00000790       0x28 build/default/production/_ext/163028504/xc32_monitor.o
 .debug_aranges
                0x000007b8       0x20 build/default/production/_ext/1171490990/initialization.o
 .debug_aranges
                0x000007d8       0x60 build/default/production/_ext/1171490990/interrupts.o
 .debug_aranges
                0x00000838       0x38 build/default/production/_ext/1171490990/exceptions.o
 .debug_aranges
                0x00000870       0x28 build/default/production/_ext/1019397905/mainCubeMeteo.o
 .debug_aranges
                0x00000898       0x20 build/default/production/_ext/1019397905/cubeCommon.o
 .debug_aranges
                0x000008b8       0x38 build/default/production/_ext/1367680316/LM75A.o
 .debug_aranges
                0x000008f0       0x20 build/default/production/_ext/672751358/SAA1064T.o
 .debug_aranges
                0x00000910       0x20 build/default/production/_ext/1360937237/mainCube.o
 .debug_aranges
                0x00000930       0x20 /opt/microchip/xc32/v2.50/bin/bin/../../lib/gcc/pic32mx/4.8.3/../../../../pic32mx/lib/fpu64/libpic32.a(default-on-reset.o)
 .debug_aranges
                0x00000950       0x20 /opt/microchip/xc32/v2.50/bin/bin/../../lib/gcc/pic32mx/4.8.3/../../../../pic32mx/lib/fpu64/libpic32.a(default-on-bootstrap.o)
 .debug_aranges
                0x00000970       0x20 /opt/microchip/xc32/v2.50/bin/bin/../../lib/gcc/pic32mx/4.8.3/../../../../pic32mx/lib/fpu64/libpic32.a(defaultinterrupt.o)
 .debug_aranges
                0x00000990       0x20 /opt/microchip/xc32/v2.50/bin/bin/../../lib/gcc/pic32mx/4.8.3/../../../../pic32mx/lib/fpu64/libc.a(sprintf_cdnopuxX.eo)
 .debug_aranges
                0x000009b0       0x20 /opt/microchip/xc32/v2.50/bin/bin/../../lib/gcc/pic32mx/4.8.3/../../../../pic32mx/lib/fpu64/libc.a(doprnt_cdnopuxX.eo)
 .debug_aranges
                0x000009d0       0x20 /opt/microchip/xc32/v2.50/bin/bin/../../lib/gcc/pic32mx/4.8.3/../../../../pic32mx/lib/fpu64/libc.a(_fputc_simple.o)
 .debug_aranges
                0x000009f0       0x20 /opt/microchip/xc32/v2.50/bin/bin/../../lib/gcc/pic32mx/4.8.3/../../../../pic32mx/lib/fpu64/libc.a(_flsbuf_simple.o)
 .debug_aranges
                0x00000a10       0x20 /opt/microchip/xc32/v2.50/bin/bin/../../lib/gcc/pic32mx/4.8.3/fpu64/libgcc.a(_udivdi3.o)
 .debug_aranges
                0x00000a30       0x20 /opt/microchip/xc32/v2.50/bin/bin/../../lib/gcc/pic32mx/4.8.3/fpu64/libgcc.a(_umoddi3.o)
 .debug_aranges
                0x00000a50       0x20 /opt/microchip/xc32/v2.50/bin/bin/../../lib/gcc/pic32mx/4.8.3/../../../../pic32mx/lib/fpu64/libpic32.a(write.o)

.debug_pubnames
 *.elf(.debug_pubnames)
 *(.debug_pubnames)

.debug_info     0x00000000     0xc64f
 *.elf(.debug_info .gnu.linkonce.wi.*)
 *(.debug_info .gnu.linkonce.wi.*)
 .debug_info    0x00000000      0x2e6 build/default/production/_ext/1571292264/7segments.o
 .debug_info    0x000002e6      0x5f2 build/default/production/_ext/1571292264/7segmentsOutputStream.o
 .debug_info    0x000008d8      0x25d build/default/production/_ext/1506567961/delay.o
 .debug_info    0x00000b35      0x306 build/default/production/_ext/383772639/buffer.o
 .debug_info    0x00000e3b      0x5e5 build/default/production/_ext/242462784/outputStream.o
 .debug_info    0x00001420      0x409 build/default/production/_ext/1038083393/printWriter.o
 .debug_info    0x00001829      0x545 build/default/production/_ext/919093983/led.o
 .debug_info    0x00001d6e      0x35e build/default/production/_ext/1240316727/temperatureStream.o
 .debug_info    0x000020cc      0x358 build/default/production/_ext/1240316727/temperature.o
 .debug_info    0x00002424      0x12c build/default/production/_ext/92899495/system.o
 .debug_info    0x00002550      0x32c build/default/production/_ext/79239498/timer1.o
 .debug_info    0x0000287c      0x61a build/default/production/_ext/1522154941/uart5.o
 .debug_info    0x00002e96      0x7f8 build/default/production/_ext/1984157808/plib_cache.o
 .debug_info    0x0000368e      0x224 build/default/production/_ext/60165520/plib_clk.o
 .debug_info    0x000038b2      0x6a3 build/default/production/_ext/1249264884/plib_coretimer.o
 .debug_info    0x00003f55     0x18d1 build/default/production/_ext/1865200349/plib_evic.o
 .debug_info    0x00005826      0x6d9 build/default/production/_ext/1865254177/plib_gpio.o
 .debug_info    0x00005eff      0x932 build/default/production/_ext/513455433/plib_i2c1_master.o
 .debug_info    0x00006831      0x2df build/default/production/_ext/60181895/plib_tmr2.o
 .debug_info    0x00006b10      0x788 build/default/production/_ext/1865638794/plib_tmr1.o
 .debug_info    0x00007298      0xace build/default/production/_ext/1865657120/plib_uart2.o
 .debug_info    0x00007d66      0xace build/default/production/_ext/1865657120/plib_uart5.o
 .debug_info    0x00008834      0x12b build/default/production/_ext/163028504/xc32_monitor.o
 .debug_info    0x0000895f      0x4db build/default/production/_ext/1171490990/initialization.o
 .debug_info    0x00008e3a      0x44f build/default/production/_ext/1171490990/interrupts.o
 .debug_info    0x00009289      0x32d build/default/production/_ext/1171490990/exceptions.o
 .debug_info    0x000095b6      0xc66 build/default/production/_ext/1019397905/mainCubeMeteo.o
 .debug_info    0x0000a21c      0x553 build/default/production/_ext/1019397905/cubeCommon.o
 .debug_info    0x0000a76f      0x50e build/default/production/_ext/1367680316/LM75A.o
 .debug_info    0x0000ac7d      0x267 build/default/production/_ext/672751358/SAA1064T.o
 .debug_info    0x0000aee4      0x21c build/default/production/_ext/1360937237/mainCube.o
 .debug_info    0x0000b100       0xcd /opt/microchip/xc32/v2.50/bin/bin/../../lib/gcc/pic32mx/4.8.3/../../../../pic32mx/lib/fpu64/libpic32.a(default-on-reset.o)
 .debug_info    0x0000b1cd       0xd5 /opt/microchip/xc32/v2.50/bin/bin/../../lib/gcc/pic32mx/4.8.3/../../../../pic32mx/lib/fpu64/libpic32.a(default-on-bootstrap.o)
 .debug_info    0x0000b2a2       0xe7 /opt/microchip/xc32/v2.50/bin/bin/../../lib/gcc/pic32mx/4.8.3/../../../../pic32mx/lib/fpu64/libpic32.a(defaultinterrupt.o)
 .debug_info    0x0000b389       0xd0 /opt/microchip/xc32/v2.50/bin/bin/../../lib/gcc/pic32mx/4.8.3/../../../../pic32mx/lib/fpu64/libc.a(sprintf_cdnopuxX.eo)
 .debug_info    0x0000b459       0xd1 /opt/microchip/xc32/v2.50/bin/bin/../../lib/gcc/pic32mx/4.8.3/../../../../pic32mx/lib/fpu64/libc.a(doprnt_cdnopuxX.eo)
 .debug_info    0x0000b52a       0xc2 /opt/microchip/xc32/v2.50/bin/bin/../../lib/gcc/pic32mx/4.8.3/../../../../pic32mx/lib/fpu64/libc.a(_fputc_simple.o)
 .debug_info    0x0000b5ec       0xc5 /opt/microchip/xc32/v2.50/bin/bin/../../lib/gcc/pic32mx/4.8.3/../../../../pic32mx/lib/fpu64/libc.a(_flsbuf_simple.o)
 .debug_info    0x0000b6b1      0x751 /opt/microchip/xc32/v2.50/bin/bin/../../lib/gcc/pic32mx/4.8.3/fpu64/libgcc.a(_udivdi3.o)
 .debug_info    0x0000be02      0x78e /opt/microchip/xc32/v2.50/bin/bin/../../lib/gcc/pic32mx/4.8.3/fpu64/libgcc.a(_umoddi3.o)
 .debug_info    0x0000c590       0xbf /opt/microchip/xc32/v2.50/bin/bin/../../lib/gcc/pic32mx/4.8.3/../../../../pic32mx/lib/fpu64/libpic32.a(write.o)

.debug_abbrev   0x00000000     0x2666
 *.elf(.debug_abbrev)
 *(.debug_abbrev)
 .debug_abbrev  0x00000000       0xe4 build/default/production/_ext/1571292264/7segments.o
 .debug_abbrev  0x000000e4      0x129 build/default/production/_ext/1571292264/7segmentsOutputStream.o
 .debug_abbrev  0x0000020d       0x99 build/default/production/_ext/1506567961/delay.o
 .debug_abbrev  0x000002a6      0x129 build/default/production/_ext/383772639/buffer.o
 .debug_abbrev  0x000003cf      0x194 build/default/production/_ext/242462784/outputStream.o
 .debug_abbrev  0x00000563      0x127 build/default/production/_ext/1038083393/printWriter.o
 .debug_abbrev  0x0000068a       0xe2 build/default/production/_ext/919093983/led.o
 .debug_abbrev  0x0000076c      0x110 build/default/production/_ext/1240316727/temperatureStream.o
 .debug_abbrev  0x0000087c      0x111 build/default/production/_ext/1240316727/temperature.o
 .debug_abbrev  0x0000098d       0x7c build/default/production/_ext/92899495/system.o
 .debug_abbrev  0x00000a09      0x153 build/default/production/_ext/79239498/timer1.o
 .debug_abbrev  0x00000b5c      0x175 build/default/production/_ext/1522154941/uart5.o
 .debug_abbrev  0x00000cd1      0x131 build/default/production/_ext/1984157808/plib_cache.o
 .debug_abbrev  0x00000e02       0x5e build/default/production/_ext/60165520/plib_clk.o
 .debug_abbrev  0x00000e60      0x141 build/default/production/_ext/1249264884/plib_coretimer.o
 .debug_abbrev  0x00000fa1      0x10b build/default/production/_ext/1865200349/plib_evic.o
 .debug_abbrev  0x000010ac      0x132 build/default/production/_ext/1865254177/plib_gpio.o
 .debug_abbrev  0x000011de      0x1b2 build/default/production/_ext/513455433/plib_i2c1_master.o
 .debug_abbrev  0x00001390       0xa1 build/default/production/_ext/60181895/plib_tmr2.o
 .debug_abbrev  0x00001431      0x1b3 build/default/production/_ext/1865638794/plib_tmr1.o
 .debug_abbrev  0x000015e4      0x253 build/default/production/_ext/1865657120/plib_uart2.o
 .debug_abbrev  0x00001837      0x253 build/default/production/_ext/1865657120/plib_uart5.o
 .debug_abbrev  0x00001a8a       0x66 build/default/production/_ext/163028504/xc32_monitor.o
 .debug_abbrev  0x00001af0      0x11f build/default/production/_ext/1171490990/initialization.o
 .debug_abbrev  0x00001c0f       0x57 build/default/production/_ext/1171490990/interrupts.o
 .debug_abbrev  0x00001c66       0x6b build/default/production/_ext/1171490990/exceptions.o
 .debug_abbrev  0x00001cd1      0x1b3 build/default/production/_ext/1019397905/mainCubeMeteo.o
 .debug_abbrev  0x00001e84      0x119 build/default/production/_ext/1019397905/cubeCommon.o
 .debug_abbrev  0x00001f9d      0x198 build/default/production/_ext/1367680316/LM75A.o
 .debug_abbrev  0x00002135       0xb3 build/default/production/_ext/672751358/SAA1064T.o
 .debug_abbrev  0x000021e8       0xbf build/default/production/_ext/1360937237/mainCube.o
 .debug_abbrev  0x000022a7       0x28 /opt/microchip/xc32/v2.50/bin/bin/../../lib/gcc/pic32mx/4.8.3/../../../../pic32mx/lib/fpu64/libpic32.a(default-on-reset.o)
 .debug_abbrev  0x000022cf       0x28 /opt/microchip/xc32/v2.50/bin/bin/../../lib/gcc/pic32mx/4.8.3/../../../../pic32mx/lib/fpu64/libpic32.a(default-on-bootstrap.o)
 .debug_abbrev  0x000022f7       0x28 /opt/microchip/xc32/v2.50/bin/bin/../../lib/gcc/pic32mx/4.8.3/../../../../pic32mx/lib/fpu64/libpic32.a(defaultinterrupt.o)
 .debug_abbrev  0x0000231f       0x28 /opt/microchip/xc32/v2.50/bin/bin/../../lib/gcc/pic32mx/4.8.3/../../../../pic32mx/lib/fpu64/libc.a(sprintf_cdnopuxX.eo)
 .debug_abbrev  0x00002347       0x28 /opt/microchip/xc32/v2.50/bin/bin/../../lib/gcc/pic32mx/4.8.3/../../../../pic32mx/lib/fpu64/libc.a(doprnt_cdnopuxX.eo)
 .debug_abbrev  0x0000236f       0x28 /opt/microchip/xc32/v2.50/bin/bin/../../lib/gcc/pic32mx/4.8.3/../../../../pic32mx/lib/fpu64/libc.a(_fputc_simple.o)
 .debug_abbrev  0x00002397       0x28 /opt/microchip/xc32/v2.50/bin/bin/../../lib/gcc/pic32mx/4.8.3/../../../../pic32mx/lib/fpu64/libc.a(_flsbuf_simple.o)
 .debug_abbrev  0x000023bf      0x138 /opt/microchip/xc32/v2.50/bin/bin/../../lib/gcc/pic32mx/4.8.3/fpu64/libgcc.a(_udivdi3.o)
 .debug_abbrev  0x000024f7      0x147 /opt/microchip/xc32/v2.50/bin/bin/../../lib/gcc/pic32mx/4.8.3/fpu64/libgcc.a(_umoddi3.o)
 .debug_abbrev  0x0000263e       0x28 /opt/microchip/xc32/v2.50/bin/bin/../../lib/gcc/pic32mx/4.8.3/../../../../pic32mx/lib/fpu64/libpic32.a(write.o)

.debug_line     0x00000000     0x45f0
 *.elf(.debug_line)
 *(.debug_line)
 .debug_line    0x00000000      0x1a1 build/default/production/_ext/1571292264/7segments.o
 .debug_line    0x000001a1      0x1b3 build/default/production/_ext/1571292264/7segmentsOutputStream.o
 .debug_line    0x00000354      0x152 build/default/production/_ext/1506567961/delay.o
 .debug_line    0x000004a6        0x0 build/default/production/_ext/1507884958/error.o
 .debug_line    0x000004a6      0x122 build/default/production/_ext/383772639/buffer.o
 .debug_line    0x000005c8      0x251 build/default/production/_ext/242462784/outputStream.o
 .debug_line    0x00000819      0x12e build/default/production/_ext/1038083393/printWriter.o
 .debug_line    0x00000947      0x24b build/default/production/_ext/919093983/led.o
 .debug_line    0x00000b92      0x10d build/default/production/_ext/1240316727/temperatureStream.o
 .debug_line    0x00000c9f      0x103 build/default/production/_ext/1240316727/temperature.o
 .debug_line    0x00000da2       0x96 build/default/production/_ext/92899495/system.o
 .debug_line    0x00000e38      0x185 build/default/production/_ext/79239498/timer1.o
 .debug_line    0x00000fbd      0x291 build/default/production/_ext/1522154941/uart5.o
 .debug_line    0x0000124e      0x294 build/default/production/_ext/1984157808/plib_cache.o
 .debug_line    0x000014e2      0x14c build/default/production/_ext/60165520/plib_clk.o
 .debug_line    0x0000162e      0x1f1 build/default/production/_ext/1249264884/plib_coretimer.o
 .debug_line    0x0000181f      0x206 build/default/production/_ext/1865200349/plib_evic.o
 .debug_line    0x00001a25      0x1ec build/default/production/_ext/1865254177/plib_gpio.o
 .debug_line    0x00001c11      0x30e build/default/production/_ext/513455433/plib_i2c1_master.o
 .debug_line    0x00001f1f      0x1ad build/default/production/_ext/60181895/plib_tmr2.o
 .debug_line    0x000020cc      0x212 build/default/production/_ext/1865638794/plib_tmr1.o
 .debug_line    0x000022de      0x368 build/default/production/_ext/1865657120/plib_uart2.o
 .debug_line    0x00002646      0x368 build/default/production/_ext/1865657120/plib_uart5.o
 .debug_line    0x000029ae       0xa6 build/default/production/_ext/163028504/xc32_monitor.o
 .debug_line    0x00002a54      0x4f5 build/default/production/_ext/1171490990/initialization.o
 .debug_line    0x00002f49      0x145 build/default/production/_ext/1171490990/interrupts.o
 .debug_line    0x0000308e       0xc7 build/default/production/_ext/1171490990/exceptions.o
 .debug_line    0x00003155      0x64c build/default/production/_ext/1019397905/mainCubeMeteo.o
 .debug_line    0x000037a1      0x272 build/default/production/_ext/1019397905/cubeCommon.o
 .debug_line    0x00003a13      0x22f build/default/production/_ext/1367680316/LM75A.o
 .debug_line    0x00003c42      0x186 build/default/production/_ext/672751358/SAA1064T.o
 .debug_line    0x00003dc8      0x1d9 build/default/production/_ext/1360937237/mainCube.o
 .debug_line    0x00003fa1       0x93 /opt/microchip/xc32/v2.50/bin/bin/../../lib/gcc/pic32mx/4.8.3/../../../../pic32mx/lib/fpu64/libpic32.a(default-on-reset.o)
 .debug_line    0x00004034       0x97 /opt/microchip/xc32/v2.50/bin/bin/../../lib/gcc/pic32mx/4.8.3/../../../../pic32mx/lib/fpu64/libpic32.a(default-on-bootstrap.o)
 .debug_line    0x000040cb       0xa5 /opt/microchip/xc32/v2.50/bin/bin/../../lib/gcc/pic32mx/4.8.3/../../../../pic32mx/lib/fpu64/libpic32.a(defaultinterrupt.o)
 .debug_line    0x00004170       0x7f /opt/microchip/xc32/v2.50/bin/bin/../../lib/gcc/pic32mx/4.8.3/../../../../pic32mx/lib/fpu64/libc.a(sprintf_cdnopuxX.eo)
 .debug_line    0x000041ef       0x7e /opt/microchip/xc32/v2.50/bin/bin/../../lib/gcc/pic32mx/4.8.3/../../../../pic32mx/lib/fpu64/libc.a(doprnt_cdnopuxX.eo)
 .debug_line    0x0000426d       0x7d /opt/microchip/xc32/v2.50/bin/bin/../../lib/gcc/pic32mx/4.8.3/../../../../pic32mx/lib/fpu64/libc.a(_fputc_simple.o)
 .debug_line    0x000042ea        0x0 /opt/microchip/xc32/v2.50/bin/bin/../../lib/gcc/pic32mx/4.8.3/../../../../pic32mx/lib/fpu64/libc.a(ctype.o)
 .debug_line    0x000042ea        0x0 /opt/microchip/xc32/v2.50/bin/bin/../../lib/gcc/pic32mx/4.8.3/../../../../pic32mx/lib/fpu64/libc.a(_iob.o)
 .debug_line    0x000042ea       0x7e /opt/microchip/xc32/v2.50/bin/bin/../../lib/gcc/pic32mx/4.8.3/../../../../pic32mx/lib/fpu64/libc.a(_flsbuf_simple.o)
 .debug_line    0x00004368       0xf7 /opt/microchip/xc32/v2.50/bin/bin/../../lib/gcc/pic32mx/4.8.3/fpu64/libgcc.a(_udivdi3.o)
 .debug_line    0x0000445f      0x109 /opt/microchip/xc32/v2.50/bin/bin/../../lib/gcc/pic32mx/4.8.3/fpu64/libgcc.a(_umoddi3.o)
 .debug_line    0x00004568       0x88 /opt/microchip/xc32/v2.50/bin/bin/../../lib/gcc/pic32mx/4.8.3/../../../../pic32mx/lib/fpu64/libpic32.a(write.o)

.debug_frame    0x00000000     0x16e4
 *.elf(.debug_frame)
 *(.debug_frame)
 .debug_frame   0x00000000       0x3c build/default/production/_ext/1571292264/7segments.o
 .debug_frame   0x0000003c       0xbc build/default/production/_ext/1571292264/7segmentsOutputStream.o
 .debug_frame   0x000000f8       0x48 build/default/production/_ext/1506567961/delay.o
 .debug_frame   0x00000140       0x80 build/default/production/_ext/383772639/buffer.o
 .debug_frame   0x000001c0       0x78 build/default/production/_ext/242462784/outputStream.o
 .debug_frame   0x00000238       0x60 build/default/production/_ext/1038083393/printWriter.o
 .debug_frame   0x00000298      0x120 build/default/production/_ext/919093983/led.o
 .debug_frame   0x000003b8       0x30 build/default/production/_ext/1240316727/temperatureStream.o
 .debug_frame   0x000003e8       0x2c build/default/production/_ext/1240316727/temperature.o
 .debug_frame   0x00000414       0x30 build/default/production/_ext/92899495/system.o
 .debug_frame   0x00000444       0x5c build/default/production/_ext/79239498/timer1.o
 .debug_frame   0x000004a0       0xe8 build/default/production/_ext/1522154941/uart5.o
 .debug_frame   0x00000588      0x25c build/default/production/_ext/1984157808/plib_cache.o
 .debug_frame   0x000007e4       0x20 build/default/production/_ext/60165520/plib_clk.o
 .debug_frame   0x00000804       0xf4 build/default/production/_ext/1249264884/plib_coretimer.o
 .debug_frame   0x000008f8       0xd4 build/default/production/_ext/1865200349/plib_evic.o
 .debug_frame   0x000009cc       0xa0 build/default/production/_ext/1865254177/plib_gpio.o
 .debug_frame   0x00000a6c       0xc8 build/default/production/_ext/513455433/plib_i2c1_master.o
 .debug_frame   0x00000b34       0x80 build/default/production/_ext/60181895/plib_tmr2.o
 .debug_frame   0x00000bb4       0xcc build/default/production/_ext/1865638794/plib_tmr1.o
 .debug_frame   0x00000c80      0x164 build/default/production/_ext/1865657120/plib_uart2.o
 .debug_frame   0x00000de4      0x164 build/default/production/_ext/1865657120/plib_uart5.o
 .debug_frame   0x00000f48       0x30 build/default/production/_ext/163028504/xc32_monitor.o
 .debug_frame   0x00000f78       0x2c build/default/production/_ext/1171490990/initialization.o
 .debug_frame   0x00000fa4      0x3dc build/default/production/_ext/1171490990/interrupts.o
 .debug_frame   0x00001380       0x70 build/default/production/_ext/1171490990/exceptions.o
 .debug_frame   0x000013f0       0x4c build/default/production/_ext/1019397905/mainCubeMeteo.o
 .debug_frame   0x0000143c       0x2c build/default/production/_ext/1019397905/cubeCommon.o
 .debug_frame   0x00001468       0x78 build/default/production/_ext/1367680316/LM75A.o
 .debug_frame   0x000014e0       0x30 build/default/production/_ext/672751358/SAA1064T.o
 .debug_frame   0x00001510       0x28 build/default/production/_ext/1360937237/mainCube.o
 .debug_frame   0x00001538       0x20 /opt/microchip/xc32/v2.50/bin/bin/../../lib/gcc/pic32mx/4.8.3/../../../../pic32mx/lib/fpu64/libpic32.a(default-on-reset.o)
 .debug_frame   0x00001558       0x20 /opt/microchip/xc32/v2.50/bin/bin/../../lib/gcc/pic32mx/4.8.3/../../../../pic32mx/lib/fpu64/libpic32.a(default-on-bootstrap.o)
 .debug_frame   0x00001578       0x20 /opt/microchip/xc32/v2.50/bin/bin/../../lib/gcc/pic32mx/4.8.3/../../../../pic32mx/lib/fpu64/libpic32.a(defaultinterrupt.o)
 .debug_frame   0x00001598       0x2c /opt/microchip/xc32/v2.50/bin/bin/../../lib/gcc/pic32mx/4.8.3/../../../../pic32mx/lib/fpu64/libc.a(sprintf_cdnopuxX.eo)
 .debug_frame   0x000015c4       0x40 /opt/microchip/xc32/v2.50/bin/bin/../../lib/gcc/pic32mx/4.8.3/../../../../pic32mx/lib/fpu64/libc.a(doprnt_cdnopuxX.eo)
 .debug_frame   0x00001604       0x30 /opt/microchip/xc32/v2.50/bin/bin/../../lib/gcc/pic32mx/4.8.3/../../../../pic32mx/lib/fpu64/libc.a(_fputc_simple.o)
 .debug_frame   0x00001634       0x38 /opt/microchip/xc32/v2.50/bin/bin/../../lib/gcc/pic32mx/4.8.3/../../../../pic32mx/lib/fpu64/libc.a(_flsbuf_simple.o)
 .debug_frame   0x0000166c       0x20 /opt/microchip/xc32/v2.50/bin/bin/../../lib/gcc/pic32mx/4.8.3/fpu64/libgcc.a(_udivdi3.o)
 .debug_frame   0x0000168c       0x20 /opt/microchip/xc32/v2.50/bin/bin/../../lib/gcc/pic32mx/4.8.3/fpu64/libgcc.a(_umoddi3.o)
 .debug_frame   0x000016ac       0x38 /opt/microchip/xc32/v2.50/bin/bin/../../lib/gcc/pic32mx/4.8.3/../../../../pic32mx/lib/fpu64/libpic32.a(write.o)

.debug_str      0x00000000      0x1c0
 *.elf(.debug_str)
 *(.debug_str)
 .debug_str     0x00000000        0x0 build/default/production/_ext/1571292264/7segments.o
 .debug_str     0x00000000       0x24 build/default/production/_ext/1571292264/7segmentsOutputStream.o
 .debug_str     0x00000024        0x0 build/default/production/_ext/1506567961/delay.o
 .debug_str     0x00000024        0x0 build/default/production/_ext/1507884958/error.o
 .debug_str     0x00000024        0x7 build/default/production/_ext/383772639/buffer.o
 .debug_str     0x0000002b       0x53 build/default/production/_ext/242462784/outputStream.o
 .debug_str     0x0000007e       0x1a build/default/production/_ext/1038083393/printWriter.o
 .debug_str     0x00000098        0x0 build/default/production/_ext/919093983/led.o
 .debug_str     0x00000098       0x2c build/default/production/_ext/1240316727/temperatureStream.o
 .debug_str     0x000000c4        0xc build/default/production/_ext/1240316727/temperature.o
 .debug_str     0x000000d0        0x0 build/default/production/_ext/92899495/system.o
 .debug_str     0x000000d0        0x0 build/default/production/_ext/79239498/timer1.o
 .debug_str     0x000000d0        0x7 build/default/production/_ext/1522154941/uart5.o
 .debug_str     0x000000d7       0x14 build/default/production/_ext/1984157808/plib_cache.o
 .debug_str     0x000000eb        0x0 build/default/production/_ext/60165520/plib_clk.o
 .debug_str     0x000000eb       0x14 build/default/production/_ext/1249264884/plib_coretimer.o
 .debug_str     0x000000ff        0x7 build/default/production/_ext/1865200349/plib_evic.o
 .debug_str     0x00000106        0xa build/default/production/_ext/1865254177/plib_gpio.o
 .debug_str     0x00000110       0x11 build/default/production/_ext/513455433/plib_i2c1_master.o
 .debug_str     0x00000121        0x0 build/default/production/_ext/60181895/plib_tmr2.o
 .debug_str     0x00000121        0xc build/default/production/_ext/1865638794/plib_tmr1.o
 .debug_str     0x0000012d       0x17 build/default/production/_ext/1865657120/plib_uart2.o
 .debug_str     0x00000144       0x17 build/default/production/_ext/1865657120/plib_uart5.o
 .debug_str     0x0000015b        0x0 build/default/production/_ext/163028504/xc32_monitor.o
 .debug_str     0x0000015b        0x0 build/default/production/_ext/1171490990/initialization.o
 .debug_str     0x0000015b        0x0 build/default/production/_ext/1171490990/interrupts.o
 .debug_str     0x0000015b        0x0 build/default/production/_ext/1171490990/exceptions.o
 .debug_str     0x0000015b       0x34 build/default/production/_ext/1019397905/mainCubeMeteo.o
 .debug_str     0x0000018f       0x19 build/default/production/_ext/1019397905/cubeCommon.o
 .debug_str     0x000001a8       0x18 build/default/production/_ext/1367680316/LM75A.o
 .debug_str     0x000001c0        0x0 build/default/production/_ext/672751358/SAA1064T.o
 .debug_str     0x000001c0        0x0 build/default/production/_ext/1360937237/mainCube.o
 .debug_str     0x000001c0        0x0 /opt/microchip/xc32/v2.50/bin/bin/../../lib/gcc/pic32mx/4.8.3/../../../../pic32mx/lib/fpu64/libpic32.a(default-on-reset.o)
 .debug_str     0x000001c0        0x0 /opt/microchip/xc32/v2.50/bin/bin/../../lib/gcc/pic32mx/4.8.3/../../../../pic32mx/lib/fpu64/libpic32.a(default-on-bootstrap.o)
 .debug_str     0x000001c0        0x0 /opt/microchip/xc32/v2.50/bin/bin/../../lib/gcc/pic32mx/4.8.3/../../../../pic32mx/lib/fpu64/libpic32.a(defaultinterrupt.o)
 .debug_str     0x000001c0        0x0 /opt/microchip/xc32/v2.50/bin/bin/../../lib/gcc/pic32mx/4.8.3/../../../../pic32mx/lib/fpu64/libc.a(sprintf_cdnopuxX.eo)
 .debug_str     0x000001c0        0x0 /opt/microchip/xc32/v2.50/bin/bin/../../lib/gcc/pic32mx/4.8.3/../../../../pic32mx/lib/fpu64/libc.a(doprnt_cdnopuxX.eo)
 .debug_str     0x000001c0        0x0 /opt/microchip/xc32/v2.50/bin/bin/../../lib/gcc/pic32mx/4.8.3/../../../../pic32mx/lib/fpu64/libc.a(_fputc_simple.o)
 .debug_str     0x000001c0        0x0 /opt/microchip/xc32/v2.50/bin/bin/../../lib/gcc/pic32mx/4.8.3/../../../../pic32mx/lib/fpu64/libc.a(ctype.o)
 .debug_str     0x000001c0        0x0 /opt/microchip/xc32/v2.50/bin/bin/../../lib/gcc/pic32mx/4.8.3/../../../../pic32mx/lib/fpu64/libc.a(_iob.o)
 .debug_str     0x000001c0        0x0 /opt/microchip/xc32/v2.50/bin/bin/../../lib/gcc/pic32mx/4.8.3/../../../../pic32mx/lib/fpu64/libc.a(_flsbuf_simple.o)
 .debug_str     0x000001c0        0x0 /opt/microchip/xc32/v2.50/bin/bin/../../lib/gcc/pic32mx/4.8.3/fpu64/libgcc.a(_udivdi3.o)
 .debug_str     0x000001c0        0x0 /opt/microchip/xc32/v2.50/bin/bin/../../lib/gcc/pic32mx/4.8.3/fpu64/libgcc.a(_umoddi3.o)
 .debug_str     0x000001c0        0x0 /opt/microchip/xc32/v2.50/bin/bin/../../lib/gcc/pic32mx/4.8.3/../../../../pic32mx/lib/fpu64/libpic32.a(write.o)

.debug_loc      0x00000000     0x26d6
 *.elf(.debug_loc)
 *(.debug_loc)
 .debug_loc     0x00000000       0xa6 build/default/production/_ext/1571292264/7segments.o
 .debug_loc     0x000000a6      0x14b build/default/production/_ext/1571292264/7segmentsOutputStream.o
 .debug_loc     0x000001f1       0x42 build/default/production/_ext/1506567961/delay.o
 .debug_loc     0x00000233       0x79 build/default/production/_ext/383772639/buffer.o
 .debug_loc     0x000002ac       0x84 build/default/production/_ext/242462784/outputStream.o
 .debug_loc     0x00000330       0xb6 build/default/production/_ext/1038083393/printWriter.o
 .debug_loc     0x000003e6       0x68 build/default/production/_ext/919093983/led.o
 .debug_loc     0x0000044e       0x21 build/default/production/_ext/1240316727/temperatureStream.o
 .debug_loc     0x0000046f       0x34 build/default/production/_ext/1240316727/temperature.o
 .debug_loc     0x000004a3       0xbb build/default/production/_ext/1522154941/uart5.o
 .debug_loc     0x0000055e      0x23e build/default/production/_ext/1984157808/plib_cache.o
 .debug_loc     0x0000079c       0x42 build/default/production/_ext/1249264884/plib_coretimer.o
 .debug_loc     0x000007de       0x97 build/default/production/_ext/1865200349/plib_evic.o
 .debug_loc     0x00000875      0x129 build/default/production/_ext/1865254177/plib_gpio.o
 .debug_loc     0x0000099e       0x97 build/default/production/_ext/513455433/plib_i2c1_master.o
 .debug_loc     0x00000a35       0x13 build/default/production/_ext/1865638794/plib_tmr1.o
 .debug_loc     0x00000a48      0x332 build/default/production/_ext/1865657120/plib_uart2.o
 .debug_loc     0x00000d7a      0x332 build/default/production/_ext/1865657120/plib_uart5.o
 .debug_loc     0x000010ac       0x21 build/default/production/_ext/1171490990/initialization.o
 .debug_loc     0x000010cd       0xdd build/default/production/_ext/1367680316/LM75A.o
 .debug_loc     0x000011aa       0x4d build/default/production/_ext/672751358/SAA1064T.o
 .debug_loc     0x000011f7      0xa6a /opt/microchip/xc32/v2.50/bin/bin/../../lib/gcc/pic32mx/4.8.3/fpu64/libgcc.a(_udivdi3.o)
 .debug_loc     0x00001c61      0xa3d /opt/microchip/xc32/v2.50/bin/bin/../../lib/gcc/pic32mx/4.8.3/fpu64/libgcc.a(_umoddi3.o)
 .debug_loc     0x0000269e       0x38 /opt/microchip/xc32/v2.50/bin/bin/../../lib/gcc/pic32mx/4.8.3/../../../../pic32mx/lib/fpu64/libpic32.a(write.o)

.debug_macinfo
 *.elf(.debug_macinfo)
 *(.debug_macinfo)

.debug_weaknames
 *.elf(.debug_weaknames)
 *(.debug_weaknames)

.debug_funcnames
 *.elf(.debug_funcnames)
 *(.debug_funcnames)

.debug_typenames
 *.elf(.debug_typenames)
 *(.debug_typenames)

.debug_varnames
 *.elf(.debug_varnames)
 *(.debug_varnames)

.debug_pubtypes
 *.elf(.debug_pubtypes)
 *(.debug_pubtypes)

.debug_ranges   0x00000000      0x9f0
 *.elf(.debug_ranges)
 *(.debug_ranges)
 .debug_ranges  0x00000000       0x18 build/default/production/_ext/1571292264/7segments.o
 .debug_ranges  0x00000018       0x40 build/default/production/_ext/1571292264/7segmentsOutputStream.o
 .debug_ranges  0x00000058       0x18 build/default/production/_ext/1506567961/delay.o
 .debug_ranges  0x00000070       0x38 build/default/production/_ext/383772639/buffer.o
 .debug_ranges  0x000000a8       0x30 build/default/production/_ext/242462784/outputStream.o
 .debug_ranges  0x000000d8       0x20 build/default/production/_ext/1038083393/printWriter.o
 .debug_ranges  0x000000f8       0x90 build/default/production/_ext/919093983/led.o
 .debug_ranges  0x00000188       0x18 build/default/production/_ext/1240316727/temperatureStream.o
 .debug_ranges  0x000001a0       0x10 build/default/production/_ext/1240316727/temperature.o
 .debug_ranges  0x000001b0       0x18 build/default/production/_ext/92899495/system.o
 .debug_ranges  0x000001c8       0x28 build/default/production/_ext/79239498/timer1.o
 .debug_ranges  0x000001f0       0x60 build/default/production/_ext/1522154941/uart5.o
 .debug_ranges  0x00000250       0xb0 build/default/production/_ext/1984157808/plib_cache.o
 .debug_ranges  0x00000300       0x10 build/default/production/_ext/60165520/plib_clk.o
 .debug_ranges  0x00000310       0x50 build/default/production/_ext/1249264884/plib_coretimer.o
 .debug_ranges  0x00000360       0x58 build/default/production/_ext/1865200349/plib_evic.o
 .debug_ranges  0x000003b8       0x50 build/default/production/_ext/1865254177/plib_gpio.o
 .debug_ranges  0x00000408      0x118 build/default/production/_ext/513455433/plib_i2c1_master.o
 .debug_ranges  0x00000520       0x40 build/default/production/_ext/60181895/plib_tmr2.o
 .debug_ranges  0x00000560       0x60 build/default/production/_ext/1865638794/plib_tmr1.o
 .debug_ranges  0x000005c0       0x98 build/default/production/_ext/1865657120/plib_uart2.o
 .debug_ranges  0x00000658       0x98 build/default/production/_ext/1865657120/plib_uart5.o
 .debug_ranges  0x000006f0       0x18 build/default/production/_ext/163028504/xc32_monitor.o
 .debug_ranges  0x00000708       0x10 build/default/production/_ext/1171490990/initialization.o
 .debug_ranges  0x00000718       0x50 build/default/production/_ext/1171490990/interrupts.o
 .debug_ranges  0x00000768       0x28 build/default/production/_ext/1171490990/exceptions.o
 .debug_ranges  0x00000790       0x18 build/default/production/_ext/1019397905/mainCubeMeteo.o
 .debug_ranges  0x000007a8       0x10 build/default/production/_ext/1019397905/cubeCommon.o
 .debug_ranges  0x000007b8       0x28 build/default/production/_ext/1367680316/LM75A.o
 .debug_ranges  0x000007e0       0x10 build/default/production/_ext/672751358/SAA1064T.o
 .debug_ranges  0x000007f0       0x10 build/default/production/_ext/1360937237/mainCube.o
 .debug_ranges  0x00000800       0x10 /opt/microchip/xc32/v2.50/bin/bin/../../lib/gcc/pic32mx/4.8.3/../../../../pic32mx/lib/fpu64/libpic32.a(default-on-reset.o)
 .debug_ranges  0x00000810       0x10 /opt/microchip/xc32/v2.50/bin/bin/../../lib/gcc/pic32mx/4.8.3/../../../../pic32mx/lib/fpu64/libpic32.a(default-on-bootstrap.o)
 .debug_ranges  0x00000820       0x10 /opt/microchip/xc32/v2.50/bin/bin/../../lib/gcc/pic32mx/4.8.3/../../../../pic32mx/lib/fpu64/libpic32.a(defaultinterrupt.o)
 .debug_ranges  0x00000830       0x10 /opt/microchip/xc32/v2.50/bin/bin/../../lib/gcc/pic32mx/4.8.3/../../../../pic32mx/lib/fpu64/libc.a(sprintf_cdnopuxX.eo)
 .debug_ranges  0x00000840       0x10 /opt/microchip/xc32/v2.50/bin/bin/../../lib/gcc/pic32mx/4.8.3/../../../../pic32mx/lib/fpu64/libc.a(doprnt_cdnopuxX.eo)
 .debug_ranges  0x00000850       0x10 /opt/microchip/xc32/v2.50/bin/bin/../../lib/gcc/pic32mx/4.8.3/../../../../pic32mx/lib/fpu64/libc.a(_fputc_simple.o)
 .debug_ranges  0x00000860       0x10 /opt/microchip/xc32/v2.50/bin/bin/../../lib/gcc/pic32mx/4.8.3/../../../../pic32mx/lib/fpu64/libc.a(_flsbuf_simple.o)
 .debug_ranges  0x00000870       0x98 /opt/microchip/xc32/v2.50/bin/bin/../../lib/gcc/pic32mx/4.8.3/fpu64/libgcc.a(_udivdi3.o)
 .debug_ranges  0x00000908       0xd8 /opt/microchip/xc32/v2.50/bin/bin/../../lib/gcc/pic32mx/4.8.3/fpu64/libgcc.a(_umoddi3.o)
 .debug_ranges  0x000009e0       0x10 /opt/microchip/xc32/v2.50/bin/bin/../../lib/gcc/pic32mx/4.8.3/../../../../pic32mx/lib/fpu64/libpic32.a(write.o)

.gnu.attributes
                0x00000000       0x10
 *(.gnu.attributes)
 .gnu.attributes
                0x00000000       0x10 build/default/production/_ext/1571292264/7segments.o
 .gnu.attributes
                0x00000010       0x10 build/default/production/_ext/1571292264/7segmentsOutputStream.o
 .gnu.attributes
                0x00000020       0x10 build/default/production/_ext/1506567961/delay.o
 .gnu.attributes
                0x00000030       0x10 build/default/production/_ext/1507884958/error.o
 .gnu.attributes
                0x00000040       0x10 build/default/production/_ext/383772639/buffer.o
 .gnu.attributes
                0x00000050       0x10 build/default/production/_ext/242462784/outputStream.o
 .gnu.attributes
                0x00000060       0x10 build/default/production/_ext/1038083393/printWriter.o
 .gnu.attributes
                0x00000070       0x10 build/default/production/_ext/919093983/led.o
 .gnu.attributes
                0x00000080       0x10 build/default/production/_ext/1240316727/temperatureStream.o
 .gnu.attributes
                0x00000090       0x10 build/default/production/_ext/1240316727/temperature.o
 .gnu.attributes
                0x000000a0       0x10 build/default/production/_ext/92899495/system.o
 .gnu.attributes
                0x000000b0       0x10 build/default/production/_ext/79239498/timer1.o
 .gnu.attributes
                0x000000c0       0x10 build/default/production/_ext/1522154941/uart5.o
 .gnu.attributes
                0x000000d0       0x10 build/default/production/_ext/1984157808/plib_cache.o
 .gnu.attributes
                0x000000e0       0x10 build/default/production/_ext/60165520/plib_clk.o
 .gnu.attributes
                0x000000f0       0x10 build/default/production/_ext/1249264884/plib_coretimer.o
 .gnu.attributes
                0x00000100       0x10 build/default/production/_ext/1865200349/plib_evic.o
 .gnu.attributes
                0x00000110       0x10 build/default/production/_ext/1865254177/plib_gpio.o
 .gnu.attributes
                0x00000120       0x10 build/default/production/_ext/513455433/plib_i2c1_master.o
 .gnu.attributes
                0x00000130       0x10 build/default/production/_ext/60181895/plib_tmr2.o
 .gnu.attributes
                0x00000140       0x10 build/default/production/_ext/1865638794/plib_tmr1.o
 .gnu.attributes
                0x00000150       0x10 build/default/production/_ext/1865657120/plib_uart2.o
 .gnu.attributes
                0x00000160       0x10 build/default/production/_ext/1865657120/plib_uart5.o
 .gnu.attributes
                0x00000170       0x10 build/default/production/_ext/163028504/xc32_monitor.o
 .gnu.attributes
                0x00000180       0x10 build/default/production/_ext/1171490990/initialization.o
 .gnu.attributes
                0x00000190       0x10 build/default/production/_ext/1171490990/interrupts.o
 .gnu.attributes
                0x000001a0       0x10 build/default/production/_ext/1171490990/exceptions.o
 .gnu.attributes
                0x000001b0       0x10 build/default/production/_ext/1019397905/mainCubeMeteo.o
 .gnu.attributes
                0x000001c0       0x10 build/default/production/_ext/1019397905/cubeCommon.o
 .gnu.attributes
                0x000001d0       0x10 build/default/production/_ext/1367680316/LM75A.o
 .gnu.attributes
                0x000001e0       0x10 build/default/production/_ext/672751358/SAA1064T.o
 .gnu.attributes
                0x000001f0       0x10 build/default/production/_ext/1360937237/mainCube.o
 .gnu.attributes
                0x00000200       0x10 /opt/microchip/xc32/v2.50/bin/bin/../../lib/gcc/pic32mx/4.8.3/../../../../pic32mx/lib/fpu64/libpic32.a(default-on-reset.o)
 .gnu.attributes
                0x00000210       0x10 /opt/microchip/xc32/v2.50/bin/bin/../../lib/gcc/pic32mx/4.8.3/../../../../pic32mx/lib/fpu64/libpic32.a(default-on-bootstrap.o)
 .gnu.attributes
                0x00000220       0x10 /opt/microchip/xc32/v2.50/bin/bin/../../lib/gcc/pic32mx/4.8.3/../../../../pic32mx/lib/fpu64/libpic32.a(defaultinterrupt.o)
 .gnu.attributes
                0x00000230       0x10 /opt/microchip/xc32/v2.50/bin/bin/../../lib/gcc/pic32mx/4.8.3/../../../../pic32mx/lib/fpu64/libc.a(sprintf_cdnopuxX.eo)
 .gnu.attributes
                0x00000240       0x10 /opt/microchip/xc32/v2.50/bin/bin/../../lib/gcc/pic32mx/4.8.3/../../../../pic32mx/lib/fpu64/libc.a(doprnt_cdnopuxX.eo)
 .gnu.attributes
                0x00000250       0x10 /opt/microchip/xc32/v2.50/bin/bin/../../lib/gcc/pic32mx/4.8.3/../../../../pic32mx/lib/fpu64/libc.a(_fputc_simple.o)
 .gnu.attributes
                0x00000260       0x10 /opt/microchip/xc32/v2.50/bin/bin/../../lib/gcc/pic32mx/4.8.3/../../../../pic32mx/lib/fpu64/libc.a(ctype.o)
 .gnu.attributes
                0x00000270       0x10 /opt/microchip/xc32/v2.50/bin/bin/../../lib/gcc/pic32mx/4.8.3/../../../../pic32mx/lib/fpu64/libc.a(_iob.o)
 .gnu.attributes
                0x00000280       0x10 /opt/microchip/xc32/v2.50/bin/bin/../../lib/gcc/pic32mx/4.8.3/../../../../pic32mx/lib/fpu64/libc.a(_flsbuf_simple.o)
 .gnu.attributes
                0x00000290       0x10 /opt/microchip/xc32/v2.50/bin/bin/../../lib/gcc/pic32mx/4.8.3/fpu64/libgcc.a(_udivdi3.o)
 .gnu.attributes
                0x000002a0       0x10 /opt/microchip/xc32/v2.50/bin/bin/../../lib/gcc/pic32mx/4.8.3/fpu64/libgcc.a(_umoddi3.o)
 .gnu.attributes
                0x000002b0       0x10 /opt/microchip/xc32/v2.50/bin/bin/../../lib/gcc/pic32mx/4.8.3/../../../../pic32mx/lib/fpu64/libpic32.a(write.o)
                0x9d000000                PROVIDE (__pic32_init_cache_program_base_addr, 0x9d000000)
                0x80000000                PROVIDE (__pic32_init_cache_data_base_addr, 0x80000000)
                0xd0000000                PROVIDE (__pic32_init_sqi_kseg2_virtual_base_addr, 0xd0000000)
                0x30000000                PROVIDE (__pic32_init_sqi_kseg2_physical_base_addr, 0x30000000)
                0x0000001f                PROVIDE (__pic32_init_sqi_kseg2_entrylo0_bitset, 0x1f)
                0xd0000000                __pic32_tlb_0_entryhi = __pic32_init_sqi_kseg2_virtual_base_addr
                0x00c0001f                __pic32_tlb_0_entrylo0 = ((__pic32_init_sqi_kseg2_physical_base_addr >> 0x6) | __pic32_init_sqi_kseg2_entrylo0_bitset)
                0x00c4001f                __pic32_tlb_0_entrylo1 = (__pic32_tlb_0_entrylo0 | ((__pic32_init_sqi_kseg2_physical_base_addr + 0x1000000) >> 0x6))
                0xd2000000                __pic32_tlb_1_entryhi = (__pic32_init_sqi_kseg2_virtual_base_addr + 0x2000000)
                0x00c8001f                __pic32_tlb_1_entrylo0 = (((__pic32_init_sqi_kseg2_physical_base_addr + 0x2000000) >> 0x6) | __pic32_init_sqi_kseg2_entrylo0_bitset)
                0x00cc001f                __pic32_tlb_1_entrylo1 = (__pic32_tlb_1_entrylo0 | 0x40000)
                0xf0000000                PROVIDE (__pic32_init_sqi_kseg3_virtual_base_addr, 0xf0000000)
                0x30000000                PROVIDE (__pic32_init_sqi_kseg3_physical_base_addr, 0x30000000)
                0x00000017                PROVIDE (__pic32_init_sqi_kseg3_entrylo0_bitset, 0x17)
                0xf0000000                __pic32_tlb_2_entryhi = __pic32_init_sqi_kseg3_virtual_base_addr
                0x00c00017                __pic32_tlb_2_entrylo0 = ((__pic32_init_sqi_kseg3_physical_base_addr >> 0x6) | __pic32_init_sqi_kseg3_entrylo0_bitset)
                0x00c40017                __pic32_tlb_2_entrylo1 = (__pic32_tlb_2_entrylo0 | ((__pic32_init_sqi_kseg3_physical_base_addr + 0x1000000) >> 0x6))
                0xf2000000                __pic32_tlb_3_entryhi = (__pic32_init_sqi_kseg3_virtual_base_addr + 0x2000000)
                0x00c80017                __pic32_tlb_3_entrylo0 = (((__pic32_init_sqi_kseg3_physical_base_addr + 0x2000000) >> 0x6) | __pic32_init_sqi_kseg3_entrylo0_bitset)
                0x00cc0017                __pic32_tlb_3_entrylo1 = (__pic32_tlb_3_entrylo0 | 0x40000)
                0xc0000000                PROVIDE (__pic32_init_ebi_kseg2_virtual_base_addr, 0xc0000000)
                0x20000000                PROVIDE (__pic32_init_ebi_kseg2_physical_base_addr, 0x20000000)
                0x0000001f                PROVIDE (__pic32_init_ebi_kseg2_entrylo0_bitset, 0x1f)
                0xc0000000                __pic32_tlb_4_entryhi = __pic32_init_ebi_kseg2_virtual_base_addr
                0x0080001f                __pic32_tlb_4_entrylo0 = ((__pic32_init_ebi_kseg2_physical_base_addr >> 0x6) | __pic32_init_ebi_kseg2_entrylo0_bitset)
                0x0084001f                __pic32_tlb_4_entrylo1 = (__pic32_tlb_4_entrylo0 | ((__pic32_init_ebi_kseg2_physical_base_addr + 0x1000000) >> 0x6))
                0xc2000000                __pic32_tlb_5_entryhi = (__pic32_init_ebi_kseg2_virtual_base_addr + 0x2000000)
                0x0088001f                __pic32_tlb_5_entrylo0 = (((__pic32_init_ebi_kseg2_physical_base_addr + 0x2000000) >> 0x6) | __pic32_init_ebi_kseg2_entrylo0_bitset)
                0x008c001f                __pic32_tlb_5_entrylo1 = (__pic32_tlb_5_entrylo0 | 0x40000)
                0xe0000000                PROVIDE (__pic32_init_ebi_kseg3_virtual_base_addr, 0xe0000000)
                0x20000000                PROVIDE (__pic32_init_ebi_kseg3_physical_base_addr, 0x20000000)
                0x00000017                PROVIDE (__pic32_init_ebi_kseg3_entrylo0_bitset, 0x17)
                0xe0000000                __pic32_tlb_6_entryhi = __pic32_init_ebi_kseg3_virtual_base_addr
                0x00800017                __pic32_tlb_6_entrylo0 = ((__pic32_init_ebi_kseg3_physical_base_addr >> 0x6) | __pic32_init_ebi_kseg3_entrylo0_bitset)
                0x00840017                __pic32_tlb_6_entrylo1 = (__pic32_tlb_6_entrylo0 | ((__pic32_init_ebi_kseg3_physical_base_addr + 0x1000000) >> 0x6))
                0xe2000000                __pic32_tlb_7_entryhi = (__pic32_init_ebi_kseg3_virtual_base_addr + 0x2000000)
                0x00880017                __pic32_tlb_7_entrylo0 = (((__pic32_init_ebi_kseg3_physical_base_addr + 0x2000000) >> 0x6) | __pic32_init_ebi_kseg3_entrylo0_bitset)
                0x008c0017                __pic32_tlb_7_entrylo1 = (__pic32_tlb_7_entrylo0 | 0x40000)

.tlb_init_values
                0xbfc00670       0x60
                0xbfc00670                . = ALIGN (0x4)
                0xbfc00670                __pic32_tlb_init_values_begin = ABSOLUTE (.)
                0xbfc00670        0x4 LONG 0xd0000000 __pic32_tlb_0_entryhi
                0xbfc00674        0x4 LONG 0xc0001f __pic32_tlb_0_entrylo0
                0xbfc00678        0x4 LONG 0xc4001f __pic32_tlb_0_entrylo1
                0xbfc0067c        0x4 LONG 0xd2000000 __pic32_tlb_1_entryhi
                0xbfc00680        0x4 LONG 0xc8001f __pic32_tlb_1_entrylo0
                0xbfc00684        0x4 LONG 0xcc001f __pic32_tlb_1_entrylo1
                0xbfc00688        0x4 LONG 0xf0000000 __pic32_tlb_2_entryhi
                0xbfc0068c        0x4 LONG 0xc00017 __pic32_tlb_2_entrylo0
                0xbfc00690        0x4 LONG 0xc40017 __pic32_tlb_2_entrylo1
                0xbfc00694        0x4 LONG 0xf2000000 __pic32_tlb_3_entryhi
                0xbfc00698        0x4 LONG 0xc80017 __pic32_tlb_3_entrylo0
                0xbfc0069c        0x4 LONG 0xcc0017 __pic32_tlb_3_entrylo1
                0xbfc006a0        0x4 LONG 0xc0000000 __pic32_tlb_4_entryhi
                0xbfc006a4        0x4 LONG 0x80001f __pic32_tlb_4_entrylo0
                0xbfc006a8        0x4 LONG 0x84001f __pic32_tlb_4_entrylo1
                0xbfc006ac        0x4 LONG 0xc2000000 __pic32_tlb_5_entryhi
                0xbfc006b0        0x4 LONG 0x88001f __pic32_tlb_5_entrylo0
                0xbfc006b4        0x4 LONG 0x8c001f __pic32_tlb_5_entrylo1
                0xbfc006b8        0x4 LONG 0xe0000000 __pic32_tlb_6_entryhi
                0xbfc006bc        0x4 LONG 0x800017 __pic32_tlb_6_entrylo0
                0xbfc006c0        0x4 LONG 0x840017 __pic32_tlb_6_entrylo1
                0xbfc006c4        0x4 LONG 0xe2000000 __pic32_tlb_7_entryhi
                0xbfc006c8        0x4 LONG 0x880017 __pic32_tlb_7_entrylo0
                0xbfc006cc        0x4 LONG 0x8c0017 __pic32_tlb_7_entrylo1
                0xbfc006d0                __pic32_tlb_init_values_end = ABSOLUTE (.)
                0x00000008                __pic32_tlb_init_values_count = 0x8
                0x00000200                _min_heap_size = 0x200
LOAD /tmp/ccB6g2BR.o
LOAD /tmp/cc7Kyr2S.o
LOAD /tmp/ccmuyaSR.o
LOAD /opt/microchip/xc32/v2.50/bin/bin/../../lib/gcc/pic32mx/4.8.3/../../../../pic32mx/lib/./proc/32MZ2048EFM100/default_isr_vectors.o
LOAD /opt/microchip/xc32/v2.50/bin/bin/../../lib/gcc/pic32mx/4.8.3/../../../../pic32mx/lib/fpu64/pic32_software_reset.o
LOAD /opt/microchip/xc32/v2.50/bin/bin/../../lib/gcc/pic32mx/4.8.3/fpu64/libgcc.a
START GROUP
LOAD /opt/microchip/xc32/v2.50/bin/bin/../../lib/gcc/pic32mx/4.8.3/../../../../pic32mx/lib/fpu64/libpic32.a
LOAD /opt/microchip/xc32/v2.50/bin/bin/../../lib/gcc/pic32mx/4.8.3/../../../../pic32mx/lib/fpu64/libdebug.a
LOAD /opt/microchip/xc32/v2.50/bin/bin/../../lib/gcc/pic32mx/4.8.3/../../../../pic32mx/lib/fpu64/libpic32.a
LOAD /opt/microchip/xc32/v2.50/bin/bin/../../lib/gcc/pic32mx/4.8.3/../../../../pic32mx/lib/fpu64/libc.a
LOAD /opt/microchip/xc32/v2.50/bin/bin/../../lib/gcc/pic32mx/4.8.3/../../../../pic32mx/lib/fpu64/libc.a
LOAD /opt/microchip/xc32/v2.50/bin/bin/../../lib/gcc/pic32mx/4.8.3/../../../../pic32mx/lib/fpu64/libmfd.a
LOAD /opt/microchip/xc32/v2.50/bin/bin/../../lib/gcc/pic32mx/4.8.3/../../../../pic32mx/lib/fpu64/libm.a
LOAD /opt/microchip/xc32/v2.50/bin/bin/../../lib/gcc/pic32mx/4.8.3/../../../../pic32mx/lib/fpu64/libe.a
LOAD /opt/microchip/xc32/v2.50/bin/bin/../../lib/gcc/pic32mx/4.8.3/../../../../pic32mx/lib/fpu64/libdspr2.a
LOAD /opt/microchip/xc32/v2.50/bin/bin/../../lib/gcc/pic32mx/4.8.3/../../../../pic32mx/lib/fpu64/libdsp.a
LOAD /opt/microchip/xc32/v2.50/bin/bin/../../lib/gcc/pic32mx/4.8.3/fpu64/libgcc.a
LOAD /opt/microchip/xc32/v2.50/bin/bin/../../lib/gcc/pic32mx/4.8.3/../../../../pic32mx/lib/fpu64/libpic32.a
END GROUP
LOAD /opt/microchip/xc32/v2.50/bin/bin/../../lib/gcc/pic32mx/4.8.3/fpu64/libgcc.a
OUTPUT(dist/default/production/CubeDebMeteo.X.production.elf elf32-tradlittlemips)
LOAD stack
LOAD data_init

.reginfo        0x00000000       0x18
 .reginfo       0x00000000       0x18 /opt/microchip/xc32/v2.50/bin/bin/../../lib/gcc/pic32mx/4.8.3/../../../../pic32mx/lib/fpu64/debug-exception-return.o

.stack          0x800004e0      0x400
 .stack         0x800004e0      0x400 stack

.__vector_offset_BF810540_data
                0xbf810540      0x178
 .__vector_offset_BF810540_data
                0xbf810540      0x178 /opt/microchip/xc32/v2.50/bin/bin/../../lib/gcc/pic32mx/4.8.3/../../../../pic32mx/lib/./proc/32MZ2048EFM100/vector_offset_init.o

.__vector_offset_BF810740_data
                0xbf810740       0xfc
 .__vector_offset_BF810740_data
                0xbf810740       0xfc /opt/microchip/xc32/v2.50/bin/bin/../../lib/gcc/pic32mx/4.8.3/../../../../pic32mx/lib/./proc/32MZ2048EFM100/vector_offset_init.o

.__vector_offset_BF8106F4_data
                0xbf8106f4       0x40
 .__vector_offset_BF8106F4_data
                0xbf8106f4       0x40 /opt/microchip/xc32/v2.50/bin/bin/../../lib/gcc/pic32mx/4.8.3/../../../../pic32mx/lib/./proc/32MZ2048EFM100/vector_offset_init.o

.__vector_offset_BF8106D8_data
                0xbf8106d8       0x18
 .__vector_offset_BF8106D8_data
                0xbf8106d8       0x18 /opt/microchip/xc32/v2.50/bin/bin/../../lib/gcc/pic32mx/4.8.3/../../../../pic32mx/lib/./proc/32MZ2048EFM100/vector_offset_init.o

.__vector_offset_BF810874_data
                0xbf810874       0x18
 .__vector_offset_BF810874_data
                0xbf810874       0x18 /opt/microchip/xc32/v2.50/bin/bin/../../lib/gcc/pic32mx/4.8.3/../../../../pic32mx/lib/./proc/32MZ2048EFM100/vector_offset_init.o

.__vector_offset_BF810858_data
                0xbf810858       0x14
 .__vector_offset_BF810858_data
                0xbf810858       0x14 /opt/microchip/xc32/v2.50/bin/bin/../../lib/gcc/pic32mx/4.8.3/../../../../pic32mx/lib/./proc/32MZ2048EFM100/vector_offset_init.o

.__vector_offset_BF810840_data
                0xbf810840        0xc
 .__vector_offset_BF810840_data
                0xbf810840        0xc /opt/microchip/xc32/v2.50/bin/bin/../../lib/gcc/pic32mx/4.8.3/../../../../pic32mx/lib/./proc/32MZ2048EFM100/vector_offset_init.o

.__vector_offset_BF810850_data
                0xbf810850        0x4
 .__vector_offset_BF810850_data
                0xbf810850        0x4 /opt/microchip/xc32/v2.50/bin/bin/../../lib/gcc/pic32mx/4.8.3/../../../../pic32mx/lib/./proc/32MZ2048EFM100/vector_offset_init.o

.__vector_offset_BF810894_data
                0xbf810894        0x4
 .__vector_offset_BF810894_data
                0xbf810894        0x4 /opt/microchip/xc32/v2.50/bin/bin/../../lib/gcc/pic32mx/4.8.3/../../../../pic32mx/lib/./proc/32MZ2048EFM100/vector_offset_init.o

.data           0x800000c8       0xc8
 .data          0x800000c8       0xc8 build/default/production/_ext/1019397905/mainCubeMeteo.o
                0x800000c8                messageError
                0x800000e8                messageStart

.bss            0x80000190       0xa4
 .bss           0x80000190       0x60 build/default/production/_ext/1240316727/temperatureStream.o
 .bss           0x800001f0       0x44 /opt/microchip/xc32/v2.50/bin/bin/../../lib/gcc/pic32mx/4.8.3/../../../../pic32mx/lib/fpu64/libc.a(_iob.o)
                0x800001f0                _sobuf
                0x80000210                _sibuf
                0x80000230                _outdone

.bss            0x80000234       0x58
 .bss           0x80000234       0x34 build/default/production/_ext/513455433/plib_i2c1_master.o
 .bss           0x80000268       0x24 build/default/production/_ext/1019397905/mainCubeMeteo.o
                0x80000268                echoBuffer
                0x8000027c                receiveBuffer

.bss            0x8000028c       0x2c
 .bss           0x8000028c       0x1c build/default/production/_ext/1571292264/7segmentsOutputStream.o
 .bss           0x800002a8       0x10 build/default/production/_ext/1522154941/uart5.o

.bss            0x800002b8        0xc
 .bss           0x800002b8        0xc build/default/production/_ext/242462784/outputStream.o

._debug_exception
                0xbfc00480       0x2c
 ._debug_exception
                0xbfc00480       0x2c /opt/microchip/xc32/v2.50/bin/bin/../../lib/gcc/pic32mx/4.8.3/../../../../pic32mx/lib/fpu64/debug-exception-return.o
                0xbfc00480                __DbgExecReturn

.text._vfprintf_cdnopuxX
                0x9d000290      0xc8c
 .text._vfprintf_cdnopuxX
                0x9d000290      0xc8c /opt/microchip/xc32/v2.50/bin/bin/../../lib/gcc/pic32mx/4.8.3/../../../../pic32mx/lib/fpu64/libc.a(doprnt_cdnopuxX.eo)
                0x9d000290                _vfprintf_cdnopuxX

.dinit          0x9d000f1c      0x580
 .dinit         0x9d000f1c      0x580 data_init

.text.I2C1_MASTER_InterruptHandler
                0x9d00149c      0x4c0
 .text.I2C1_MASTER_InterruptHandler
                0x9d00149c      0x4c0 build/default/production/_ext/513455433/plib_i2c1_master.o
                0x9d00149c                I2C1_MASTER_InterruptHandler

.text           0x9d00195c      0x8bc
 .text          0x9d00195c      0x464 /opt/microchip/xc32/v2.50/bin/bin/../../lib/gcc/pic32mx/4.8.3/fpu64/libgcc.a(_umoddi3.o)
                0x9d00195c                __umoddi3
 .text          0x9d001dc0      0x458 /opt/microchip/xc32/v2.50/bin/bin/../../lib/gcc/pic32mx/4.8.3/fpu64/libgcc.a(_udivdi3.o)
                0x9d001dc0                __udivdi3

.text.mainCube  0x9d002218      0x238
 .text.mainCube
                0x9d002218      0x238 build/default/production/_ext/1019397905/mainCubeMeteo.o
                0x9d002218                mainCube

.text.TIMER_1_Handler
                0x9d002450      0x1a0
 .text.TIMER_1_Handler
                0x9d002450      0x1a0 build/default/production/_ext/1171490990/interrupts.o
                0x9d002450                TIMER_1_Handler

.text.I2C1_BUS_Handler
                0x9d0025f0      0x1a0
 .text.I2C1_BUS_Handler
                0x9d0025f0      0x1a0 build/default/production/_ext/1171490990/interrupts.o
                0x9d0025f0                I2C1_BUS_Handler

.text.I2C1_MASTER_Handler
                0x9d002790      0x1a0
 .text.I2C1_MASTER_Handler
                0x9d002790      0x1a0 build/default/production/_ext/1171490990/interrupts.o
                0x9d002790                I2C1_MASTER_Handler

.text.UART2_FAULT_Handler
                0x9d002930      0x1a0
 .text.UART2_FAULT_Handler
                0x9d002930      0x1a0 build/default/production/_ext/1171490990/interrupts.o
                0x9d002930                UART2_FAULT_Handler

.text.UART2_RX_Handler
                0x9d002ad0      0x1a0
 .text.UART2_RX_Handler
                0x9d002ad0      0x1a0 build/default/production/_ext/1171490990/interrupts.o
                0x9d002ad0                UART2_RX_Handler

.text.UART2_TX_Handler
                0x9d002c70      0x1a0
 .text.UART2_TX_Handler
                0x9d002c70      0x1a0 build/default/production/_ext/1171490990/interrupts.o
                0x9d002c70                UART2_TX_Handler

.text.UART5_FAULT_Handler
                0x9d002e10      0x1a0
 .text.UART5_FAULT_Handler
                0x9d002e10      0x1a0 build/default/production/_ext/1171490990/interrupts.o
                0x9d002e10                UART5_FAULT_Handler

.text.UART5_RX_Handler
                0x9d002fb0      0x1a0
 .text.UART5_RX_Handler
                0x9d002fb0      0x1a0 build/default/production/_ext/1171490990/interrupts.o
                0x9d002fb0                UART5_RX_Handler

.text.UART5_TX_Handler
                0x9d003150      0x1a0
 .text.UART5_TX_Handler
                0x9d003150      0x1a0 build/default/production/_ext/1171490990/interrupts.o
                0x9d003150                UART5_TX_Handler

.text           0x9d0032f0      0x2d0
 .text          0x9d0032f0      0x168 /opt/microchip/xc32/v2.50/bin/bin/../../lib/gcc/pic32mx/4.8.3/../../../../pic32mx/lib/fpu64/libpic32.a(memcpy.o)
                0x9d0032f0                memcpy
 .text          0x9d003458      0x168 /opt/microchip/xc32/v2.50/bin/bin/../../lib/gcc/pic32mx/4.8.3/../../../../pic32mx/lib/fpu64/libpic32.a(strlen.o)
                0x9d003458                strlen

.text.fputc     0x9d0035c0      0x144
 .text.fputc    0x9d0035c0      0x144 /opt/microchip/xc32/v2.50/bin/bin/../../lib/gcc/pic32mx/4.8.3/../../../../pic32mx/lib/fpu64/libc.a(_fputc_simple.o)
                0x9d0035c0                fputc

.text._flsbuf   0x9d003704      0x12c
 .text._flsbuf  0x9d003704      0x12c /opt/microchip/xc32/v2.50/bin/bin/../../lib/gcc/pic32mx/4.8.3/../../../../pic32mx/lib/fpu64/libc.a(_flsbuf_simple.o)
                0x9d003704                _flsbuf

.rodata         0x9d003830      0x204
 .rodata        0x9d003830      0x104 /opt/microchip/xc32/v2.50/bin/bin/../../lib/gcc/pic32mx/4.8.3/../../../../pic32mx/lib/fpu64/libc.a(ctype.o)
                0x9d003830                _ctype
 .rodata        0x9d003934      0x100 build/default/production/_ext/1571292264/7segments.o

.text.UART2_RX_InterruptHandler
                0x9d003a34      0x100
 .text.UART2_RX_InterruptHandler
                0x9d003a34      0x100 build/default/production/_ext/1865657120/plib_uart2.o
                0x9d003a34                UART2_RX_InterruptHandler

.text.UART5_RX_InterruptHandler
                0x9d003b34      0x100
 .text.UART5_RX_InterruptHandler
                0x9d003b34      0x100 build/default/production/_ext/1865657120/plib_uart5.o
                0x9d003b34                UART5_RX_InterruptHandler

.text.UART2_TX_InterruptHandler
                0x9d003c34       0xfc
 .text.UART2_TX_InterruptHandler
                0x9d003c34       0xfc build/default/production/_ext/1865657120/plib_uart2.o
                0x9d003c34                UART2_TX_InterruptHandler

.text.UART5_TX_InterruptHandler
                0x9d003d30       0xfc
 .text.UART5_TX_InterruptHandler
                0x9d003d30       0xfc build/default/production/_ext/1865657120/plib_uart5.o
                0x9d003d30                UART5_TX_InterruptHandler

.text.general_exception
                0x9d000010       0xdc
 .text.general_exception
                0x9d000010       0xdc /opt/microchip/xc32/v2.50/bin/bin/../../lib/gcc/pic32mx/4.8.3/../../../../pic32mx/lib/fpu64/libpic32.a(general-exception.o)
                0x9d000010                _general_exception_context

.text._cache_err_exception_context
                0x9d003e2c       0xd8
 .text._cache_err_exception_context
                0x9d003e2c       0xd8 /opt/microchip/xc32/v2.50/bin/bin/../../lib/gcc/pic32mx/4.8.3/../../../../pic32mx/lib/fpu64/libpic32.a(cache-err-exception.o)
                0x9d003e2c                _cache_err_exception_context

.text.simple_tlb_refill_context
                0x9d003f04       0xd8
 .text.simple_tlb_refill_context
                0x9d003f04       0xd8 /opt/microchip/xc32/v2.50/bin/bin/../../lib/gcc/pic32mx/4.8.3/../../../../pic32mx/lib/fpu64/libpic32.a(simple-tlb-refill-exception.o)
                0x9d003f04                _simple_tlb_refill_exception_context

.rodata         0x9d003fe0       0xd0
 .rodata        0x9d003fe0       0xd0 /opt/microchip/xc32/v2.50/bin/bin/../../lib/gcc/pic32mx/4.8.3/../../../../pic32mx/lib/fpu64/libc.a(doprnt_cdnopuxX.eo)

.text.UART5_Write
                0x9d0040b0       0xcc
 .text.UART5_Write
                0x9d0040b0       0xcc build/default/production/_ext/1865657120/plib_uart5.o
                0x9d0040b0                UART5_Write

.tlb.__pic32_tlb_init_ebi_sqi
                0x9d00417c       0xbc
 .tlb.__pic32_tlb_init_ebi_sqi
                0x9d00417c       0xbc /opt/microchip/xc32/v2.50/bin/bin/../../lib/gcc/pic32mx/4.8.3/../../../../pic32mx/lib/fpu64/libpic32.a(pic32_init_tlb_ebi_sqi.o)
                0x9d00417c                __pic32_tlb_init_ebi_sqi

.text.GPIO_Initialize
                0x9d004238       0xa0
 .text.GPIO_Initialize
                0x9d004238       0xa0 build/default/production/_ext/1865254177/plib_gpio.o
                0x9d004238                GPIO_Initialize

.text.write     0x9d0042d8       0x9c
 .text.write    0x9d0042d8       0x9c /opt/microchip/xc32/v2.50/bin/bin/../../lib/gcc/pic32mx/4.8.3/../../../../pic32mx/lib/fpu64/libpic32.a(write.o)
                0x9d0042d8                write

.text.SYS_Initialize
                0x9d004374       0x98
 .text.SYS_Initialize
                0x9d004374       0x98 build/default/production/_ext/1171490990/initialization.o
                0x9d004374                SYS_Initialize

.text.print7Seg
                0x9d00440c       0x94
 .text.print7Seg
                0x9d00440c       0x94 build/default/production/_ext/1571292264/7segments.o
                0x9d00440c                print7Seg

.text.CLK_Initialize
                0x9d0044a0       0x94
 .text.CLK_Initialize
                0x9d0044a0       0x94 build/default/production/_ext/60165520/plib_clk.o
                0x9d0044a0                CLK_Initialize

.text.initMainCube
                0x9d004534       0x94
 .text.initMainCube
                0x9d004534       0x94 build/default/production/_ext/1019397905/mainCubeMeteo.o
                0x9d004534                initMainCube

.text.initLed   0x9d0045c8       0x88
 .text.initLed  0x9d0045c8       0x88 build/default/production/_ext/919093983/led.o
                0x9d0045c8                initLed

.text.I2C1_WriteRead
                0x9d004650       0x88
 .text.I2C1_WriteRead
                0x9d004650       0x88 build/default/production/_ext/513455433/plib_i2c1_master.o
                0x9d004650                I2C1_WriteRead

.text.UART2_Initialize
                0x9d0046d8       0x88
 .text.UART2_Initialize
                0x9d0046d8       0x88 build/default/production/_ext/1865657120/plib_uart2.o
                0x9d0046d8                UART2_Initialize

.text.UART5_Initialize
                0x9d004760       0x88
 .text.UART5_Initialize
                0x9d004760       0x88 build/default/production/_ext/1865657120/plib_uart5.o
                0x9d004760                UART5_Initialize

.text.I2C1_Write
                0x9d0047e8       0x84
 .text.I2C1_Write
                0x9d0047e8       0x84 build/default/production/_ext/513455433/plib_i2c1_master.o
                0x9d0047e8                I2C1_Write

.text.UART5_Read
                0x9d00486c       0x84
 .text.UART5_Read
                0x9d00486c       0x84 build/default/production/_ext/1865657120/plib_uart5.o
                0x9d00486c                UART5_Read

.text           0x9d0048f0       0x84
 .text          0x9d0048f0       0x84 /opt/microchip/xc32/v2.50/bin/bin/../../lib/gcc/pic32mx/4.8.3/../../../../pic32mx/lib/fpu64/libpic32.a(pic32_data_init.o)
                0x9d0048f0                __pic32_data_init

.text.UART2_ErrorClear
                0x9d004974       0x78
 .text.UART2_ErrorClear
                0x9d004974       0x78 build/default/production/_ext/1865657120/plib_uart2.o

.text.UART5_ErrorClear
                0x9d0049ec       0x78
 .text.UART5_ErrorClear
                0x9d0049ec       0x78 build/default/production/_ext/1865657120/plib_uart5.o

.text.EVIC_Initialize
                0x9d000110       0x70
 .text.EVIC_Initialize
                0x9d000110       0x70 build/default/production/_ext/1865200349/plib_evic.o
                0x9d000110                EVIC_Initialize

.text.writeOutputStream
                0x9d000190       0x68
 .text.writeOutputStream
                0x9d000190       0x68 build/default/production/_ext/242462784/outputStream.o
                0x9d000190                writeOutputStream

.text._sprintf_cdnopuxX
                0x9d004a64       0x68
 .text._sprintf_cdnopuxX
                0x9d004a64       0x68 /opt/microchip/xc32/v2.50/bin/bin/../../lib/gcc/pic32mx/4.8.3/../../../../pic32mx/lib/fpu64/libc.a(sprintf_cdnopuxX.eo)
                0x9d004a64                _sprintf_cdnopuxX

.text.init7SegOutputStream
                0x9d004acc       0x64
 .text.init7SegOutputStream
                0x9d004acc       0x64 build/default/production/_ext/1571292264/7segmentsOutputStream.o
                0x9d004acc                init7SegOutputStream

.text.I2C1_Initialize
                0x9d004b30       0x64
 .text.I2C1_Initialize
                0x9d004b30       0x64 build/default/production/_ext/513455433/plib_i2c1_master.o
                0x9d004b30                I2C1_Initialize

.text.UART2_FAULT_InterruptHandler
                0x9d004b94       0x64
 .text.UART2_FAULT_InterruptHandler
                0x9d004b94       0x64 build/default/production/_ext/1865657120/plib_uart2.o
                0x9d004b94                UART2_FAULT_InterruptHandler

.text.UART5_FAULT_InterruptHandler
                0x9d004bf8       0x64
 .text.UART5_FAULT_InterruptHandler
                0x9d004bf8       0x64 build/default/production/_ext/1865657120/plib_uart5.o
                0x9d004bf8                UART5_FAULT_InterruptHandler

.text.writeStringToBuffer
                0x9d004c5c       0x60
 .text.writeStringToBuffer
                0x9d004c5c       0x60 build/default/production/_ext/383772639/buffer.o
                0x9d004c5c                writeStringToBuffer

.text.initUart5
                0x9d004cbc       0x60
 .text.initUart5
                0x9d004cbc       0x60 build/default/production/_ext/1522154941/uart5.o
                0x9d004cbc                initUart5

.text.I2C1_BUS_InterruptHandler
                0x9d004d1c       0x5c
 .text.I2C1_BUS_InterruptHandler
                0x9d004d1c       0x5c build/default/production/_ext/513455433/plib_i2c1_master.o
                0x9d004d1c                I2C1_BUS_InterruptHandler

.text._LM75A_readSensorValue
                0x9d004d78       0x54
 .text._LM75A_readSensorValue
                0x9d004d78       0x54 build/default/production/_ext/1367680316/LM75A.o
                0x9d004d78                _LM75A_readSensorValue

.text.main_entry
                0x9d004dcc       0x54
 .text.main_entry
                0x9d004dcc       0x54 /tmp/ccB6g2BR.o
                0x9d004e00                __crt0_exit

.text.I2C1_IsBusy
                0x9d004e20       0x50
 .text.I2C1_IsBusy
                0x9d004e20       0x50 build/default/production/_ext/513455433/plib_i2c1_master.o
                0x9d004e20                I2C1_IsBusy

.text.initCubeCommon
                0x9d004e70       0x50
 .text.initCubeCommon
                0x9d004e70       0x50 build/default/production/_ext/1019397905/cubeCommon.o
                0x9d004e70                initCubeCommon

.text._LM75A_writeAlertLimit
                0x9d004ec0       0x50
 .text._LM75A_writeAlertLimit
                0x9d004ec0       0x50 build/default/production/_ext/1367680316/LM75A.o
                0x9d004ec0                _LM75A_writeAlertLimit

.text.SAA1064Twrite4DIGIT
                0x9d004f10       0x50
 .text.SAA1064Twrite4DIGIT
                0x9d004f10       0x50 build/default/production/_ext/672751358/SAA1064T.o
                0x9d004f10                SAA1064Twrite4DIGIT

.text.readSensorValueAsString
                0x9d004f60       0x4c
 .text.readSensorValueAsString
                0x9d004f60       0x4c build/default/production/_ext/1240316727/temperature.o
                0x9d004f60                readSensorValueAsString

.text.appendString
                0x9d004fac       0x44
 .text.appendString
                0x9d004fac       0x44 build/default/production/_ext/1038083393/printWriter.o
                0x9d004fac                appendString

.text           0x9d004ff0       0x44
 .text          0x9d004ff0       0x44 /opt/microchip/xc32/v2.50/bin/bin/../../lib/gcc/pic32mx/4.8.3/../../../../pic32mx/lib/fpu64/pic32_software_reset.o
                0x9d004ff0                __pic32_software_reset

.text.TMR1_Initialize
                0x9d005034       0x40
 .text.TMR1_Initialize
                0x9d005034       0x40 build/default/production/_ext/1865638794/plib_tmr1.o
                0x9d005034                TMR1_Initialize

.text.TIMER_1_InterruptHandler
                0x9d005074       0x40
 .text.TIMER_1_InterruptHandler
                0x9d005074       0x40 build/default/production/_ext/1865638794/plib_tmr1.o
                0x9d005074                TIMER_1_InterruptHandler

.text.CORETIMER_Initialize
                0x9d0050b4       0x3c
 .text.CORETIMER_Initialize
                0x9d0050b4       0x3c build/default/production/_ext/1249264884/plib_coretimer.o
                0x9d0050b4                CORETIMER_Initialize

.text.APP_ReadCallbackUart5
                0x9d0050f0       0x30
 .text.APP_ReadCallbackUart5
                0x9d0050f0       0x30 build/default/production/_ext/1522154941/uart5.o
                0x9d0050f0                APP_ReadCallbackUart5

.text.TMR2_Initialize
                0x9d005120       0x30
 .text.TMR2_Initialize
                0x9d005120       0x30 build/default/production/_ext/60181895/plib_tmr2.o
                0x9d005120                TMR2_Initialize

.text.initTmr1  0x9d005150       0x2c
 .text.initTmr1
                0x9d005150       0x2c build/default/production/_ext/79239498/timer1.o
                0x9d005150                initTmr1

.text.initTemperatureLM75A
                0x9d00517c       0x2c
 .text.initTemperatureLM75A
                0x9d00517c       0x2c build/default/production/_ext/1367680316/LM75A.o
                0x9d00517c                initTemperatureLM75A

.text._openOutputStream7Seg
                0x9d0051a8       0x28
 .text._openOutputStream7Seg
                0x9d0051a8       0x28 build/default/production/_ext/1571292264/7segmentsOutputStream.o
                0x9d0051a8                _openOutputStream7Seg

.text._closeOutputStream7Seg
                0x9d0051d0       0x28
 .text._closeOutputStream7Seg
                0x9d0051d0       0x28 build/default/production/_ext/1571292264/7segmentsOutputStream.o
                0x9d0051d0                _closeOutputStream7Seg

.text._write7SegStreamChar
                0x9d0051f8       0x28
 .text._write7SegStreamChar
                0x9d0051f8       0x28 build/default/production/_ext/1571292264/7segmentsOutputStream.o
                0x9d0051f8                _write7SegStreamChar

.text._write7SegStreamString
                0x9d005220       0x28
 .text._write7SegStreamString
                0x9d005220       0x28 build/default/production/_ext/1571292264/7segmentsOutputStream.o
                0x9d005220                _write7SegStreamString

.text.main      0x9d005248       0x28
 .text.main     0x9d005248       0x28 build/default/production/_ext/1360937237/mainCube.o
                0x9d005248                main

.text._general_exception_handler
                0x9d005270       0x24
 .text._general_exception_handler
                0x9d005270       0x24 build/default/production/_ext/1171490990/exceptions.o
                0x9d005270                _general_exception_handler

.text._bootstrap_exception_handler
                0x9d005294       0x24
 .text._bootstrap_exception_handler
                0x9d005294       0x24 build/default/production/_ext/1171490990/exceptions.o
                0x9d005294                _bootstrap_exception_handler

.text._cache_err_exception_handler
                0x9d0052b8       0x24
 .text._cache_err_exception_handler
                0x9d0052b8       0x24 build/default/production/_ext/1171490990/exceptions.o
                0x9d0052b8                _cache_err_exception_handler

.text._simple_tlb_refill_exception_handler
                0x9d0052dc       0x24
 .text._simple_tlb_refill_exception_handler
                0x9d0052dc       0x24 build/default/production/_ext/1171490990/exceptions.o
                0x9d0052dc                _simple_tlb_refill_exception_handler

.text.appendStream
                0x9d005300       0x1c
 .text.appendStream
                0x9d005300       0x1c build/default/production/_ext/242462784/outputStream.o
                0x9d005300                appendStream

.text.initTemperatureStream
                0x9d00531c       0x1c
 .text.initTemperatureStream
                0x9d00531c       0x1c build/default/production/_ext/1240316727/temperatureStream.o
                0x9d00531c                initTemperatureStream

.text.writeUart5
                0x9d005338       0x1c
 .text.writeUart5
                0x9d005338       0x1c build/default/production/_ext/1522154941/uart5.o
                0x9d005338                writeUart5

.text.I2C1_CallbackRegister
                0x9d005354       0x1c
 .text.I2C1_CallbackRegister
                0x9d005354       0x1c build/default/production/_ext/513455433/plib_i2c1_master.o
                0x9d005354                I2C1_CallbackRegister

.text.writeCharToBuffer
                0x9d005370       0x18
 .text.writeCharToBuffer
                0x9d005370       0x18 build/default/production/_ext/383772639/buffer.o
                0x9d005370                writeCharToBuffer

.text.UART5_ErrorGet
                0x9d005388       0x18
 .text.UART5_ErrorGet
                0x9d005388       0x18 build/default/production/_ext/1865657120/plib_uart5.o
                0x9d005388                UART5_ErrorGet

.rodata         0x9d0053a0       0x18
 .rodata        0x9d0053a0       0x18 build/default/production/_ext/1019397905/mainCubeMeteo.o

.text           0x9d0053b8       0x18
 .text          0x9d0053b8       0x18 /opt/microchip/xc32/v2.50/bin/bin/../../lib/gcc/pic32mx/4.8.3/../../../../pic32mx/lib/fpu64/libpic32.a(default-nmi-handler.o)
                0x9d0053b8                _nmi_handler

.text.led1RedOn
                0x9d0000ec       0x14
 .text.led1RedOn
                0x9d0000ec       0x14 build/default/production/_ext/919093983/led.o
                0x9d0000ec                led1RedOn

.text.led1RedOff
                0x9d0053d0       0x14
 .text.led1RedOff
                0x9d0053d0       0x14 build/default/production/_ext/919093983/led.o
                0x9d0053d0                led1RedOff

.text.led2GreenOn
                0x9d0053e4       0x14
 .text.led2GreenOn
                0x9d0053e4       0x14 build/default/production/_ext/919093983/led.o
                0x9d0053e4                led2GreenOn

.text.led2GreenOff
                0x9d0053f8       0x14
 .text.led2GreenOff
                0x9d0053f8       0x14 build/default/production/_ext/919093983/led.o
                0x9d0053f8                led2GreenOff

.text.getTemperatureStream
                0x9d00540c       0x14
 .text.getTemperatureStream
                0x9d00540c       0x14 build/default/production/_ext/1240316727/temperatureStream.o
                0x9d00540c                getTemperatureStream

.text.TMR1_Start
                0x9d005420       0x14
 .text.TMR1_Start
                0x9d005420       0x14 build/default/production/_ext/1865638794/plib_tmr1.o
                0x9d005420                TMR1_Start

.text.UART5_ReadCallbackRegister
                0x9d005434       0x14
 .text.UART5_ReadCallbackRegister
                0x9d005434       0x14 build/default/production/_ext/1865657120/plib_uart5.o
                0x9d005434                UART5_ReadCallbackRegister

.text.UART5_WriteCallbackRegister
                0x9d005448       0x14
 .text.UART5_WriteCallbackRegister
                0x9d005448       0x14 build/default/production/_ext/1865657120/plib_uart5.o
                0x9d005448                UART5_WriteCallbackRegister

.rodata         0x9d00545c       0x10
 .rodata        0x9d00545c       0x10 build/default/production/_ext/1571292264/7segmentsOutputStream.o

.text.tmr1EventHandler
                0x9d00546c       0x10
 .text.tmr1EventHandler
                0x9d00546c       0x10 build/default/production/_ext/79239498/timer1.o

.text.get7SegOutpuStream
                0x9d00547c        0xc
 .text.get7SegOutpuStream
                0x9d00547c        0xc build/default/production/_ext/1571292264/7segmentsOutputStream.o
                0x9d00547c                get7SegOutpuStream

.text.getDebugOutputStream
                0x9d005488        0xc
 .text.getDebugOutputStream
                0x9d005488        0xc build/default/production/_ext/242462784/outputStream.o
                0x9d005488                getDebugOutputStream

.rodata         0x9d005494        0xc
 .rodata        0x9d005494        0xc build/default/production/_ext/1240316727/temperature.o

.text.getIsTmr1Expired
                0x9d0054a0        0xc
 .text.getIsTmr1Expired
                0x9d0054a0        0xc build/default/production/_ext/79239498/timer1.o
                0x9d0054a0                getIsTmr1Expired

.text.setIsTmr1Expired
                0x9d0054ac        0xc
 .text.setIsTmr1Expired
                0x9d0054ac        0xc build/default/production/_ext/79239498/timer1.o
                0x9d0054ac                setIsTmr1Expired

.text.APP_WriteCallbackUart5
                0x9d0054b8        0xc
 .text.APP_WriteCallbackUart5
                0x9d0054b8        0xc build/default/production/_ext/1522154941/uart5.o
                0x9d0054b8                APP_WriteCallbackUart5

.text.getTxBuffer
                0x9d0054c4        0xc
 .text.getTxBuffer
                0x9d0054c4        0xc build/default/production/_ext/1522154941/uart5.o
                0x9d0054c4                getTxBuffer

.text.TMR1_CallbackRegister
                0x9d0054d0        0xc
 .text.TMR1_CallbackRegister
                0x9d0054d0        0xc build/default/production/_ext/1865638794/plib_tmr1.o
                0x9d0054d0                TMR1_CallbackRegister

.text.MyI2CCallback
                0x9d0001f8        0x8
 .text.MyI2CCallback
                0x9d0001f8        0x8 build/default/production/_ext/1571292264/7segments.o
                0x9d0001f8                MyI2CCallback

.text._flush7Seg
                0x9d0054dc        0x8
 .text._flush7Seg
                0x9d0054dc        0x8 build/default/production/_ext/1571292264/7segmentsOutputStream.o
                0x9d0054dc                _flush7Seg

.text.initBuffer
                0x9d0054e4        0x8
 .text.initBuffer
                0x9d0054e4        0x8 build/default/production/_ext/383772639/buffer.o
                0x9d0054e4                initBuffer

.text.flushBuffer
                0x9d0054ec        0x8
 .text.flushBuffer
                0x9d0054ec        0x8 build/default/production/_ext/383772639/buffer.o
                0x9d0054ec                flushBuffer

.text.initDebugOutputStream
                0x9d0054f4        0x8
 .text.initDebugOutputStream
                0x9d0054f4        0x8 build/default/production/_ext/242462784/outputStream.o
                0x9d0054f4                initDebugOutputStream

.text.appendDot
                0x9d0054fc        0x8
 .text.appendDot
                0x9d0054fc        0x8 build/default/production/_ext/1038083393/printWriter.o
                0x9d0054fc                appendDot

.text.setBoardName
                0x9d005504        0x8
 .text.setBoardName
                0x9d005504        0x8 build/default/production/_ext/92899495/system.o
                0x9d005504                setBoardName

.text.getBoardName
                0x9d00550c        0x8
 .text.getBoardName
                0x9d00550c        0x8 build/default/production/_ext/92899495/system.o
                0x9d00550c                getBoardName

.text.getErrorStatusUart5
                0x9d005514        0x8
 .text.getErrorStatusUart5
                0x9d005514        0x8 build/default/production/_ext/1522154941/uart5.o
                0x9d005514                getErrorStatusUart5

.text.setErrorStatusUart5
                0x9d00551c        0x8
 .text.setErrorStatusUart5
                0x9d00551c        0x8 build/default/production/_ext/1522154941/uart5.o
                0x9d00551c                setErrorStatusUart5

.text.getWriteStatusUart5
                0x9d005524        0x8
 .text.getWriteStatusUart5
                0x9d005524        0x8 build/default/production/_ext/1522154941/uart5.o
                0x9d005524                getWriteStatusUart5

.text.setWriteStatusUart5
                0x9d00552c        0x8
 .text.setWriteStatusUart5
                0x9d00552c        0x8 build/default/production/_ext/1522154941/uart5.o
                0x9d00552c                setWriteStatusUart5

.text.getReadStatusUart5
                0x9d005534        0x8
 .text.getReadStatusUart5
                0x9d005534        0x8 build/default/production/_ext/1522154941/uart5.o
                0x9d005534                getReadStatusUart5

.text.setReadStatusUart5
                0x9d00553c        0x8
 .text.setReadStatusUart5
                0x9d00553c        0x8 build/default/production/_ext/1522154941/uart5.o
                0x9d00553c                setReadStatusUart5

.text._mon_putc
                0x9d005544        0x8
 .text._mon_putc
                0x9d005544        0x8 build/default/production/_ext/163028504/xc32_monitor.o
                0x9d005544                _mon_putc

.text._on_reset
                0x9d00554c        0x8
 .text._on_reset
                0x9d00554c        0x8 /opt/microchip/xc32/v2.50/bin/bin/../../lib/gcc/pic32mx/4.8.3/../../../../pic32mx/lib/fpu64/libpic32.a(default-on-reset.o)
                0x9d00554c                _on_reset

.text._on_bootstrap
                0x9d005554        0x8
 .text._on_bootstrap
                0x9d005554        0x8 /opt/microchip/xc32/v2.50/bin/bin/../../lib/gcc/pic32mx/4.8.3/../../../../pic32mx/lib/fpu64/libpic32.a(default-on-bootstrap.o)
                0x9d005554                _on_bootstrap
